
1_AXIS_F091_MAIN.elf:     file format elf32-littlearm

Sections:
Idx Name          Size      VMA       LMA       File off  Algn
  0 .isr_vector   000000bc  08000000  08000000  00010000  2**0
                  CONTENTS, ALLOC, LOAD, READONLY, DATA
  1 .text         00004e30  080000bc  080000bc  000100bc  2**2
                  CONTENTS, ALLOC, LOAD, READONLY, CODE
  2 .rodata       00000030  08004eec  08004eec  00014eec  2**2
                  CONTENTS, ALLOC, LOAD, READONLY, DATA
  3 .ARM.extab    00000000  08004f1c  08004f1c  0002000c  2**0
                  CONTENTS
  4 .ARM          00000000  08004f1c  08004f1c  0002000c  2**0
                  CONTENTS
  5 .preinit_array 00000000  08004f1c  08004f1c  0002000c  2**0
                  CONTENTS, ALLOC, LOAD, DATA
  6 .init_array   00000004  08004f1c  08004f1c  00014f1c  2**2
                  CONTENTS, ALLOC, LOAD, DATA
  7 .fini_array   00000004  08004f20  08004f20  00014f20  2**2
                  CONTENTS, ALLOC, LOAD, DATA
  8 .data         0000000c  20000000  08004f24  00020000  2**2
                  CONTENTS, ALLOC, LOAD, DATA
  9 .bss          0000119c  2000000c  08004f30  0002000c  2**2
                  ALLOC
 10 ._user_heap_stack 00000600  200011a8  08004f30  000211a8  2**0
                  ALLOC
 11 .ARM.attributes 00000028  00000000  00000000  0002000c  2**0
                  CONTENTS, READONLY
 12 .comment      00000043  00000000  00000000  00020034  2**0
                  CONTENTS, READONLY
 13 .debug_info   00008b83  00000000  00000000  00020077  2**0
                  CONTENTS, READONLY, DEBUGGING, OCTETS
 14 .debug_abbrev 00001a8d  00000000  00000000  00028bfa  2**0
                  CONTENTS, READONLY, DEBUGGING, OCTETS
 15 .debug_aranges 00000870  00000000  00000000  0002a688  2**3
                  CONTENTS, READONLY, DEBUGGING, OCTETS
 16 .debug_rnglists 00000663  00000000  00000000  0002aef8  2**0
                  CONTENTS, READONLY, DEBUGGING, OCTETS
 17 .debug_macro  0001a53a  00000000  00000000  0002b55b  2**0
                  CONTENTS, READONLY, DEBUGGING, OCTETS
 18 .debug_line   0000a1d0  00000000  00000000  00045a95  2**0
                  CONTENTS, READONLY, DEBUGGING, OCTETS
 19 .debug_str    0009f6f4  00000000  00000000  0004fc65  2**0
                  CONTENTS, READONLY, DEBUGGING, OCTETS
 20 .debug_frame  00001ee8  00000000  00000000  000ef35c  2**2
                  CONTENTS, READONLY, DEBUGGING, OCTETS
 21 .debug_line_str 0000005c  00000000  00000000  000f1244  2**0
                  CONTENTS, READONLY, DEBUGGING, OCTETS

Disassembly of section .text:

080000bc <__do_global_dtors_aux>:
 80000bc:	b510      	push	{r4, lr}
 80000be:	4c06      	ldr	r4, [pc, #24]	; (80000d8 <__do_global_dtors_aux+0x1c>)
 80000c0:	7823      	ldrb	r3, [r4, #0]
 80000c2:	2b00      	cmp	r3, #0
 80000c4:	d107      	bne.n	80000d6 <__do_global_dtors_aux+0x1a>
 80000c6:	4b05      	ldr	r3, [pc, #20]	; (80000dc <__do_global_dtors_aux+0x20>)
 80000c8:	2b00      	cmp	r3, #0
 80000ca:	d002      	beq.n	80000d2 <__do_global_dtors_aux+0x16>
 80000cc:	4804      	ldr	r0, [pc, #16]	; (80000e0 <__do_global_dtors_aux+0x24>)
 80000ce:	e000      	b.n	80000d2 <__do_global_dtors_aux+0x16>
 80000d0:	bf00      	nop
 80000d2:	2301      	movs	r3, #1
 80000d4:	7023      	strb	r3, [r4, #0]
 80000d6:	bd10      	pop	{r4, pc}
 80000d8:	2000000c 	.word	0x2000000c
 80000dc:	00000000 	.word	0x00000000
 80000e0:	08004ed4 	.word	0x08004ed4

080000e4 <frame_dummy>:
 80000e4:	4b04      	ldr	r3, [pc, #16]	; (80000f8 <frame_dummy+0x14>)
 80000e6:	b510      	push	{r4, lr}
 80000e8:	2b00      	cmp	r3, #0
 80000ea:	d003      	beq.n	80000f4 <frame_dummy+0x10>
 80000ec:	4903      	ldr	r1, [pc, #12]	; (80000fc <frame_dummy+0x18>)
 80000ee:	4804      	ldr	r0, [pc, #16]	; (8000100 <frame_dummy+0x1c>)
 80000f0:	e000      	b.n	80000f4 <frame_dummy+0x10>
 80000f2:	bf00      	nop
 80000f4:	bd10      	pop	{r4, pc}
 80000f6:	46c0      	nop			; (mov r8, r8)
 80000f8:	00000000 	.word	0x00000000
 80000fc:	20000010 	.word	0x20000010
 8000100:	08004ed4 	.word	0x08004ed4

08000104 <__udivsi3>:
 8000104:	2200      	movs	r2, #0
 8000106:	0843      	lsrs	r3, r0, #1
 8000108:	428b      	cmp	r3, r1
 800010a:	d374      	bcc.n	80001f6 <__udivsi3+0xf2>
 800010c:	0903      	lsrs	r3, r0, #4
 800010e:	428b      	cmp	r3, r1
 8000110:	d35f      	bcc.n	80001d2 <__udivsi3+0xce>
 8000112:	0a03      	lsrs	r3, r0, #8
 8000114:	428b      	cmp	r3, r1
 8000116:	d344      	bcc.n	80001a2 <__udivsi3+0x9e>
 8000118:	0b03      	lsrs	r3, r0, #12
 800011a:	428b      	cmp	r3, r1
 800011c:	d328      	bcc.n	8000170 <__udivsi3+0x6c>
 800011e:	0c03      	lsrs	r3, r0, #16
 8000120:	428b      	cmp	r3, r1
 8000122:	d30d      	bcc.n	8000140 <__udivsi3+0x3c>
 8000124:	22ff      	movs	r2, #255	; 0xff
 8000126:	0209      	lsls	r1, r1, #8
 8000128:	ba12      	rev	r2, r2
 800012a:	0c03      	lsrs	r3, r0, #16
 800012c:	428b      	cmp	r3, r1
 800012e:	d302      	bcc.n	8000136 <__udivsi3+0x32>
 8000130:	1212      	asrs	r2, r2, #8
 8000132:	0209      	lsls	r1, r1, #8
 8000134:	d065      	beq.n	8000202 <__udivsi3+0xfe>
 8000136:	0b03      	lsrs	r3, r0, #12
 8000138:	428b      	cmp	r3, r1
 800013a:	d319      	bcc.n	8000170 <__udivsi3+0x6c>
 800013c:	e000      	b.n	8000140 <__udivsi3+0x3c>
 800013e:	0a09      	lsrs	r1, r1, #8
 8000140:	0bc3      	lsrs	r3, r0, #15
 8000142:	428b      	cmp	r3, r1
 8000144:	d301      	bcc.n	800014a <__udivsi3+0x46>
 8000146:	03cb      	lsls	r3, r1, #15
 8000148:	1ac0      	subs	r0, r0, r3
 800014a:	4152      	adcs	r2, r2
 800014c:	0b83      	lsrs	r3, r0, #14
 800014e:	428b      	cmp	r3, r1
 8000150:	d301      	bcc.n	8000156 <__udivsi3+0x52>
 8000152:	038b      	lsls	r3, r1, #14
 8000154:	1ac0      	subs	r0, r0, r3
 8000156:	4152      	adcs	r2, r2
 8000158:	0b43      	lsrs	r3, r0, #13
 800015a:	428b      	cmp	r3, r1
 800015c:	d301      	bcc.n	8000162 <__udivsi3+0x5e>
 800015e:	034b      	lsls	r3, r1, #13
 8000160:	1ac0      	subs	r0, r0, r3
 8000162:	4152      	adcs	r2, r2
 8000164:	0b03      	lsrs	r3, r0, #12
 8000166:	428b      	cmp	r3, r1
 8000168:	d301      	bcc.n	800016e <__udivsi3+0x6a>
 800016a:	030b      	lsls	r3, r1, #12
 800016c:	1ac0      	subs	r0, r0, r3
 800016e:	4152      	adcs	r2, r2
 8000170:	0ac3      	lsrs	r3, r0, #11
 8000172:	428b      	cmp	r3, r1
 8000174:	d301      	bcc.n	800017a <__udivsi3+0x76>
 8000176:	02cb      	lsls	r3, r1, #11
 8000178:	1ac0      	subs	r0, r0, r3
 800017a:	4152      	adcs	r2, r2
 800017c:	0a83      	lsrs	r3, r0, #10
 800017e:	428b      	cmp	r3, r1
 8000180:	d301      	bcc.n	8000186 <__udivsi3+0x82>
 8000182:	028b      	lsls	r3, r1, #10
 8000184:	1ac0      	subs	r0, r0, r3
 8000186:	4152      	adcs	r2, r2
 8000188:	0a43      	lsrs	r3, r0, #9
 800018a:	428b      	cmp	r3, r1
 800018c:	d301      	bcc.n	8000192 <__udivsi3+0x8e>
 800018e:	024b      	lsls	r3, r1, #9
 8000190:	1ac0      	subs	r0, r0, r3
 8000192:	4152      	adcs	r2, r2
 8000194:	0a03      	lsrs	r3, r0, #8
 8000196:	428b      	cmp	r3, r1
 8000198:	d301      	bcc.n	800019e <__udivsi3+0x9a>
 800019a:	020b      	lsls	r3, r1, #8
 800019c:	1ac0      	subs	r0, r0, r3
 800019e:	4152      	adcs	r2, r2
 80001a0:	d2cd      	bcs.n	800013e <__udivsi3+0x3a>
 80001a2:	09c3      	lsrs	r3, r0, #7
 80001a4:	428b      	cmp	r3, r1
 80001a6:	d301      	bcc.n	80001ac <__udivsi3+0xa8>
 80001a8:	01cb      	lsls	r3, r1, #7
 80001aa:	1ac0      	subs	r0, r0, r3
 80001ac:	4152      	adcs	r2, r2
 80001ae:	0983      	lsrs	r3, r0, #6
 80001b0:	428b      	cmp	r3, r1
 80001b2:	d301      	bcc.n	80001b8 <__udivsi3+0xb4>
 80001b4:	018b      	lsls	r3, r1, #6
 80001b6:	1ac0      	subs	r0, r0, r3
 80001b8:	4152      	adcs	r2, r2
 80001ba:	0943      	lsrs	r3, r0, #5
 80001bc:	428b      	cmp	r3, r1
 80001be:	d301      	bcc.n	80001c4 <__udivsi3+0xc0>
 80001c0:	014b      	lsls	r3, r1, #5
 80001c2:	1ac0      	subs	r0, r0, r3
 80001c4:	4152      	adcs	r2, r2
 80001c6:	0903      	lsrs	r3, r0, #4
 80001c8:	428b      	cmp	r3, r1
 80001ca:	d301      	bcc.n	80001d0 <__udivsi3+0xcc>
 80001cc:	010b      	lsls	r3, r1, #4
 80001ce:	1ac0      	subs	r0, r0, r3
 80001d0:	4152      	adcs	r2, r2
 80001d2:	08c3      	lsrs	r3, r0, #3
 80001d4:	428b      	cmp	r3, r1
 80001d6:	d301      	bcc.n	80001dc <__udivsi3+0xd8>
 80001d8:	00cb      	lsls	r3, r1, #3
 80001da:	1ac0      	subs	r0, r0, r3
 80001dc:	4152      	adcs	r2, r2
 80001de:	0883      	lsrs	r3, r0, #2
 80001e0:	428b      	cmp	r3, r1
 80001e2:	d301      	bcc.n	80001e8 <__udivsi3+0xe4>
 80001e4:	008b      	lsls	r3, r1, #2
 80001e6:	1ac0      	subs	r0, r0, r3
 80001e8:	4152      	adcs	r2, r2
 80001ea:	0843      	lsrs	r3, r0, #1
 80001ec:	428b      	cmp	r3, r1
 80001ee:	d301      	bcc.n	80001f4 <__udivsi3+0xf0>
 80001f0:	004b      	lsls	r3, r1, #1
 80001f2:	1ac0      	subs	r0, r0, r3
 80001f4:	4152      	adcs	r2, r2
 80001f6:	1a41      	subs	r1, r0, r1
 80001f8:	d200      	bcs.n	80001fc <__udivsi3+0xf8>
 80001fa:	4601      	mov	r1, r0
 80001fc:	4152      	adcs	r2, r2
 80001fe:	4610      	mov	r0, r2
 8000200:	4770      	bx	lr
 8000202:	e7ff      	b.n	8000204 <__udivsi3+0x100>
 8000204:	b501      	push	{r0, lr}
 8000206:	2000      	movs	r0, #0
 8000208:	f000 f8f0 	bl	80003ec <__aeabi_idiv0>
 800020c:	bd02      	pop	{r1, pc}
 800020e:	46c0      	nop			; (mov r8, r8)

08000210 <__aeabi_uidivmod>:
 8000210:	2900      	cmp	r1, #0
 8000212:	d0f7      	beq.n	8000204 <__udivsi3+0x100>
 8000214:	e776      	b.n	8000104 <__udivsi3>
 8000216:	4770      	bx	lr

08000218 <__divsi3>:
 8000218:	4603      	mov	r3, r0
 800021a:	430b      	orrs	r3, r1
 800021c:	d47f      	bmi.n	800031e <__divsi3+0x106>
 800021e:	2200      	movs	r2, #0
 8000220:	0843      	lsrs	r3, r0, #1
 8000222:	428b      	cmp	r3, r1
 8000224:	d374      	bcc.n	8000310 <__divsi3+0xf8>
 8000226:	0903      	lsrs	r3, r0, #4
 8000228:	428b      	cmp	r3, r1
 800022a:	d35f      	bcc.n	80002ec <__divsi3+0xd4>
 800022c:	0a03      	lsrs	r3, r0, #8
 800022e:	428b      	cmp	r3, r1
 8000230:	d344      	bcc.n	80002bc <__divsi3+0xa4>
 8000232:	0b03      	lsrs	r3, r0, #12
 8000234:	428b      	cmp	r3, r1
 8000236:	d328      	bcc.n	800028a <__divsi3+0x72>
 8000238:	0c03      	lsrs	r3, r0, #16
 800023a:	428b      	cmp	r3, r1
 800023c:	d30d      	bcc.n	800025a <__divsi3+0x42>
 800023e:	22ff      	movs	r2, #255	; 0xff
 8000240:	0209      	lsls	r1, r1, #8
 8000242:	ba12      	rev	r2, r2
 8000244:	0c03      	lsrs	r3, r0, #16
 8000246:	428b      	cmp	r3, r1
 8000248:	d302      	bcc.n	8000250 <__divsi3+0x38>
 800024a:	1212      	asrs	r2, r2, #8
 800024c:	0209      	lsls	r1, r1, #8
 800024e:	d065      	beq.n	800031c <__divsi3+0x104>
 8000250:	0b03      	lsrs	r3, r0, #12
 8000252:	428b      	cmp	r3, r1
 8000254:	d319      	bcc.n	800028a <__divsi3+0x72>
 8000256:	e000      	b.n	800025a <__divsi3+0x42>
 8000258:	0a09      	lsrs	r1, r1, #8
 800025a:	0bc3      	lsrs	r3, r0, #15
 800025c:	428b      	cmp	r3, r1
 800025e:	d301      	bcc.n	8000264 <__divsi3+0x4c>
 8000260:	03cb      	lsls	r3, r1, #15
 8000262:	1ac0      	subs	r0, r0, r3
 8000264:	4152      	adcs	r2, r2
 8000266:	0b83      	lsrs	r3, r0, #14
 8000268:	428b      	cmp	r3, r1
 800026a:	d301      	bcc.n	8000270 <__divsi3+0x58>
 800026c:	038b      	lsls	r3, r1, #14
 800026e:	1ac0      	subs	r0, r0, r3
 8000270:	4152      	adcs	r2, r2
 8000272:	0b43      	lsrs	r3, r0, #13
 8000274:	428b      	cmp	r3, r1
 8000276:	d301      	bcc.n	800027c <__divsi3+0x64>
 8000278:	034b      	lsls	r3, r1, #13
 800027a:	1ac0      	subs	r0, r0, r3
 800027c:	4152      	adcs	r2, r2
 800027e:	0b03      	lsrs	r3, r0, #12
 8000280:	428b      	cmp	r3, r1
 8000282:	d301      	bcc.n	8000288 <__divsi3+0x70>
 8000284:	030b      	lsls	r3, r1, #12
 8000286:	1ac0      	subs	r0, r0, r3
 8000288:	4152      	adcs	r2, r2
 800028a:	0ac3      	lsrs	r3, r0, #11
 800028c:	428b      	cmp	r3, r1
 800028e:	d301      	bcc.n	8000294 <__divsi3+0x7c>
 8000290:	02cb      	lsls	r3, r1, #11
 8000292:	1ac0      	subs	r0, r0, r3
 8000294:	4152      	adcs	r2, r2
 8000296:	0a83      	lsrs	r3, r0, #10
 8000298:	428b      	cmp	r3, r1
 800029a:	d301      	bcc.n	80002a0 <__divsi3+0x88>
 800029c:	028b      	lsls	r3, r1, #10
 800029e:	1ac0      	subs	r0, r0, r3
 80002a0:	4152      	adcs	r2, r2
 80002a2:	0a43      	lsrs	r3, r0, #9
 80002a4:	428b      	cmp	r3, r1
 80002a6:	d301      	bcc.n	80002ac <__divsi3+0x94>
 80002a8:	024b      	lsls	r3, r1, #9
 80002aa:	1ac0      	subs	r0, r0, r3
 80002ac:	4152      	adcs	r2, r2
 80002ae:	0a03      	lsrs	r3, r0, #8
 80002b0:	428b      	cmp	r3, r1
 80002b2:	d301      	bcc.n	80002b8 <__divsi3+0xa0>
 80002b4:	020b      	lsls	r3, r1, #8
 80002b6:	1ac0      	subs	r0, r0, r3
 80002b8:	4152      	adcs	r2, r2
 80002ba:	d2cd      	bcs.n	8000258 <__divsi3+0x40>
 80002bc:	09c3      	lsrs	r3, r0, #7
 80002be:	428b      	cmp	r3, r1
 80002c0:	d301      	bcc.n	80002c6 <__divsi3+0xae>
 80002c2:	01cb      	lsls	r3, r1, #7
 80002c4:	1ac0      	subs	r0, r0, r3
 80002c6:	4152      	adcs	r2, r2
 80002c8:	0983      	lsrs	r3, r0, #6
 80002ca:	428b      	cmp	r3, r1
 80002cc:	d301      	bcc.n	80002d2 <__divsi3+0xba>
 80002ce:	018b      	lsls	r3, r1, #6
 80002d0:	1ac0      	subs	r0, r0, r3
 80002d2:	4152      	adcs	r2, r2
 80002d4:	0943      	lsrs	r3, r0, #5
 80002d6:	428b      	cmp	r3, r1
 80002d8:	d301      	bcc.n	80002de <__divsi3+0xc6>
 80002da:	014b      	lsls	r3, r1, #5
 80002dc:	1ac0      	subs	r0, r0, r3
 80002de:	4152      	adcs	r2, r2
 80002e0:	0903      	lsrs	r3, r0, #4
 80002e2:	428b      	cmp	r3, r1
 80002e4:	d301      	bcc.n	80002ea <__divsi3+0xd2>
 80002e6:	010b      	lsls	r3, r1, #4
 80002e8:	1ac0      	subs	r0, r0, r3
 80002ea:	4152      	adcs	r2, r2
 80002ec:	08c3      	lsrs	r3, r0, #3
 80002ee:	428b      	cmp	r3, r1
 80002f0:	d301      	bcc.n	80002f6 <__divsi3+0xde>
 80002f2:	00cb      	lsls	r3, r1, #3
 80002f4:	1ac0      	subs	r0, r0, r3
 80002f6:	4152      	adcs	r2, r2
 80002f8:	0883      	lsrs	r3, r0, #2
 80002fa:	428b      	cmp	r3, r1
 80002fc:	d301      	bcc.n	8000302 <__divsi3+0xea>
 80002fe:	008b      	lsls	r3, r1, #2
 8000300:	1ac0      	subs	r0, r0, r3
 8000302:	4152      	adcs	r2, r2
 8000304:	0843      	lsrs	r3, r0, #1
 8000306:	428b      	cmp	r3, r1
 8000308:	d301      	bcc.n	800030e <__divsi3+0xf6>
 800030a:	004b      	lsls	r3, r1, #1
 800030c:	1ac0      	subs	r0, r0, r3
 800030e:	4152      	adcs	r2, r2
 8000310:	1a41      	subs	r1, r0, r1
 8000312:	d200      	bcs.n	8000316 <__divsi3+0xfe>
 8000314:	4601      	mov	r1, r0
 8000316:	4152      	adcs	r2, r2
 8000318:	4610      	mov	r0, r2
 800031a:	4770      	bx	lr
 800031c:	e05d      	b.n	80003da <__divsi3+0x1c2>
 800031e:	0fca      	lsrs	r2, r1, #31
 8000320:	d000      	beq.n	8000324 <__divsi3+0x10c>
 8000322:	4249      	negs	r1, r1
 8000324:	1003      	asrs	r3, r0, #32
 8000326:	d300      	bcc.n	800032a <__divsi3+0x112>
 8000328:	4240      	negs	r0, r0
 800032a:	4053      	eors	r3, r2
 800032c:	2200      	movs	r2, #0
 800032e:	469c      	mov	ip, r3
 8000330:	0903      	lsrs	r3, r0, #4
 8000332:	428b      	cmp	r3, r1
 8000334:	d32d      	bcc.n	8000392 <__divsi3+0x17a>
 8000336:	0a03      	lsrs	r3, r0, #8
 8000338:	428b      	cmp	r3, r1
 800033a:	d312      	bcc.n	8000362 <__divsi3+0x14a>
 800033c:	22fc      	movs	r2, #252	; 0xfc
 800033e:	0189      	lsls	r1, r1, #6
 8000340:	ba12      	rev	r2, r2
 8000342:	0a03      	lsrs	r3, r0, #8
 8000344:	428b      	cmp	r3, r1
 8000346:	d30c      	bcc.n	8000362 <__divsi3+0x14a>
 8000348:	0189      	lsls	r1, r1, #6
 800034a:	1192      	asrs	r2, r2, #6
 800034c:	428b      	cmp	r3, r1
 800034e:	d308      	bcc.n	8000362 <__divsi3+0x14a>
 8000350:	0189      	lsls	r1, r1, #6
 8000352:	1192      	asrs	r2, r2, #6
 8000354:	428b      	cmp	r3, r1
 8000356:	d304      	bcc.n	8000362 <__divsi3+0x14a>
 8000358:	0189      	lsls	r1, r1, #6
 800035a:	d03a      	beq.n	80003d2 <__divsi3+0x1ba>
 800035c:	1192      	asrs	r2, r2, #6
 800035e:	e000      	b.n	8000362 <__divsi3+0x14a>
 8000360:	0989      	lsrs	r1, r1, #6
 8000362:	09c3      	lsrs	r3, r0, #7
 8000364:	428b      	cmp	r3, r1
 8000366:	d301      	bcc.n	800036c <__divsi3+0x154>
 8000368:	01cb      	lsls	r3, r1, #7
 800036a:	1ac0      	subs	r0, r0, r3
 800036c:	4152      	adcs	r2, r2
 800036e:	0983      	lsrs	r3, r0, #6
 8000370:	428b      	cmp	r3, r1
 8000372:	d301      	bcc.n	8000378 <__divsi3+0x160>
 8000374:	018b      	lsls	r3, r1, #6
 8000376:	1ac0      	subs	r0, r0, r3
 8000378:	4152      	adcs	r2, r2
 800037a:	0943      	lsrs	r3, r0, #5
 800037c:	428b      	cmp	r3, r1
 800037e:	d301      	bcc.n	8000384 <__divsi3+0x16c>
 8000380:	014b      	lsls	r3, r1, #5
 8000382:	1ac0      	subs	r0, r0, r3
 8000384:	4152      	adcs	r2, r2
 8000386:	0903      	lsrs	r3, r0, #4
 8000388:	428b      	cmp	r3, r1
 800038a:	d301      	bcc.n	8000390 <__divsi3+0x178>
 800038c:	010b      	lsls	r3, r1, #4
 800038e:	1ac0      	subs	r0, r0, r3
 8000390:	4152      	adcs	r2, r2
 8000392:	08c3      	lsrs	r3, r0, #3
 8000394:	428b      	cmp	r3, r1
 8000396:	d301      	bcc.n	800039c <__divsi3+0x184>
 8000398:	00cb      	lsls	r3, r1, #3
 800039a:	1ac0      	subs	r0, r0, r3
 800039c:	4152      	adcs	r2, r2
 800039e:	0883      	lsrs	r3, r0, #2
 80003a0:	428b      	cmp	r3, r1
 80003a2:	d301      	bcc.n	80003a8 <__divsi3+0x190>
 80003a4:	008b      	lsls	r3, r1, #2
 80003a6:	1ac0      	subs	r0, r0, r3
 80003a8:	4152      	adcs	r2, r2
 80003aa:	d2d9      	bcs.n	8000360 <__divsi3+0x148>
 80003ac:	0843      	lsrs	r3, r0, #1
 80003ae:	428b      	cmp	r3, r1
 80003b0:	d301      	bcc.n	80003b6 <__divsi3+0x19e>
 80003b2:	004b      	lsls	r3, r1, #1
 80003b4:	1ac0      	subs	r0, r0, r3
 80003b6:	4152      	adcs	r2, r2
 80003b8:	1a41      	subs	r1, r0, r1
 80003ba:	d200      	bcs.n	80003be <__divsi3+0x1a6>
 80003bc:	4601      	mov	r1, r0
 80003be:	4663      	mov	r3, ip
 80003c0:	4152      	adcs	r2, r2
 80003c2:	105b      	asrs	r3, r3, #1
 80003c4:	4610      	mov	r0, r2
 80003c6:	d301      	bcc.n	80003cc <__divsi3+0x1b4>
 80003c8:	4240      	negs	r0, r0
 80003ca:	2b00      	cmp	r3, #0
 80003cc:	d500      	bpl.n	80003d0 <__divsi3+0x1b8>
 80003ce:	4249      	negs	r1, r1
 80003d0:	4770      	bx	lr
 80003d2:	4663      	mov	r3, ip
 80003d4:	105b      	asrs	r3, r3, #1
 80003d6:	d300      	bcc.n	80003da <__divsi3+0x1c2>
 80003d8:	4240      	negs	r0, r0
 80003da:	b501      	push	{r0, lr}
 80003dc:	2000      	movs	r0, #0
 80003de:	f000 f805 	bl	80003ec <__aeabi_idiv0>
 80003e2:	bd02      	pop	{r1, pc}

080003e4 <__aeabi_idivmod>:
 80003e4:	2900      	cmp	r1, #0
 80003e6:	d0f8      	beq.n	80003da <__divsi3+0x1c2>
 80003e8:	e716      	b.n	8000218 <__divsi3>
 80003ea:	4770      	bx	lr

080003ec <__aeabi_idiv0>:
 80003ec:	4770      	bx	lr
 80003ee:	46c0      	nop			; (mov r8, r8)

080003f0 <__aeabi_d2uiz>:
 80003f0:	b570      	push	{r4, r5, r6, lr}
 80003f2:	2200      	movs	r2, #0
 80003f4:	4b0c      	ldr	r3, [pc, #48]	; (8000428 <__aeabi_d2uiz+0x38>)
 80003f6:	0004      	movs	r4, r0
 80003f8:	000d      	movs	r5, r1
 80003fa:	f000 feeb 	bl	80011d4 <__aeabi_dcmpge>
 80003fe:	2800      	cmp	r0, #0
 8000400:	d104      	bne.n	800040c <__aeabi_d2uiz+0x1c>
 8000402:	0020      	movs	r0, r4
 8000404:	0029      	movs	r1, r5
 8000406:	f000 fe55 	bl	80010b4 <__aeabi_d2iz>
 800040a:	bd70      	pop	{r4, r5, r6, pc}
 800040c:	4b06      	ldr	r3, [pc, #24]	; (8000428 <__aeabi_d2uiz+0x38>)
 800040e:	2200      	movs	r2, #0
 8000410:	0020      	movs	r0, r4
 8000412:	0029      	movs	r1, r5
 8000414:	f000 facc 	bl	80009b0 <__aeabi_dsub>
 8000418:	f000 fe4c 	bl	80010b4 <__aeabi_d2iz>
 800041c:	2380      	movs	r3, #128	; 0x80
 800041e:	061b      	lsls	r3, r3, #24
 8000420:	469c      	mov	ip, r3
 8000422:	4460      	add	r0, ip
 8000424:	e7f1      	b.n	800040a <__aeabi_d2uiz+0x1a>
 8000426:	46c0      	nop			; (mov r8, r8)
 8000428:	41e00000 	.word	0x41e00000

0800042c <__aeabi_dmul>:
 800042c:	b5f0      	push	{r4, r5, r6, r7, lr}
 800042e:	4645      	mov	r5, r8
 8000430:	46de      	mov	lr, fp
 8000432:	4657      	mov	r7, sl
 8000434:	464e      	mov	r6, r9
 8000436:	b5e0      	push	{r5, r6, r7, lr}
 8000438:	001f      	movs	r7, r3
 800043a:	030b      	lsls	r3, r1, #12
 800043c:	0b1b      	lsrs	r3, r3, #12
 800043e:	469b      	mov	fp, r3
 8000440:	004d      	lsls	r5, r1, #1
 8000442:	0fcb      	lsrs	r3, r1, #31
 8000444:	0004      	movs	r4, r0
 8000446:	4691      	mov	r9, r2
 8000448:	4698      	mov	r8, r3
 800044a:	b087      	sub	sp, #28
 800044c:	0d6d      	lsrs	r5, r5, #21
 800044e:	d100      	bne.n	8000452 <__aeabi_dmul+0x26>
 8000450:	e1cd      	b.n	80007ee <__aeabi_dmul+0x3c2>
 8000452:	4bce      	ldr	r3, [pc, #824]	; (800078c <__aeabi_dmul+0x360>)
 8000454:	429d      	cmp	r5, r3
 8000456:	d100      	bne.n	800045a <__aeabi_dmul+0x2e>
 8000458:	e1e9      	b.n	800082e <__aeabi_dmul+0x402>
 800045a:	465a      	mov	r2, fp
 800045c:	0f43      	lsrs	r3, r0, #29
 800045e:	00d2      	lsls	r2, r2, #3
 8000460:	4313      	orrs	r3, r2
 8000462:	2280      	movs	r2, #128	; 0x80
 8000464:	0412      	lsls	r2, r2, #16
 8000466:	431a      	orrs	r2, r3
 8000468:	00c3      	lsls	r3, r0, #3
 800046a:	469a      	mov	sl, r3
 800046c:	4bc8      	ldr	r3, [pc, #800]	; (8000790 <__aeabi_dmul+0x364>)
 800046e:	4693      	mov	fp, r2
 8000470:	469c      	mov	ip, r3
 8000472:	2300      	movs	r3, #0
 8000474:	2600      	movs	r6, #0
 8000476:	4465      	add	r5, ip
 8000478:	9300      	str	r3, [sp, #0]
 800047a:	033c      	lsls	r4, r7, #12
 800047c:	007b      	lsls	r3, r7, #1
 800047e:	4648      	mov	r0, r9
 8000480:	0b24      	lsrs	r4, r4, #12
 8000482:	0d5b      	lsrs	r3, r3, #21
 8000484:	0fff      	lsrs	r7, r7, #31
 8000486:	2b00      	cmp	r3, #0
 8000488:	d100      	bne.n	800048c <__aeabi_dmul+0x60>
 800048a:	e189      	b.n	80007a0 <__aeabi_dmul+0x374>
 800048c:	4abf      	ldr	r2, [pc, #764]	; (800078c <__aeabi_dmul+0x360>)
 800048e:	4293      	cmp	r3, r2
 8000490:	d019      	beq.n	80004c6 <__aeabi_dmul+0x9a>
 8000492:	0f42      	lsrs	r2, r0, #29
 8000494:	00e4      	lsls	r4, r4, #3
 8000496:	4322      	orrs	r2, r4
 8000498:	2480      	movs	r4, #128	; 0x80
 800049a:	0424      	lsls	r4, r4, #16
 800049c:	4314      	orrs	r4, r2
 800049e:	4abc      	ldr	r2, [pc, #752]	; (8000790 <__aeabi_dmul+0x364>)
 80004a0:	2100      	movs	r1, #0
 80004a2:	4694      	mov	ip, r2
 80004a4:	4642      	mov	r2, r8
 80004a6:	4463      	add	r3, ip
 80004a8:	195b      	adds	r3, r3, r5
 80004aa:	9301      	str	r3, [sp, #4]
 80004ac:	9b01      	ldr	r3, [sp, #4]
 80004ae:	407a      	eors	r2, r7
 80004b0:	3301      	adds	r3, #1
 80004b2:	00c0      	lsls	r0, r0, #3
 80004b4:	b2d2      	uxtb	r2, r2
 80004b6:	9302      	str	r3, [sp, #8]
 80004b8:	2e0a      	cmp	r6, #10
 80004ba:	dd1c      	ble.n	80004f6 <__aeabi_dmul+0xca>
 80004bc:	003a      	movs	r2, r7
 80004be:	2e0b      	cmp	r6, #11
 80004c0:	d05e      	beq.n	8000580 <__aeabi_dmul+0x154>
 80004c2:	4647      	mov	r7, r8
 80004c4:	e056      	b.n	8000574 <__aeabi_dmul+0x148>
 80004c6:	4649      	mov	r1, r9
 80004c8:	4bb0      	ldr	r3, [pc, #704]	; (800078c <__aeabi_dmul+0x360>)
 80004ca:	4321      	orrs	r1, r4
 80004cc:	18eb      	adds	r3, r5, r3
 80004ce:	9301      	str	r3, [sp, #4]
 80004d0:	2900      	cmp	r1, #0
 80004d2:	d12a      	bne.n	800052a <__aeabi_dmul+0xfe>
 80004d4:	2080      	movs	r0, #128	; 0x80
 80004d6:	2202      	movs	r2, #2
 80004d8:	0100      	lsls	r0, r0, #4
 80004da:	002b      	movs	r3, r5
 80004dc:	4684      	mov	ip, r0
 80004de:	4316      	orrs	r6, r2
 80004e0:	4642      	mov	r2, r8
 80004e2:	4463      	add	r3, ip
 80004e4:	407a      	eors	r2, r7
 80004e6:	b2d2      	uxtb	r2, r2
 80004e8:	9302      	str	r3, [sp, #8]
 80004ea:	2e0a      	cmp	r6, #10
 80004ec:	dd00      	ble.n	80004f0 <__aeabi_dmul+0xc4>
 80004ee:	e231      	b.n	8000954 <__aeabi_dmul+0x528>
 80004f0:	2000      	movs	r0, #0
 80004f2:	2400      	movs	r4, #0
 80004f4:	2102      	movs	r1, #2
 80004f6:	2e02      	cmp	r6, #2
 80004f8:	dc26      	bgt.n	8000548 <__aeabi_dmul+0x11c>
 80004fa:	3e01      	subs	r6, #1
 80004fc:	2e01      	cmp	r6, #1
 80004fe:	d852      	bhi.n	80005a6 <__aeabi_dmul+0x17a>
 8000500:	2902      	cmp	r1, #2
 8000502:	d04c      	beq.n	800059e <__aeabi_dmul+0x172>
 8000504:	2901      	cmp	r1, #1
 8000506:	d000      	beq.n	800050a <__aeabi_dmul+0xde>
 8000508:	e118      	b.n	800073c <__aeabi_dmul+0x310>
 800050a:	2300      	movs	r3, #0
 800050c:	2400      	movs	r4, #0
 800050e:	2500      	movs	r5, #0
 8000510:	051b      	lsls	r3, r3, #20
 8000512:	4323      	orrs	r3, r4
 8000514:	07d2      	lsls	r2, r2, #31
 8000516:	4313      	orrs	r3, r2
 8000518:	0028      	movs	r0, r5
 800051a:	0019      	movs	r1, r3
 800051c:	b007      	add	sp, #28
 800051e:	bcf0      	pop	{r4, r5, r6, r7}
 8000520:	46bb      	mov	fp, r7
 8000522:	46b2      	mov	sl, r6
 8000524:	46a9      	mov	r9, r5
 8000526:	46a0      	mov	r8, r4
 8000528:	bdf0      	pop	{r4, r5, r6, r7, pc}
 800052a:	2180      	movs	r1, #128	; 0x80
 800052c:	2203      	movs	r2, #3
 800052e:	0109      	lsls	r1, r1, #4
 8000530:	002b      	movs	r3, r5
 8000532:	468c      	mov	ip, r1
 8000534:	4316      	orrs	r6, r2
 8000536:	4642      	mov	r2, r8
 8000538:	4463      	add	r3, ip
 800053a:	407a      	eors	r2, r7
 800053c:	b2d2      	uxtb	r2, r2
 800053e:	9302      	str	r3, [sp, #8]
 8000540:	2e0a      	cmp	r6, #10
 8000542:	dd00      	ble.n	8000546 <__aeabi_dmul+0x11a>
 8000544:	e228      	b.n	8000998 <__aeabi_dmul+0x56c>
 8000546:	2103      	movs	r1, #3
 8000548:	2501      	movs	r5, #1
 800054a:	40b5      	lsls	r5, r6
 800054c:	46ac      	mov	ip, r5
 800054e:	26a6      	movs	r6, #166	; 0xa6
 8000550:	4663      	mov	r3, ip
 8000552:	00f6      	lsls	r6, r6, #3
 8000554:	4035      	ands	r5, r6
 8000556:	4233      	tst	r3, r6
 8000558:	d10b      	bne.n	8000572 <__aeabi_dmul+0x146>
 800055a:	2690      	movs	r6, #144	; 0x90
 800055c:	00b6      	lsls	r6, r6, #2
 800055e:	4233      	tst	r3, r6
 8000560:	d118      	bne.n	8000594 <__aeabi_dmul+0x168>
 8000562:	3eb9      	subs	r6, #185	; 0xb9
 8000564:	3eff      	subs	r6, #255	; 0xff
 8000566:	421e      	tst	r6, r3
 8000568:	d01d      	beq.n	80005a6 <__aeabi_dmul+0x17a>
 800056a:	46a3      	mov	fp, r4
 800056c:	4682      	mov	sl, r0
 800056e:	9100      	str	r1, [sp, #0]
 8000570:	e000      	b.n	8000574 <__aeabi_dmul+0x148>
 8000572:	0017      	movs	r7, r2
 8000574:	9900      	ldr	r1, [sp, #0]
 8000576:	003a      	movs	r2, r7
 8000578:	2902      	cmp	r1, #2
 800057a:	d010      	beq.n	800059e <__aeabi_dmul+0x172>
 800057c:	465c      	mov	r4, fp
 800057e:	4650      	mov	r0, sl
 8000580:	2903      	cmp	r1, #3
 8000582:	d1bf      	bne.n	8000504 <__aeabi_dmul+0xd8>
 8000584:	2380      	movs	r3, #128	; 0x80
 8000586:	031b      	lsls	r3, r3, #12
 8000588:	431c      	orrs	r4, r3
 800058a:	0324      	lsls	r4, r4, #12
 800058c:	0005      	movs	r5, r0
 800058e:	4b7f      	ldr	r3, [pc, #508]	; (800078c <__aeabi_dmul+0x360>)
 8000590:	0b24      	lsrs	r4, r4, #12
 8000592:	e7bd      	b.n	8000510 <__aeabi_dmul+0xe4>
 8000594:	2480      	movs	r4, #128	; 0x80
 8000596:	2200      	movs	r2, #0
 8000598:	4b7c      	ldr	r3, [pc, #496]	; (800078c <__aeabi_dmul+0x360>)
 800059a:	0324      	lsls	r4, r4, #12
 800059c:	e7b8      	b.n	8000510 <__aeabi_dmul+0xe4>
 800059e:	2400      	movs	r4, #0
 80005a0:	2500      	movs	r5, #0
 80005a2:	4b7a      	ldr	r3, [pc, #488]	; (800078c <__aeabi_dmul+0x360>)
 80005a4:	e7b4      	b.n	8000510 <__aeabi_dmul+0xe4>
 80005a6:	4653      	mov	r3, sl
 80005a8:	041e      	lsls	r6, r3, #16
 80005aa:	0c36      	lsrs	r6, r6, #16
 80005ac:	0c1f      	lsrs	r7, r3, #16
 80005ae:	0033      	movs	r3, r6
 80005b0:	0c01      	lsrs	r1, r0, #16
 80005b2:	0400      	lsls	r0, r0, #16
 80005b4:	0c00      	lsrs	r0, r0, #16
 80005b6:	4343      	muls	r3, r0
 80005b8:	4698      	mov	r8, r3
 80005ba:	0003      	movs	r3, r0
 80005bc:	437b      	muls	r3, r7
 80005be:	4699      	mov	r9, r3
 80005c0:	0033      	movs	r3, r6
 80005c2:	434b      	muls	r3, r1
 80005c4:	469c      	mov	ip, r3
 80005c6:	4643      	mov	r3, r8
 80005c8:	000d      	movs	r5, r1
 80005ca:	0c1b      	lsrs	r3, r3, #16
 80005cc:	469a      	mov	sl, r3
 80005ce:	437d      	muls	r5, r7
 80005d0:	44cc      	add	ip, r9
 80005d2:	44d4      	add	ip, sl
 80005d4:	9500      	str	r5, [sp, #0]
 80005d6:	45e1      	cmp	r9, ip
 80005d8:	d904      	bls.n	80005e4 <__aeabi_dmul+0x1b8>
 80005da:	2380      	movs	r3, #128	; 0x80
 80005dc:	025b      	lsls	r3, r3, #9
 80005de:	4699      	mov	r9, r3
 80005e0:	444d      	add	r5, r9
 80005e2:	9500      	str	r5, [sp, #0]
 80005e4:	4663      	mov	r3, ip
 80005e6:	0c1b      	lsrs	r3, r3, #16
 80005e8:	001d      	movs	r5, r3
 80005ea:	4663      	mov	r3, ip
 80005ec:	041b      	lsls	r3, r3, #16
 80005ee:	469c      	mov	ip, r3
 80005f0:	4643      	mov	r3, r8
 80005f2:	041b      	lsls	r3, r3, #16
 80005f4:	0c1b      	lsrs	r3, r3, #16
 80005f6:	4698      	mov	r8, r3
 80005f8:	4663      	mov	r3, ip
 80005fa:	4443      	add	r3, r8
 80005fc:	9303      	str	r3, [sp, #12]
 80005fe:	0c23      	lsrs	r3, r4, #16
 8000600:	4698      	mov	r8, r3
 8000602:	0033      	movs	r3, r6
 8000604:	0424      	lsls	r4, r4, #16
 8000606:	0c24      	lsrs	r4, r4, #16
 8000608:	4363      	muls	r3, r4
 800060a:	469c      	mov	ip, r3
 800060c:	0023      	movs	r3, r4
 800060e:	437b      	muls	r3, r7
 8000610:	4699      	mov	r9, r3
 8000612:	4643      	mov	r3, r8
 8000614:	435e      	muls	r6, r3
 8000616:	435f      	muls	r7, r3
 8000618:	444e      	add	r6, r9
 800061a:	4663      	mov	r3, ip
 800061c:	46b2      	mov	sl, r6
 800061e:	0c1e      	lsrs	r6, r3, #16
 8000620:	4456      	add	r6, sl
 8000622:	45b1      	cmp	r9, r6
 8000624:	d903      	bls.n	800062e <__aeabi_dmul+0x202>
 8000626:	2380      	movs	r3, #128	; 0x80
 8000628:	025b      	lsls	r3, r3, #9
 800062a:	4699      	mov	r9, r3
 800062c:	444f      	add	r7, r9
 800062e:	0c33      	lsrs	r3, r6, #16
 8000630:	4699      	mov	r9, r3
 8000632:	003b      	movs	r3, r7
 8000634:	444b      	add	r3, r9
 8000636:	9305      	str	r3, [sp, #20]
 8000638:	4663      	mov	r3, ip
 800063a:	46ac      	mov	ip, r5
 800063c:	041f      	lsls	r7, r3, #16
 800063e:	0c3f      	lsrs	r7, r7, #16
 8000640:	0436      	lsls	r6, r6, #16
 8000642:	19f6      	adds	r6, r6, r7
 8000644:	44b4      	add	ip, r6
 8000646:	4663      	mov	r3, ip
 8000648:	9304      	str	r3, [sp, #16]
 800064a:	465b      	mov	r3, fp
 800064c:	0c1b      	lsrs	r3, r3, #16
 800064e:	469c      	mov	ip, r3
 8000650:	465b      	mov	r3, fp
 8000652:	041f      	lsls	r7, r3, #16
 8000654:	0c3f      	lsrs	r7, r7, #16
 8000656:	003b      	movs	r3, r7
 8000658:	4343      	muls	r3, r0
 800065a:	4699      	mov	r9, r3
 800065c:	4663      	mov	r3, ip
 800065e:	4343      	muls	r3, r0
 8000660:	469a      	mov	sl, r3
 8000662:	464b      	mov	r3, r9
 8000664:	4660      	mov	r0, ip
 8000666:	0c1b      	lsrs	r3, r3, #16
 8000668:	469b      	mov	fp, r3
 800066a:	4348      	muls	r0, r1
 800066c:	4379      	muls	r1, r7
 800066e:	4451      	add	r1, sl
 8000670:	4459      	add	r1, fp
 8000672:	458a      	cmp	sl, r1
 8000674:	d903      	bls.n	800067e <__aeabi_dmul+0x252>
 8000676:	2380      	movs	r3, #128	; 0x80
 8000678:	025b      	lsls	r3, r3, #9
 800067a:	469a      	mov	sl, r3
 800067c:	4450      	add	r0, sl
 800067e:	0c0b      	lsrs	r3, r1, #16
 8000680:	469a      	mov	sl, r3
 8000682:	464b      	mov	r3, r9
 8000684:	041b      	lsls	r3, r3, #16
 8000686:	0c1b      	lsrs	r3, r3, #16
 8000688:	4699      	mov	r9, r3
 800068a:	003b      	movs	r3, r7
 800068c:	4363      	muls	r3, r4
 800068e:	0409      	lsls	r1, r1, #16
 8000690:	4645      	mov	r5, r8
 8000692:	4449      	add	r1, r9
 8000694:	4699      	mov	r9, r3
 8000696:	4663      	mov	r3, ip
 8000698:	435c      	muls	r4, r3
 800069a:	436b      	muls	r3, r5
 800069c:	469c      	mov	ip, r3
 800069e:	464b      	mov	r3, r9
 80006a0:	0c1b      	lsrs	r3, r3, #16
 80006a2:	4698      	mov	r8, r3
 80006a4:	436f      	muls	r7, r5
 80006a6:	193f      	adds	r7, r7, r4
 80006a8:	4447      	add	r7, r8
 80006aa:	4450      	add	r0, sl
 80006ac:	42bc      	cmp	r4, r7
 80006ae:	d903      	bls.n	80006b8 <__aeabi_dmul+0x28c>
 80006b0:	2380      	movs	r3, #128	; 0x80
 80006b2:	025b      	lsls	r3, r3, #9
 80006b4:	4698      	mov	r8, r3
 80006b6:	44c4      	add	ip, r8
 80006b8:	9b04      	ldr	r3, [sp, #16]
 80006ba:	9d00      	ldr	r5, [sp, #0]
 80006bc:	4698      	mov	r8, r3
 80006be:	4445      	add	r5, r8
 80006c0:	42b5      	cmp	r5, r6
 80006c2:	41b6      	sbcs	r6, r6
 80006c4:	4273      	negs	r3, r6
 80006c6:	4698      	mov	r8, r3
 80006c8:	464b      	mov	r3, r9
 80006ca:	041e      	lsls	r6, r3, #16
 80006cc:	9b05      	ldr	r3, [sp, #20]
 80006ce:	043c      	lsls	r4, r7, #16
 80006d0:	4699      	mov	r9, r3
 80006d2:	0c36      	lsrs	r6, r6, #16
 80006d4:	19a4      	adds	r4, r4, r6
 80006d6:	444c      	add	r4, r9
 80006d8:	46a1      	mov	r9, r4
 80006da:	4683      	mov	fp, r0
 80006dc:	186e      	adds	r6, r5, r1
 80006de:	44c1      	add	r9, r8
 80006e0:	428e      	cmp	r6, r1
 80006e2:	4189      	sbcs	r1, r1
 80006e4:	44cb      	add	fp, r9
 80006e6:	465d      	mov	r5, fp
 80006e8:	4249      	negs	r1, r1
 80006ea:	186d      	adds	r5, r5, r1
 80006ec:	429c      	cmp	r4, r3
 80006ee:	41a4      	sbcs	r4, r4
 80006f0:	45c1      	cmp	r9, r8
 80006f2:	419b      	sbcs	r3, r3
 80006f4:	4583      	cmp	fp, r0
 80006f6:	4180      	sbcs	r0, r0
 80006f8:	428d      	cmp	r5, r1
 80006fa:	4189      	sbcs	r1, r1
 80006fc:	425b      	negs	r3, r3
 80006fe:	4264      	negs	r4, r4
 8000700:	431c      	orrs	r4, r3
 8000702:	4240      	negs	r0, r0
 8000704:	9b03      	ldr	r3, [sp, #12]
 8000706:	4249      	negs	r1, r1
 8000708:	4301      	orrs	r1, r0
 800070a:	0270      	lsls	r0, r6, #9
 800070c:	0c3f      	lsrs	r7, r7, #16
 800070e:	4318      	orrs	r0, r3
 8000710:	19e4      	adds	r4, r4, r7
 8000712:	1e47      	subs	r7, r0, #1
 8000714:	41b8      	sbcs	r0, r7
 8000716:	1864      	adds	r4, r4, r1
 8000718:	4464      	add	r4, ip
 800071a:	0df6      	lsrs	r6, r6, #23
 800071c:	0261      	lsls	r1, r4, #9
 800071e:	4330      	orrs	r0, r6
 8000720:	0dec      	lsrs	r4, r5, #23
 8000722:	026e      	lsls	r6, r5, #9
 8000724:	430c      	orrs	r4, r1
 8000726:	4330      	orrs	r0, r6
 8000728:	01c9      	lsls	r1, r1, #7
 800072a:	d400      	bmi.n	800072e <__aeabi_dmul+0x302>
 800072c:	e0f1      	b.n	8000912 <__aeabi_dmul+0x4e6>
 800072e:	2101      	movs	r1, #1
 8000730:	0843      	lsrs	r3, r0, #1
 8000732:	4001      	ands	r1, r0
 8000734:	430b      	orrs	r3, r1
 8000736:	07e0      	lsls	r0, r4, #31
 8000738:	4318      	orrs	r0, r3
 800073a:	0864      	lsrs	r4, r4, #1
 800073c:	4915      	ldr	r1, [pc, #84]	; (8000794 <__aeabi_dmul+0x368>)
 800073e:	9b02      	ldr	r3, [sp, #8]
 8000740:	468c      	mov	ip, r1
 8000742:	4463      	add	r3, ip
 8000744:	2b00      	cmp	r3, #0
 8000746:	dc00      	bgt.n	800074a <__aeabi_dmul+0x31e>
 8000748:	e097      	b.n	800087a <__aeabi_dmul+0x44e>
 800074a:	0741      	lsls	r1, r0, #29
 800074c:	d009      	beq.n	8000762 <__aeabi_dmul+0x336>
 800074e:	210f      	movs	r1, #15
 8000750:	4001      	ands	r1, r0
 8000752:	2904      	cmp	r1, #4
 8000754:	d005      	beq.n	8000762 <__aeabi_dmul+0x336>
 8000756:	1d01      	adds	r1, r0, #4
 8000758:	4281      	cmp	r1, r0
 800075a:	4180      	sbcs	r0, r0
 800075c:	4240      	negs	r0, r0
 800075e:	1824      	adds	r4, r4, r0
 8000760:	0008      	movs	r0, r1
 8000762:	01e1      	lsls	r1, r4, #7
 8000764:	d506      	bpl.n	8000774 <__aeabi_dmul+0x348>
 8000766:	2180      	movs	r1, #128	; 0x80
 8000768:	00c9      	lsls	r1, r1, #3
 800076a:	468c      	mov	ip, r1
 800076c:	4b0a      	ldr	r3, [pc, #40]	; (8000798 <__aeabi_dmul+0x36c>)
 800076e:	401c      	ands	r4, r3
 8000770:	9b02      	ldr	r3, [sp, #8]
 8000772:	4463      	add	r3, ip
 8000774:	4909      	ldr	r1, [pc, #36]	; (800079c <__aeabi_dmul+0x370>)
 8000776:	428b      	cmp	r3, r1
 8000778:	dd00      	ble.n	800077c <__aeabi_dmul+0x350>
 800077a:	e710      	b.n	800059e <__aeabi_dmul+0x172>
 800077c:	0761      	lsls	r1, r4, #29
 800077e:	08c5      	lsrs	r5, r0, #3
 8000780:	0264      	lsls	r4, r4, #9
 8000782:	055b      	lsls	r3, r3, #21
 8000784:	430d      	orrs	r5, r1
 8000786:	0b24      	lsrs	r4, r4, #12
 8000788:	0d5b      	lsrs	r3, r3, #21
 800078a:	e6c1      	b.n	8000510 <__aeabi_dmul+0xe4>
 800078c:	000007ff 	.word	0x000007ff
 8000790:	fffffc01 	.word	0xfffffc01
 8000794:	000003ff 	.word	0x000003ff
 8000798:	feffffff 	.word	0xfeffffff
 800079c:	000007fe 	.word	0x000007fe
 80007a0:	464b      	mov	r3, r9
 80007a2:	4323      	orrs	r3, r4
 80007a4:	d059      	beq.n	800085a <__aeabi_dmul+0x42e>
 80007a6:	2c00      	cmp	r4, #0
 80007a8:	d100      	bne.n	80007ac <__aeabi_dmul+0x380>
 80007aa:	e0a3      	b.n	80008f4 <__aeabi_dmul+0x4c8>
 80007ac:	0020      	movs	r0, r4
 80007ae:	f000 fd1b 	bl	80011e8 <__clzsi2>
 80007b2:	0001      	movs	r1, r0
 80007b4:	0003      	movs	r3, r0
 80007b6:	390b      	subs	r1, #11
 80007b8:	221d      	movs	r2, #29
 80007ba:	1a52      	subs	r2, r2, r1
 80007bc:	4649      	mov	r1, r9
 80007be:	0018      	movs	r0, r3
 80007c0:	40d1      	lsrs	r1, r2
 80007c2:	464a      	mov	r2, r9
 80007c4:	3808      	subs	r0, #8
 80007c6:	4082      	lsls	r2, r0
 80007c8:	4084      	lsls	r4, r0
 80007ca:	0010      	movs	r0, r2
 80007cc:	430c      	orrs	r4, r1
 80007ce:	4a74      	ldr	r2, [pc, #464]	; (80009a0 <__aeabi_dmul+0x574>)
 80007d0:	1aeb      	subs	r3, r5, r3
 80007d2:	4694      	mov	ip, r2
 80007d4:	4642      	mov	r2, r8
 80007d6:	4463      	add	r3, ip
 80007d8:	9301      	str	r3, [sp, #4]
 80007da:	9b01      	ldr	r3, [sp, #4]
 80007dc:	407a      	eors	r2, r7
 80007de:	3301      	adds	r3, #1
 80007e0:	2100      	movs	r1, #0
 80007e2:	b2d2      	uxtb	r2, r2
 80007e4:	9302      	str	r3, [sp, #8]
 80007e6:	2e0a      	cmp	r6, #10
 80007e8:	dd00      	ble.n	80007ec <__aeabi_dmul+0x3c0>
 80007ea:	e667      	b.n	80004bc <__aeabi_dmul+0x90>
 80007ec:	e683      	b.n	80004f6 <__aeabi_dmul+0xca>
 80007ee:	465b      	mov	r3, fp
 80007f0:	4303      	orrs	r3, r0
 80007f2:	469a      	mov	sl, r3
 80007f4:	d02a      	beq.n	800084c <__aeabi_dmul+0x420>
 80007f6:	465b      	mov	r3, fp
 80007f8:	2b00      	cmp	r3, #0
 80007fa:	d06d      	beq.n	80008d8 <__aeabi_dmul+0x4ac>
 80007fc:	4658      	mov	r0, fp
 80007fe:	f000 fcf3 	bl	80011e8 <__clzsi2>
 8000802:	0001      	movs	r1, r0
 8000804:	0003      	movs	r3, r0
 8000806:	390b      	subs	r1, #11
 8000808:	221d      	movs	r2, #29
 800080a:	1a52      	subs	r2, r2, r1
 800080c:	0021      	movs	r1, r4
 800080e:	0018      	movs	r0, r3
 8000810:	465d      	mov	r5, fp
 8000812:	40d1      	lsrs	r1, r2
 8000814:	3808      	subs	r0, #8
 8000816:	4085      	lsls	r5, r0
 8000818:	000a      	movs	r2, r1
 800081a:	4084      	lsls	r4, r0
 800081c:	432a      	orrs	r2, r5
 800081e:	4693      	mov	fp, r2
 8000820:	46a2      	mov	sl, r4
 8000822:	4d5f      	ldr	r5, [pc, #380]	; (80009a0 <__aeabi_dmul+0x574>)
 8000824:	2600      	movs	r6, #0
 8000826:	1aed      	subs	r5, r5, r3
 8000828:	2300      	movs	r3, #0
 800082a:	9300      	str	r3, [sp, #0]
 800082c:	e625      	b.n	800047a <__aeabi_dmul+0x4e>
 800082e:	465b      	mov	r3, fp
 8000830:	4303      	orrs	r3, r0
 8000832:	469a      	mov	sl, r3
 8000834:	d105      	bne.n	8000842 <__aeabi_dmul+0x416>
 8000836:	2300      	movs	r3, #0
 8000838:	469b      	mov	fp, r3
 800083a:	3302      	adds	r3, #2
 800083c:	2608      	movs	r6, #8
 800083e:	9300      	str	r3, [sp, #0]
 8000840:	e61b      	b.n	800047a <__aeabi_dmul+0x4e>
 8000842:	2303      	movs	r3, #3
 8000844:	4682      	mov	sl, r0
 8000846:	260c      	movs	r6, #12
 8000848:	9300      	str	r3, [sp, #0]
 800084a:	e616      	b.n	800047a <__aeabi_dmul+0x4e>
 800084c:	2300      	movs	r3, #0
 800084e:	469b      	mov	fp, r3
 8000850:	3301      	adds	r3, #1
 8000852:	2604      	movs	r6, #4
 8000854:	2500      	movs	r5, #0
 8000856:	9300      	str	r3, [sp, #0]
 8000858:	e60f      	b.n	800047a <__aeabi_dmul+0x4e>
 800085a:	4642      	mov	r2, r8
 800085c:	3301      	adds	r3, #1
 800085e:	9501      	str	r5, [sp, #4]
 8000860:	431e      	orrs	r6, r3
 8000862:	9b01      	ldr	r3, [sp, #4]
 8000864:	407a      	eors	r2, r7
 8000866:	3301      	adds	r3, #1
 8000868:	2400      	movs	r4, #0
 800086a:	2000      	movs	r0, #0
 800086c:	2101      	movs	r1, #1
 800086e:	b2d2      	uxtb	r2, r2
 8000870:	9302      	str	r3, [sp, #8]
 8000872:	2e0a      	cmp	r6, #10
 8000874:	dd00      	ble.n	8000878 <__aeabi_dmul+0x44c>
 8000876:	e621      	b.n	80004bc <__aeabi_dmul+0x90>
 8000878:	e63d      	b.n	80004f6 <__aeabi_dmul+0xca>
 800087a:	2101      	movs	r1, #1
 800087c:	1ac9      	subs	r1, r1, r3
 800087e:	2938      	cmp	r1, #56	; 0x38
 8000880:	dd00      	ble.n	8000884 <__aeabi_dmul+0x458>
 8000882:	e642      	b.n	800050a <__aeabi_dmul+0xde>
 8000884:	291f      	cmp	r1, #31
 8000886:	dd47      	ble.n	8000918 <__aeabi_dmul+0x4ec>
 8000888:	261f      	movs	r6, #31
 800088a:	0025      	movs	r5, r4
 800088c:	4276      	negs	r6, r6
 800088e:	1af3      	subs	r3, r6, r3
 8000890:	40dd      	lsrs	r5, r3
 8000892:	002b      	movs	r3, r5
 8000894:	2920      	cmp	r1, #32
 8000896:	d005      	beq.n	80008a4 <__aeabi_dmul+0x478>
 8000898:	4942      	ldr	r1, [pc, #264]	; (80009a4 <__aeabi_dmul+0x578>)
 800089a:	9d02      	ldr	r5, [sp, #8]
 800089c:	468c      	mov	ip, r1
 800089e:	4465      	add	r5, ip
 80008a0:	40ac      	lsls	r4, r5
 80008a2:	4320      	orrs	r0, r4
 80008a4:	1e41      	subs	r1, r0, #1
 80008a6:	4188      	sbcs	r0, r1
 80008a8:	4318      	orrs	r0, r3
 80008aa:	2307      	movs	r3, #7
 80008ac:	001d      	movs	r5, r3
 80008ae:	2400      	movs	r4, #0
 80008b0:	4005      	ands	r5, r0
 80008b2:	4203      	tst	r3, r0
 80008b4:	d04a      	beq.n	800094c <__aeabi_dmul+0x520>
 80008b6:	230f      	movs	r3, #15
 80008b8:	2400      	movs	r4, #0
 80008ba:	4003      	ands	r3, r0
 80008bc:	2b04      	cmp	r3, #4
 80008be:	d042      	beq.n	8000946 <__aeabi_dmul+0x51a>
 80008c0:	1d03      	adds	r3, r0, #4
 80008c2:	4283      	cmp	r3, r0
 80008c4:	4180      	sbcs	r0, r0
 80008c6:	4240      	negs	r0, r0
 80008c8:	1824      	adds	r4, r4, r0
 80008ca:	0018      	movs	r0, r3
 80008cc:	0223      	lsls	r3, r4, #8
 80008ce:	d53a      	bpl.n	8000946 <__aeabi_dmul+0x51a>
 80008d0:	2301      	movs	r3, #1
 80008d2:	2400      	movs	r4, #0
 80008d4:	2500      	movs	r5, #0
 80008d6:	e61b      	b.n	8000510 <__aeabi_dmul+0xe4>
 80008d8:	f000 fc86 	bl	80011e8 <__clzsi2>
 80008dc:	0001      	movs	r1, r0
 80008de:	0003      	movs	r3, r0
 80008e0:	3115      	adds	r1, #21
 80008e2:	3320      	adds	r3, #32
 80008e4:	291c      	cmp	r1, #28
 80008e6:	dd8f      	ble.n	8000808 <__aeabi_dmul+0x3dc>
 80008e8:	3808      	subs	r0, #8
 80008ea:	2200      	movs	r2, #0
 80008ec:	4084      	lsls	r4, r0
 80008ee:	4692      	mov	sl, r2
 80008f0:	46a3      	mov	fp, r4
 80008f2:	e796      	b.n	8000822 <__aeabi_dmul+0x3f6>
 80008f4:	f000 fc78 	bl	80011e8 <__clzsi2>
 80008f8:	0001      	movs	r1, r0
 80008fa:	0003      	movs	r3, r0
 80008fc:	3115      	adds	r1, #21
 80008fe:	3320      	adds	r3, #32
 8000900:	291c      	cmp	r1, #28
 8000902:	dc00      	bgt.n	8000906 <__aeabi_dmul+0x4da>
 8000904:	e758      	b.n	80007b8 <__aeabi_dmul+0x38c>
 8000906:	0002      	movs	r2, r0
 8000908:	464c      	mov	r4, r9
 800090a:	3a08      	subs	r2, #8
 800090c:	2000      	movs	r0, #0
 800090e:	4094      	lsls	r4, r2
 8000910:	e75d      	b.n	80007ce <__aeabi_dmul+0x3a2>
 8000912:	9b01      	ldr	r3, [sp, #4]
 8000914:	9302      	str	r3, [sp, #8]
 8000916:	e711      	b.n	800073c <__aeabi_dmul+0x310>
 8000918:	4b23      	ldr	r3, [pc, #140]	; (80009a8 <__aeabi_dmul+0x57c>)
 800091a:	0026      	movs	r6, r4
 800091c:	469c      	mov	ip, r3
 800091e:	0003      	movs	r3, r0
 8000920:	9d02      	ldr	r5, [sp, #8]
 8000922:	40cb      	lsrs	r3, r1
 8000924:	4465      	add	r5, ip
 8000926:	40ae      	lsls	r6, r5
 8000928:	431e      	orrs	r6, r3
 800092a:	0003      	movs	r3, r0
 800092c:	40ab      	lsls	r3, r5
 800092e:	1e58      	subs	r0, r3, #1
 8000930:	4183      	sbcs	r3, r0
 8000932:	0030      	movs	r0, r6
 8000934:	4318      	orrs	r0, r3
 8000936:	40cc      	lsrs	r4, r1
 8000938:	0743      	lsls	r3, r0, #29
 800093a:	d0c7      	beq.n	80008cc <__aeabi_dmul+0x4a0>
 800093c:	230f      	movs	r3, #15
 800093e:	4003      	ands	r3, r0
 8000940:	2b04      	cmp	r3, #4
 8000942:	d1bd      	bne.n	80008c0 <__aeabi_dmul+0x494>
 8000944:	e7c2      	b.n	80008cc <__aeabi_dmul+0x4a0>
 8000946:	0765      	lsls	r5, r4, #29
 8000948:	0264      	lsls	r4, r4, #9
 800094a:	0b24      	lsrs	r4, r4, #12
 800094c:	08c0      	lsrs	r0, r0, #3
 800094e:	2300      	movs	r3, #0
 8000950:	4305      	orrs	r5, r0
 8000952:	e5dd      	b.n	8000510 <__aeabi_dmul+0xe4>
 8000954:	2500      	movs	r5, #0
 8000956:	2302      	movs	r3, #2
 8000958:	2e0f      	cmp	r6, #15
 800095a:	d10c      	bne.n	8000976 <__aeabi_dmul+0x54a>
 800095c:	2480      	movs	r4, #128	; 0x80
 800095e:	465b      	mov	r3, fp
 8000960:	0324      	lsls	r4, r4, #12
 8000962:	4223      	tst	r3, r4
 8000964:	d00e      	beq.n	8000984 <__aeabi_dmul+0x558>
 8000966:	4221      	tst	r1, r4
 8000968:	d10c      	bne.n	8000984 <__aeabi_dmul+0x558>
 800096a:	430c      	orrs	r4, r1
 800096c:	0324      	lsls	r4, r4, #12
 800096e:	003a      	movs	r2, r7
 8000970:	4b0e      	ldr	r3, [pc, #56]	; (80009ac <__aeabi_dmul+0x580>)
 8000972:	0b24      	lsrs	r4, r4, #12
 8000974:	e5cc      	b.n	8000510 <__aeabi_dmul+0xe4>
 8000976:	2e0b      	cmp	r6, #11
 8000978:	d000      	beq.n	800097c <__aeabi_dmul+0x550>
 800097a:	e5a2      	b.n	80004c2 <__aeabi_dmul+0x96>
 800097c:	468b      	mov	fp, r1
 800097e:	46aa      	mov	sl, r5
 8000980:	9300      	str	r3, [sp, #0]
 8000982:	e5f7      	b.n	8000574 <__aeabi_dmul+0x148>
 8000984:	2480      	movs	r4, #128	; 0x80
 8000986:	465b      	mov	r3, fp
 8000988:	0324      	lsls	r4, r4, #12
 800098a:	431c      	orrs	r4, r3
 800098c:	0324      	lsls	r4, r4, #12
 800098e:	4642      	mov	r2, r8
 8000990:	4655      	mov	r5, sl
 8000992:	4b06      	ldr	r3, [pc, #24]	; (80009ac <__aeabi_dmul+0x580>)
 8000994:	0b24      	lsrs	r4, r4, #12
 8000996:	e5bb      	b.n	8000510 <__aeabi_dmul+0xe4>
 8000998:	464d      	mov	r5, r9
 800099a:	0021      	movs	r1, r4
 800099c:	2303      	movs	r3, #3
 800099e:	e7db      	b.n	8000958 <__aeabi_dmul+0x52c>
 80009a0:	fffffc0d 	.word	0xfffffc0d
 80009a4:	0000043e 	.word	0x0000043e
 80009a8:	0000041e 	.word	0x0000041e
 80009ac:	000007ff 	.word	0x000007ff

080009b0 <__aeabi_dsub>:
 80009b0:	b5f0      	push	{r4, r5, r6, r7, lr}
 80009b2:	4657      	mov	r7, sl
 80009b4:	464e      	mov	r6, r9
 80009b6:	4645      	mov	r5, r8
 80009b8:	46de      	mov	lr, fp
 80009ba:	b5e0      	push	{r5, r6, r7, lr}
 80009bc:	000d      	movs	r5, r1
 80009be:	0004      	movs	r4, r0
 80009c0:	0019      	movs	r1, r3
 80009c2:	0010      	movs	r0, r2
 80009c4:	032b      	lsls	r3, r5, #12
 80009c6:	0a5b      	lsrs	r3, r3, #9
 80009c8:	0f62      	lsrs	r2, r4, #29
 80009ca:	431a      	orrs	r2, r3
 80009cc:	00e3      	lsls	r3, r4, #3
 80009ce:	030c      	lsls	r4, r1, #12
 80009d0:	0a64      	lsrs	r4, r4, #9
 80009d2:	0f47      	lsrs	r7, r0, #29
 80009d4:	4327      	orrs	r7, r4
 80009d6:	4cd0      	ldr	r4, [pc, #832]	; (8000d18 <__aeabi_dsub+0x368>)
 80009d8:	006e      	lsls	r6, r5, #1
 80009da:	4691      	mov	r9, r2
 80009dc:	b083      	sub	sp, #12
 80009de:	004a      	lsls	r2, r1, #1
 80009e0:	00c0      	lsls	r0, r0, #3
 80009e2:	4698      	mov	r8, r3
 80009e4:	46a2      	mov	sl, r4
 80009e6:	0d76      	lsrs	r6, r6, #21
 80009e8:	0fed      	lsrs	r5, r5, #31
 80009ea:	0d52      	lsrs	r2, r2, #21
 80009ec:	0fc9      	lsrs	r1, r1, #31
 80009ee:	9001      	str	r0, [sp, #4]
 80009f0:	42a2      	cmp	r2, r4
 80009f2:	d100      	bne.n	80009f6 <__aeabi_dsub+0x46>
 80009f4:	e0b9      	b.n	8000b6a <__aeabi_dsub+0x1ba>
 80009f6:	2401      	movs	r4, #1
 80009f8:	4061      	eors	r1, r4
 80009fa:	468b      	mov	fp, r1
 80009fc:	428d      	cmp	r5, r1
 80009fe:	d100      	bne.n	8000a02 <__aeabi_dsub+0x52>
 8000a00:	e08d      	b.n	8000b1e <__aeabi_dsub+0x16e>
 8000a02:	1ab4      	subs	r4, r6, r2
 8000a04:	46a4      	mov	ip, r4
 8000a06:	2c00      	cmp	r4, #0
 8000a08:	dc00      	bgt.n	8000a0c <__aeabi_dsub+0x5c>
 8000a0a:	e0b7      	b.n	8000b7c <__aeabi_dsub+0x1cc>
 8000a0c:	2a00      	cmp	r2, #0
 8000a0e:	d100      	bne.n	8000a12 <__aeabi_dsub+0x62>
 8000a10:	e0cb      	b.n	8000baa <__aeabi_dsub+0x1fa>
 8000a12:	4ac1      	ldr	r2, [pc, #772]	; (8000d18 <__aeabi_dsub+0x368>)
 8000a14:	4296      	cmp	r6, r2
 8000a16:	d100      	bne.n	8000a1a <__aeabi_dsub+0x6a>
 8000a18:	e186      	b.n	8000d28 <__aeabi_dsub+0x378>
 8000a1a:	2280      	movs	r2, #128	; 0x80
 8000a1c:	0412      	lsls	r2, r2, #16
 8000a1e:	4317      	orrs	r7, r2
 8000a20:	4662      	mov	r2, ip
 8000a22:	2a38      	cmp	r2, #56	; 0x38
 8000a24:	dd00      	ble.n	8000a28 <__aeabi_dsub+0x78>
 8000a26:	e1a4      	b.n	8000d72 <__aeabi_dsub+0x3c2>
 8000a28:	2a1f      	cmp	r2, #31
 8000a2a:	dd00      	ble.n	8000a2e <__aeabi_dsub+0x7e>
 8000a2c:	e21d      	b.n	8000e6a <__aeabi_dsub+0x4ba>
 8000a2e:	4661      	mov	r1, ip
 8000a30:	2220      	movs	r2, #32
 8000a32:	003c      	movs	r4, r7
 8000a34:	1a52      	subs	r2, r2, r1
 8000a36:	0001      	movs	r1, r0
 8000a38:	4090      	lsls	r0, r2
 8000a3a:	4094      	lsls	r4, r2
 8000a3c:	1e42      	subs	r2, r0, #1
 8000a3e:	4190      	sbcs	r0, r2
 8000a40:	4662      	mov	r2, ip
 8000a42:	46a0      	mov	r8, r4
 8000a44:	4664      	mov	r4, ip
 8000a46:	40d7      	lsrs	r7, r2
 8000a48:	464a      	mov	r2, r9
 8000a4a:	40e1      	lsrs	r1, r4
 8000a4c:	4644      	mov	r4, r8
 8000a4e:	1bd2      	subs	r2, r2, r7
 8000a50:	4691      	mov	r9, r2
 8000a52:	430c      	orrs	r4, r1
 8000a54:	4304      	orrs	r4, r0
 8000a56:	1b1c      	subs	r4, r3, r4
 8000a58:	42a3      	cmp	r3, r4
 8000a5a:	4192      	sbcs	r2, r2
 8000a5c:	464b      	mov	r3, r9
 8000a5e:	4252      	negs	r2, r2
 8000a60:	1a9b      	subs	r3, r3, r2
 8000a62:	469a      	mov	sl, r3
 8000a64:	4653      	mov	r3, sl
 8000a66:	021b      	lsls	r3, r3, #8
 8000a68:	d400      	bmi.n	8000a6c <__aeabi_dsub+0xbc>
 8000a6a:	e12b      	b.n	8000cc4 <__aeabi_dsub+0x314>
 8000a6c:	4653      	mov	r3, sl
 8000a6e:	025a      	lsls	r2, r3, #9
 8000a70:	0a53      	lsrs	r3, r2, #9
 8000a72:	469a      	mov	sl, r3
 8000a74:	4653      	mov	r3, sl
 8000a76:	2b00      	cmp	r3, #0
 8000a78:	d100      	bne.n	8000a7c <__aeabi_dsub+0xcc>
 8000a7a:	e166      	b.n	8000d4a <__aeabi_dsub+0x39a>
 8000a7c:	4650      	mov	r0, sl
 8000a7e:	f000 fbb3 	bl	80011e8 <__clzsi2>
 8000a82:	0003      	movs	r3, r0
 8000a84:	3b08      	subs	r3, #8
 8000a86:	2220      	movs	r2, #32
 8000a88:	0020      	movs	r0, r4
 8000a8a:	1ad2      	subs	r2, r2, r3
 8000a8c:	4651      	mov	r1, sl
 8000a8e:	40d0      	lsrs	r0, r2
 8000a90:	4099      	lsls	r1, r3
 8000a92:	0002      	movs	r2, r0
 8000a94:	409c      	lsls	r4, r3
 8000a96:	430a      	orrs	r2, r1
 8000a98:	429e      	cmp	r6, r3
 8000a9a:	dd00      	ble.n	8000a9e <__aeabi_dsub+0xee>
 8000a9c:	e164      	b.n	8000d68 <__aeabi_dsub+0x3b8>
 8000a9e:	1b9b      	subs	r3, r3, r6
 8000aa0:	1c59      	adds	r1, r3, #1
 8000aa2:	291f      	cmp	r1, #31
 8000aa4:	dd00      	ble.n	8000aa8 <__aeabi_dsub+0xf8>
 8000aa6:	e0fe      	b.n	8000ca6 <__aeabi_dsub+0x2f6>
 8000aa8:	2320      	movs	r3, #32
 8000aaa:	0010      	movs	r0, r2
 8000aac:	0026      	movs	r6, r4
 8000aae:	1a5b      	subs	r3, r3, r1
 8000ab0:	409c      	lsls	r4, r3
 8000ab2:	4098      	lsls	r0, r3
 8000ab4:	40ce      	lsrs	r6, r1
 8000ab6:	40ca      	lsrs	r2, r1
 8000ab8:	1e63      	subs	r3, r4, #1
 8000aba:	419c      	sbcs	r4, r3
 8000abc:	4330      	orrs	r0, r6
 8000abe:	4692      	mov	sl, r2
 8000ac0:	2600      	movs	r6, #0
 8000ac2:	4304      	orrs	r4, r0
 8000ac4:	0763      	lsls	r3, r4, #29
 8000ac6:	d009      	beq.n	8000adc <__aeabi_dsub+0x12c>
 8000ac8:	230f      	movs	r3, #15
 8000aca:	4023      	ands	r3, r4
 8000acc:	2b04      	cmp	r3, #4
 8000ace:	d005      	beq.n	8000adc <__aeabi_dsub+0x12c>
 8000ad0:	1d23      	adds	r3, r4, #4
 8000ad2:	42a3      	cmp	r3, r4
 8000ad4:	41a4      	sbcs	r4, r4
 8000ad6:	4264      	negs	r4, r4
 8000ad8:	44a2      	add	sl, r4
 8000ada:	001c      	movs	r4, r3
 8000adc:	4653      	mov	r3, sl
 8000ade:	021b      	lsls	r3, r3, #8
 8000ae0:	d400      	bmi.n	8000ae4 <__aeabi_dsub+0x134>
 8000ae2:	e0f2      	b.n	8000cca <__aeabi_dsub+0x31a>
 8000ae4:	4b8c      	ldr	r3, [pc, #560]	; (8000d18 <__aeabi_dsub+0x368>)
 8000ae6:	3601      	adds	r6, #1
 8000ae8:	429e      	cmp	r6, r3
 8000aea:	d100      	bne.n	8000aee <__aeabi_dsub+0x13e>
 8000aec:	e10f      	b.n	8000d0e <__aeabi_dsub+0x35e>
 8000aee:	4653      	mov	r3, sl
 8000af0:	498a      	ldr	r1, [pc, #552]	; (8000d1c <__aeabi_dsub+0x36c>)
 8000af2:	08e4      	lsrs	r4, r4, #3
 8000af4:	400b      	ands	r3, r1
 8000af6:	0019      	movs	r1, r3
 8000af8:	075b      	lsls	r3, r3, #29
 8000afa:	4323      	orrs	r3, r4
 8000afc:	0572      	lsls	r2, r6, #21
 8000afe:	024c      	lsls	r4, r1, #9
 8000b00:	0b24      	lsrs	r4, r4, #12
 8000b02:	0d52      	lsrs	r2, r2, #21
 8000b04:	0512      	lsls	r2, r2, #20
 8000b06:	4322      	orrs	r2, r4
 8000b08:	07ed      	lsls	r5, r5, #31
 8000b0a:	432a      	orrs	r2, r5
 8000b0c:	0018      	movs	r0, r3
 8000b0e:	0011      	movs	r1, r2
 8000b10:	b003      	add	sp, #12
 8000b12:	bcf0      	pop	{r4, r5, r6, r7}
 8000b14:	46bb      	mov	fp, r7
 8000b16:	46b2      	mov	sl, r6
 8000b18:	46a9      	mov	r9, r5
 8000b1a:	46a0      	mov	r8, r4
 8000b1c:	bdf0      	pop	{r4, r5, r6, r7, pc}
 8000b1e:	1ab4      	subs	r4, r6, r2
 8000b20:	46a4      	mov	ip, r4
 8000b22:	2c00      	cmp	r4, #0
 8000b24:	dd59      	ble.n	8000bda <__aeabi_dsub+0x22a>
 8000b26:	2a00      	cmp	r2, #0
 8000b28:	d100      	bne.n	8000b2c <__aeabi_dsub+0x17c>
 8000b2a:	e0b0      	b.n	8000c8e <__aeabi_dsub+0x2de>
 8000b2c:	4556      	cmp	r6, sl
 8000b2e:	d100      	bne.n	8000b32 <__aeabi_dsub+0x182>
 8000b30:	e0fa      	b.n	8000d28 <__aeabi_dsub+0x378>
 8000b32:	2280      	movs	r2, #128	; 0x80
 8000b34:	0412      	lsls	r2, r2, #16
 8000b36:	4317      	orrs	r7, r2
 8000b38:	4662      	mov	r2, ip
 8000b3a:	2a38      	cmp	r2, #56	; 0x38
 8000b3c:	dd00      	ble.n	8000b40 <__aeabi_dsub+0x190>
 8000b3e:	e0d4      	b.n	8000cea <__aeabi_dsub+0x33a>
 8000b40:	2a1f      	cmp	r2, #31
 8000b42:	dc00      	bgt.n	8000b46 <__aeabi_dsub+0x196>
 8000b44:	e1c0      	b.n	8000ec8 <__aeabi_dsub+0x518>
 8000b46:	0039      	movs	r1, r7
 8000b48:	3a20      	subs	r2, #32
 8000b4a:	40d1      	lsrs	r1, r2
 8000b4c:	4662      	mov	r2, ip
 8000b4e:	2a20      	cmp	r2, #32
 8000b50:	d006      	beq.n	8000b60 <__aeabi_dsub+0x1b0>
 8000b52:	4664      	mov	r4, ip
 8000b54:	2240      	movs	r2, #64	; 0x40
 8000b56:	1b12      	subs	r2, r2, r4
 8000b58:	003c      	movs	r4, r7
 8000b5a:	4094      	lsls	r4, r2
 8000b5c:	4304      	orrs	r4, r0
 8000b5e:	9401      	str	r4, [sp, #4]
 8000b60:	9c01      	ldr	r4, [sp, #4]
 8000b62:	1e62      	subs	r2, r4, #1
 8000b64:	4194      	sbcs	r4, r2
 8000b66:	430c      	orrs	r4, r1
 8000b68:	e0c3      	b.n	8000cf2 <__aeabi_dsub+0x342>
 8000b6a:	003c      	movs	r4, r7
 8000b6c:	4304      	orrs	r4, r0
 8000b6e:	d02b      	beq.n	8000bc8 <__aeabi_dsub+0x218>
 8000b70:	468b      	mov	fp, r1
 8000b72:	428d      	cmp	r5, r1
 8000b74:	d02e      	beq.n	8000bd4 <__aeabi_dsub+0x224>
 8000b76:	4c6a      	ldr	r4, [pc, #424]	; (8000d20 <__aeabi_dsub+0x370>)
 8000b78:	46a4      	mov	ip, r4
 8000b7a:	44b4      	add	ip, r6
 8000b7c:	4664      	mov	r4, ip
 8000b7e:	2c00      	cmp	r4, #0
 8000b80:	d05f      	beq.n	8000c42 <__aeabi_dsub+0x292>
 8000b82:	1b94      	subs	r4, r2, r6
 8000b84:	46a4      	mov	ip, r4
 8000b86:	2e00      	cmp	r6, #0
 8000b88:	d000      	beq.n	8000b8c <__aeabi_dsub+0x1dc>
 8000b8a:	e120      	b.n	8000dce <__aeabi_dsub+0x41e>
 8000b8c:	464c      	mov	r4, r9
 8000b8e:	431c      	orrs	r4, r3
 8000b90:	d100      	bne.n	8000b94 <__aeabi_dsub+0x1e4>
 8000b92:	e1c7      	b.n	8000f24 <__aeabi_dsub+0x574>
 8000b94:	4661      	mov	r1, ip
 8000b96:	1e4c      	subs	r4, r1, #1
 8000b98:	2901      	cmp	r1, #1
 8000b9a:	d100      	bne.n	8000b9e <__aeabi_dsub+0x1ee>
 8000b9c:	e223      	b.n	8000fe6 <__aeabi_dsub+0x636>
 8000b9e:	4d5e      	ldr	r5, [pc, #376]	; (8000d18 <__aeabi_dsub+0x368>)
 8000ba0:	45ac      	cmp	ip, r5
 8000ba2:	d100      	bne.n	8000ba6 <__aeabi_dsub+0x1f6>
 8000ba4:	e1d8      	b.n	8000f58 <__aeabi_dsub+0x5a8>
 8000ba6:	46a4      	mov	ip, r4
 8000ba8:	e11a      	b.n	8000de0 <__aeabi_dsub+0x430>
 8000baa:	003a      	movs	r2, r7
 8000bac:	4302      	orrs	r2, r0
 8000bae:	d100      	bne.n	8000bb2 <__aeabi_dsub+0x202>
 8000bb0:	e0e4      	b.n	8000d7c <__aeabi_dsub+0x3cc>
 8000bb2:	0022      	movs	r2, r4
 8000bb4:	3a01      	subs	r2, #1
 8000bb6:	2c01      	cmp	r4, #1
 8000bb8:	d100      	bne.n	8000bbc <__aeabi_dsub+0x20c>
 8000bba:	e1c3      	b.n	8000f44 <__aeabi_dsub+0x594>
 8000bbc:	4956      	ldr	r1, [pc, #344]	; (8000d18 <__aeabi_dsub+0x368>)
 8000bbe:	428c      	cmp	r4, r1
 8000bc0:	d100      	bne.n	8000bc4 <__aeabi_dsub+0x214>
 8000bc2:	e0b1      	b.n	8000d28 <__aeabi_dsub+0x378>
 8000bc4:	4694      	mov	ip, r2
 8000bc6:	e72b      	b.n	8000a20 <__aeabi_dsub+0x70>
 8000bc8:	2401      	movs	r4, #1
 8000bca:	4061      	eors	r1, r4
 8000bcc:	468b      	mov	fp, r1
 8000bce:	428d      	cmp	r5, r1
 8000bd0:	d000      	beq.n	8000bd4 <__aeabi_dsub+0x224>
 8000bd2:	e716      	b.n	8000a02 <__aeabi_dsub+0x52>
 8000bd4:	4952      	ldr	r1, [pc, #328]	; (8000d20 <__aeabi_dsub+0x370>)
 8000bd6:	468c      	mov	ip, r1
 8000bd8:	44b4      	add	ip, r6
 8000bda:	4664      	mov	r4, ip
 8000bdc:	2c00      	cmp	r4, #0
 8000bde:	d100      	bne.n	8000be2 <__aeabi_dsub+0x232>
 8000be0:	e0d3      	b.n	8000d8a <__aeabi_dsub+0x3da>
 8000be2:	1b91      	subs	r1, r2, r6
 8000be4:	468c      	mov	ip, r1
 8000be6:	2e00      	cmp	r6, #0
 8000be8:	d100      	bne.n	8000bec <__aeabi_dsub+0x23c>
 8000bea:	e15e      	b.n	8000eaa <__aeabi_dsub+0x4fa>
 8000bec:	494a      	ldr	r1, [pc, #296]	; (8000d18 <__aeabi_dsub+0x368>)
 8000bee:	428a      	cmp	r2, r1
 8000bf0:	d100      	bne.n	8000bf4 <__aeabi_dsub+0x244>
 8000bf2:	e1be      	b.n	8000f72 <__aeabi_dsub+0x5c2>
 8000bf4:	2180      	movs	r1, #128	; 0x80
 8000bf6:	464c      	mov	r4, r9
 8000bf8:	0409      	lsls	r1, r1, #16
 8000bfa:	430c      	orrs	r4, r1
 8000bfc:	46a1      	mov	r9, r4
 8000bfe:	4661      	mov	r1, ip
 8000c00:	2938      	cmp	r1, #56	; 0x38
 8000c02:	dd00      	ble.n	8000c06 <__aeabi_dsub+0x256>
 8000c04:	e1ba      	b.n	8000f7c <__aeabi_dsub+0x5cc>
 8000c06:	291f      	cmp	r1, #31
 8000c08:	dd00      	ble.n	8000c0c <__aeabi_dsub+0x25c>
 8000c0a:	e227      	b.n	800105c <__aeabi_dsub+0x6ac>
 8000c0c:	2420      	movs	r4, #32
 8000c0e:	1a64      	subs	r4, r4, r1
 8000c10:	4649      	mov	r1, r9
 8000c12:	40a1      	lsls	r1, r4
 8000c14:	001e      	movs	r6, r3
 8000c16:	4688      	mov	r8, r1
 8000c18:	4661      	mov	r1, ip
 8000c1a:	40a3      	lsls	r3, r4
 8000c1c:	40ce      	lsrs	r6, r1
 8000c1e:	4641      	mov	r1, r8
 8000c20:	1e5c      	subs	r4, r3, #1
 8000c22:	41a3      	sbcs	r3, r4
 8000c24:	4331      	orrs	r1, r6
 8000c26:	4319      	orrs	r1, r3
 8000c28:	000c      	movs	r4, r1
 8000c2a:	4663      	mov	r3, ip
 8000c2c:	4649      	mov	r1, r9
 8000c2e:	40d9      	lsrs	r1, r3
 8000c30:	187f      	adds	r7, r7, r1
 8000c32:	1824      	adds	r4, r4, r0
 8000c34:	4284      	cmp	r4, r0
 8000c36:	419b      	sbcs	r3, r3
 8000c38:	425b      	negs	r3, r3
 8000c3a:	469a      	mov	sl, r3
 8000c3c:	0016      	movs	r6, r2
 8000c3e:	44ba      	add	sl, r7
 8000c40:	e05d      	b.n	8000cfe <__aeabi_dsub+0x34e>
 8000c42:	4c38      	ldr	r4, [pc, #224]	; (8000d24 <__aeabi_dsub+0x374>)
 8000c44:	1c72      	adds	r2, r6, #1
 8000c46:	4222      	tst	r2, r4
 8000c48:	d000      	beq.n	8000c4c <__aeabi_dsub+0x29c>
 8000c4a:	e0df      	b.n	8000e0c <__aeabi_dsub+0x45c>
 8000c4c:	464a      	mov	r2, r9
 8000c4e:	431a      	orrs	r2, r3
 8000c50:	2e00      	cmp	r6, #0
 8000c52:	d000      	beq.n	8000c56 <__aeabi_dsub+0x2a6>
 8000c54:	e15c      	b.n	8000f10 <__aeabi_dsub+0x560>
 8000c56:	2a00      	cmp	r2, #0
 8000c58:	d100      	bne.n	8000c5c <__aeabi_dsub+0x2ac>
 8000c5a:	e1cf      	b.n	8000ffc <__aeabi_dsub+0x64c>
 8000c5c:	003a      	movs	r2, r7
 8000c5e:	4302      	orrs	r2, r0
 8000c60:	d100      	bne.n	8000c64 <__aeabi_dsub+0x2b4>
 8000c62:	e17f      	b.n	8000f64 <__aeabi_dsub+0x5b4>
 8000c64:	1a1c      	subs	r4, r3, r0
 8000c66:	464a      	mov	r2, r9
 8000c68:	42a3      	cmp	r3, r4
 8000c6a:	4189      	sbcs	r1, r1
 8000c6c:	1bd2      	subs	r2, r2, r7
 8000c6e:	4249      	negs	r1, r1
 8000c70:	1a52      	subs	r2, r2, r1
 8000c72:	4692      	mov	sl, r2
 8000c74:	0212      	lsls	r2, r2, #8
 8000c76:	d400      	bmi.n	8000c7a <__aeabi_dsub+0x2ca>
 8000c78:	e20a      	b.n	8001090 <__aeabi_dsub+0x6e0>
 8000c7a:	1ac4      	subs	r4, r0, r3
 8000c7c:	42a0      	cmp	r0, r4
 8000c7e:	4180      	sbcs	r0, r0
 8000c80:	464b      	mov	r3, r9
 8000c82:	4240      	negs	r0, r0
 8000c84:	1aff      	subs	r7, r7, r3
 8000c86:	1a3b      	subs	r3, r7, r0
 8000c88:	469a      	mov	sl, r3
 8000c8a:	465d      	mov	r5, fp
 8000c8c:	e71a      	b.n	8000ac4 <__aeabi_dsub+0x114>
 8000c8e:	003a      	movs	r2, r7
 8000c90:	4302      	orrs	r2, r0
 8000c92:	d073      	beq.n	8000d7c <__aeabi_dsub+0x3cc>
 8000c94:	0022      	movs	r2, r4
 8000c96:	3a01      	subs	r2, #1
 8000c98:	2c01      	cmp	r4, #1
 8000c9a:	d100      	bne.n	8000c9e <__aeabi_dsub+0x2ee>
 8000c9c:	e0cb      	b.n	8000e36 <__aeabi_dsub+0x486>
 8000c9e:	4554      	cmp	r4, sl
 8000ca0:	d042      	beq.n	8000d28 <__aeabi_dsub+0x378>
 8000ca2:	4694      	mov	ip, r2
 8000ca4:	e748      	b.n	8000b38 <__aeabi_dsub+0x188>
 8000ca6:	0010      	movs	r0, r2
 8000ca8:	3b1f      	subs	r3, #31
 8000caa:	40d8      	lsrs	r0, r3
 8000cac:	2920      	cmp	r1, #32
 8000cae:	d003      	beq.n	8000cb8 <__aeabi_dsub+0x308>
 8000cb0:	2340      	movs	r3, #64	; 0x40
 8000cb2:	1a5b      	subs	r3, r3, r1
 8000cb4:	409a      	lsls	r2, r3
 8000cb6:	4314      	orrs	r4, r2
 8000cb8:	1e63      	subs	r3, r4, #1
 8000cba:	419c      	sbcs	r4, r3
 8000cbc:	2300      	movs	r3, #0
 8000cbe:	2600      	movs	r6, #0
 8000cc0:	469a      	mov	sl, r3
 8000cc2:	4304      	orrs	r4, r0
 8000cc4:	0763      	lsls	r3, r4, #29
 8000cc6:	d000      	beq.n	8000cca <__aeabi_dsub+0x31a>
 8000cc8:	e6fe      	b.n	8000ac8 <__aeabi_dsub+0x118>
 8000cca:	4652      	mov	r2, sl
 8000ccc:	08e3      	lsrs	r3, r4, #3
 8000cce:	0752      	lsls	r2, r2, #29
 8000cd0:	4313      	orrs	r3, r2
 8000cd2:	4652      	mov	r2, sl
 8000cd4:	46b4      	mov	ip, r6
 8000cd6:	08d2      	lsrs	r2, r2, #3
 8000cd8:	490f      	ldr	r1, [pc, #60]	; (8000d18 <__aeabi_dsub+0x368>)
 8000cda:	458c      	cmp	ip, r1
 8000cdc:	d02a      	beq.n	8000d34 <__aeabi_dsub+0x384>
 8000cde:	0312      	lsls	r2, r2, #12
 8000ce0:	0b14      	lsrs	r4, r2, #12
 8000ce2:	4662      	mov	r2, ip
 8000ce4:	0552      	lsls	r2, r2, #21
 8000ce6:	0d52      	lsrs	r2, r2, #21
 8000ce8:	e70c      	b.n	8000b04 <__aeabi_dsub+0x154>
 8000cea:	003c      	movs	r4, r7
 8000cec:	4304      	orrs	r4, r0
 8000cee:	1e62      	subs	r2, r4, #1
 8000cf0:	4194      	sbcs	r4, r2
 8000cf2:	18e4      	adds	r4, r4, r3
 8000cf4:	429c      	cmp	r4, r3
 8000cf6:	4192      	sbcs	r2, r2
 8000cf8:	4252      	negs	r2, r2
 8000cfa:	444a      	add	r2, r9
 8000cfc:	4692      	mov	sl, r2
 8000cfe:	4653      	mov	r3, sl
 8000d00:	021b      	lsls	r3, r3, #8
 8000d02:	d5df      	bpl.n	8000cc4 <__aeabi_dsub+0x314>
 8000d04:	4b04      	ldr	r3, [pc, #16]	; (8000d18 <__aeabi_dsub+0x368>)
 8000d06:	3601      	adds	r6, #1
 8000d08:	429e      	cmp	r6, r3
 8000d0a:	d000      	beq.n	8000d0e <__aeabi_dsub+0x35e>
 8000d0c:	e0a0      	b.n	8000e50 <__aeabi_dsub+0x4a0>
 8000d0e:	0032      	movs	r2, r6
 8000d10:	2400      	movs	r4, #0
 8000d12:	2300      	movs	r3, #0
 8000d14:	e6f6      	b.n	8000b04 <__aeabi_dsub+0x154>
 8000d16:	46c0      	nop			; (mov r8, r8)
 8000d18:	000007ff 	.word	0x000007ff
 8000d1c:	ff7fffff 	.word	0xff7fffff
 8000d20:	fffff801 	.word	0xfffff801
 8000d24:	000007fe 	.word	0x000007fe
 8000d28:	08db      	lsrs	r3, r3, #3
 8000d2a:	464a      	mov	r2, r9
 8000d2c:	0752      	lsls	r2, r2, #29
 8000d2e:	4313      	orrs	r3, r2
 8000d30:	464a      	mov	r2, r9
 8000d32:	08d2      	lsrs	r2, r2, #3
 8000d34:	0019      	movs	r1, r3
 8000d36:	4311      	orrs	r1, r2
 8000d38:	d100      	bne.n	8000d3c <__aeabi_dsub+0x38c>
 8000d3a:	e1b5      	b.n	80010a8 <__aeabi_dsub+0x6f8>
 8000d3c:	2480      	movs	r4, #128	; 0x80
 8000d3e:	0324      	lsls	r4, r4, #12
 8000d40:	4314      	orrs	r4, r2
 8000d42:	0324      	lsls	r4, r4, #12
 8000d44:	4ad5      	ldr	r2, [pc, #852]	; (800109c <__aeabi_dsub+0x6ec>)
 8000d46:	0b24      	lsrs	r4, r4, #12
 8000d48:	e6dc      	b.n	8000b04 <__aeabi_dsub+0x154>
 8000d4a:	0020      	movs	r0, r4
 8000d4c:	f000 fa4c 	bl	80011e8 <__clzsi2>
 8000d50:	0003      	movs	r3, r0
 8000d52:	3318      	adds	r3, #24
 8000d54:	2b1f      	cmp	r3, #31
 8000d56:	dc00      	bgt.n	8000d5a <__aeabi_dsub+0x3aa>
 8000d58:	e695      	b.n	8000a86 <__aeabi_dsub+0xd6>
 8000d5a:	0022      	movs	r2, r4
 8000d5c:	3808      	subs	r0, #8
 8000d5e:	4082      	lsls	r2, r0
 8000d60:	2400      	movs	r4, #0
 8000d62:	429e      	cmp	r6, r3
 8000d64:	dc00      	bgt.n	8000d68 <__aeabi_dsub+0x3b8>
 8000d66:	e69a      	b.n	8000a9e <__aeabi_dsub+0xee>
 8000d68:	1af6      	subs	r6, r6, r3
 8000d6a:	4bcd      	ldr	r3, [pc, #820]	; (80010a0 <__aeabi_dsub+0x6f0>)
 8000d6c:	401a      	ands	r2, r3
 8000d6e:	4692      	mov	sl, r2
 8000d70:	e6a8      	b.n	8000ac4 <__aeabi_dsub+0x114>
 8000d72:	003c      	movs	r4, r7
 8000d74:	4304      	orrs	r4, r0
 8000d76:	1e62      	subs	r2, r4, #1
 8000d78:	4194      	sbcs	r4, r2
 8000d7a:	e66c      	b.n	8000a56 <__aeabi_dsub+0xa6>
 8000d7c:	464a      	mov	r2, r9
 8000d7e:	08db      	lsrs	r3, r3, #3
 8000d80:	0752      	lsls	r2, r2, #29
 8000d82:	4313      	orrs	r3, r2
 8000d84:	464a      	mov	r2, r9
 8000d86:	08d2      	lsrs	r2, r2, #3
 8000d88:	e7a6      	b.n	8000cd8 <__aeabi_dsub+0x328>
 8000d8a:	4cc6      	ldr	r4, [pc, #792]	; (80010a4 <__aeabi_dsub+0x6f4>)
 8000d8c:	1c72      	adds	r2, r6, #1
 8000d8e:	4222      	tst	r2, r4
 8000d90:	d000      	beq.n	8000d94 <__aeabi_dsub+0x3e4>
 8000d92:	e0ac      	b.n	8000eee <__aeabi_dsub+0x53e>
 8000d94:	464a      	mov	r2, r9
 8000d96:	431a      	orrs	r2, r3
 8000d98:	2e00      	cmp	r6, #0
 8000d9a:	d000      	beq.n	8000d9e <__aeabi_dsub+0x3ee>
 8000d9c:	e105      	b.n	8000faa <__aeabi_dsub+0x5fa>
 8000d9e:	2a00      	cmp	r2, #0
 8000da0:	d100      	bne.n	8000da4 <__aeabi_dsub+0x3f4>
 8000da2:	e156      	b.n	8001052 <__aeabi_dsub+0x6a2>
 8000da4:	003a      	movs	r2, r7
 8000da6:	4302      	orrs	r2, r0
 8000da8:	d100      	bne.n	8000dac <__aeabi_dsub+0x3fc>
 8000daa:	e0db      	b.n	8000f64 <__aeabi_dsub+0x5b4>
 8000dac:	181c      	adds	r4, r3, r0
 8000dae:	429c      	cmp	r4, r3
 8000db0:	419b      	sbcs	r3, r3
 8000db2:	444f      	add	r7, r9
 8000db4:	46ba      	mov	sl, r7
 8000db6:	425b      	negs	r3, r3
 8000db8:	449a      	add	sl, r3
 8000dba:	4653      	mov	r3, sl
 8000dbc:	021b      	lsls	r3, r3, #8
 8000dbe:	d400      	bmi.n	8000dc2 <__aeabi_dsub+0x412>
 8000dc0:	e780      	b.n	8000cc4 <__aeabi_dsub+0x314>
 8000dc2:	4652      	mov	r2, sl
 8000dc4:	4bb6      	ldr	r3, [pc, #728]	; (80010a0 <__aeabi_dsub+0x6f0>)
 8000dc6:	2601      	movs	r6, #1
 8000dc8:	401a      	ands	r2, r3
 8000dca:	4692      	mov	sl, r2
 8000dcc:	e77a      	b.n	8000cc4 <__aeabi_dsub+0x314>
 8000dce:	4cb3      	ldr	r4, [pc, #716]	; (800109c <__aeabi_dsub+0x6ec>)
 8000dd0:	42a2      	cmp	r2, r4
 8000dd2:	d100      	bne.n	8000dd6 <__aeabi_dsub+0x426>
 8000dd4:	e0c0      	b.n	8000f58 <__aeabi_dsub+0x5a8>
 8000dd6:	2480      	movs	r4, #128	; 0x80
 8000dd8:	464d      	mov	r5, r9
 8000dda:	0424      	lsls	r4, r4, #16
 8000ddc:	4325      	orrs	r5, r4
 8000dde:	46a9      	mov	r9, r5
 8000de0:	4664      	mov	r4, ip
 8000de2:	2c38      	cmp	r4, #56	; 0x38
 8000de4:	dc53      	bgt.n	8000e8e <__aeabi_dsub+0x4de>
 8000de6:	4661      	mov	r1, ip
 8000de8:	2c1f      	cmp	r4, #31
 8000dea:	dd00      	ble.n	8000dee <__aeabi_dsub+0x43e>
 8000dec:	e0cd      	b.n	8000f8a <__aeabi_dsub+0x5da>
 8000dee:	2520      	movs	r5, #32
 8000df0:	001e      	movs	r6, r3
 8000df2:	1b2d      	subs	r5, r5, r4
 8000df4:	464c      	mov	r4, r9
 8000df6:	40ab      	lsls	r3, r5
 8000df8:	40ac      	lsls	r4, r5
 8000dfa:	40ce      	lsrs	r6, r1
 8000dfc:	1e5d      	subs	r5, r3, #1
 8000dfe:	41ab      	sbcs	r3, r5
 8000e00:	4334      	orrs	r4, r6
 8000e02:	4323      	orrs	r3, r4
 8000e04:	464c      	mov	r4, r9
 8000e06:	40cc      	lsrs	r4, r1
 8000e08:	1b3f      	subs	r7, r7, r4
 8000e0a:	e045      	b.n	8000e98 <__aeabi_dsub+0x4e8>
 8000e0c:	464a      	mov	r2, r9
 8000e0e:	1a1c      	subs	r4, r3, r0
 8000e10:	1bd1      	subs	r1, r2, r7
 8000e12:	42a3      	cmp	r3, r4
 8000e14:	4192      	sbcs	r2, r2
 8000e16:	4252      	negs	r2, r2
 8000e18:	4692      	mov	sl, r2
 8000e1a:	000a      	movs	r2, r1
 8000e1c:	4651      	mov	r1, sl
 8000e1e:	1a52      	subs	r2, r2, r1
 8000e20:	4692      	mov	sl, r2
 8000e22:	0212      	lsls	r2, r2, #8
 8000e24:	d500      	bpl.n	8000e28 <__aeabi_dsub+0x478>
 8000e26:	e083      	b.n	8000f30 <__aeabi_dsub+0x580>
 8000e28:	4653      	mov	r3, sl
 8000e2a:	4323      	orrs	r3, r4
 8000e2c:	d000      	beq.n	8000e30 <__aeabi_dsub+0x480>
 8000e2e:	e621      	b.n	8000a74 <__aeabi_dsub+0xc4>
 8000e30:	2200      	movs	r2, #0
 8000e32:	2500      	movs	r5, #0
 8000e34:	e753      	b.n	8000cde <__aeabi_dsub+0x32e>
 8000e36:	181c      	adds	r4, r3, r0
 8000e38:	429c      	cmp	r4, r3
 8000e3a:	419b      	sbcs	r3, r3
 8000e3c:	444f      	add	r7, r9
 8000e3e:	46ba      	mov	sl, r7
 8000e40:	425b      	negs	r3, r3
 8000e42:	449a      	add	sl, r3
 8000e44:	4653      	mov	r3, sl
 8000e46:	2601      	movs	r6, #1
 8000e48:	021b      	lsls	r3, r3, #8
 8000e4a:	d400      	bmi.n	8000e4e <__aeabi_dsub+0x49e>
 8000e4c:	e73a      	b.n	8000cc4 <__aeabi_dsub+0x314>
 8000e4e:	2602      	movs	r6, #2
 8000e50:	4652      	mov	r2, sl
 8000e52:	4b93      	ldr	r3, [pc, #588]	; (80010a0 <__aeabi_dsub+0x6f0>)
 8000e54:	2101      	movs	r1, #1
 8000e56:	401a      	ands	r2, r3
 8000e58:	0013      	movs	r3, r2
 8000e5a:	4021      	ands	r1, r4
 8000e5c:	0862      	lsrs	r2, r4, #1
 8000e5e:	430a      	orrs	r2, r1
 8000e60:	07dc      	lsls	r4, r3, #31
 8000e62:	085b      	lsrs	r3, r3, #1
 8000e64:	469a      	mov	sl, r3
 8000e66:	4314      	orrs	r4, r2
 8000e68:	e62c      	b.n	8000ac4 <__aeabi_dsub+0x114>
 8000e6a:	0039      	movs	r1, r7
 8000e6c:	3a20      	subs	r2, #32
 8000e6e:	40d1      	lsrs	r1, r2
 8000e70:	4662      	mov	r2, ip
 8000e72:	2a20      	cmp	r2, #32
 8000e74:	d006      	beq.n	8000e84 <__aeabi_dsub+0x4d4>
 8000e76:	4664      	mov	r4, ip
 8000e78:	2240      	movs	r2, #64	; 0x40
 8000e7a:	1b12      	subs	r2, r2, r4
 8000e7c:	003c      	movs	r4, r7
 8000e7e:	4094      	lsls	r4, r2
 8000e80:	4304      	orrs	r4, r0
 8000e82:	9401      	str	r4, [sp, #4]
 8000e84:	9c01      	ldr	r4, [sp, #4]
 8000e86:	1e62      	subs	r2, r4, #1
 8000e88:	4194      	sbcs	r4, r2
 8000e8a:	430c      	orrs	r4, r1
 8000e8c:	e5e3      	b.n	8000a56 <__aeabi_dsub+0xa6>
 8000e8e:	4649      	mov	r1, r9
 8000e90:	4319      	orrs	r1, r3
 8000e92:	000b      	movs	r3, r1
 8000e94:	1e5c      	subs	r4, r3, #1
 8000e96:	41a3      	sbcs	r3, r4
 8000e98:	1ac4      	subs	r4, r0, r3
 8000e9a:	42a0      	cmp	r0, r4
 8000e9c:	419b      	sbcs	r3, r3
 8000e9e:	425b      	negs	r3, r3
 8000ea0:	1afb      	subs	r3, r7, r3
 8000ea2:	469a      	mov	sl, r3
 8000ea4:	465d      	mov	r5, fp
 8000ea6:	0016      	movs	r6, r2
 8000ea8:	e5dc      	b.n	8000a64 <__aeabi_dsub+0xb4>
 8000eaa:	4649      	mov	r1, r9
 8000eac:	4319      	orrs	r1, r3
 8000eae:	d100      	bne.n	8000eb2 <__aeabi_dsub+0x502>
 8000eb0:	e0ae      	b.n	8001010 <__aeabi_dsub+0x660>
 8000eb2:	4661      	mov	r1, ip
 8000eb4:	4664      	mov	r4, ip
 8000eb6:	3901      	subs	r1, #1
 8000eb8:	2c01      	cmp	r4, #1
 8000eba:	d100      	bne.n	8000ebe <__aeabi_dsub+0x50e>
 8000ebc:	e0e0      	b.n	8001080 <__aeabi_dsub+0x6d0>
 8000ebe:	4c77      	ldr	r4, [pc, #476]	; (800109c <__aeabi_dsub+0x6ec>)
 8000ec0:	45a4      	cmp	ip, r4
 8000ec2:	d056      	beq.n	8000f72 <__aeabi_dsub+0x5c2>
 8000ec4:	468c      	mov	ip, r1
 8000ec6:	e69a      	b.n	8000bfe <__aeabi_dsub+0x24e>
 8000ec8:	4661      	mov	r1, ip
 8000eca:	2220      	movs	r2, #32
 8000ecc:	003c      	movs	r4, r7
 8000ece:	1a52      	subs	r2, r2, r1
 8000ed0:	4094      	lsls	r4, r2
 8000ed2:	0001      	movs	r1, r0
 8000ed4:	4090      	lsls	r0, r2
 8000ed6:	46a0      	mov	r8, r4
 8000ed8:	4664      	mov	r4, ip
 8000eda:	1e42      	subs	r2, r0, #1
 8000edc:	4190      	sbcs	r0, r2
 8000ede:	4662      	mov	r2, ip
 8000ee0:	40e1      	lsrs	r1, r4
 8000ee2:	4644      	mov	r4, r8
 8000ee4:	40d7      	lsrs	r7, r2
 8000ee6:	430c      	orrs	r4, r1
 8000ee8:	4304      	orrs	r4, r0
 8000eea:	44b9      	add	r9, r7
 8000eec:	e701      	b.n	8000cf2 <__aeabi_dsub+0x342>
 8000eee:	496b      	ldr	r1, [pc, #428]	; (800109c <__aeabi_dsub+0x6ec>)
 8000ef0:	428a      	cmp	r2, r1
 8000ef2:	d100      	bne.n	8000ef6 <__aeabi_dsub+0x546>
 8000ef4:	e70c      	b.n	8000d10 <__aeabi_dsub+0x360>
 8000ef6:	1818      	adds	r0, r3, r0
 8000ef8:	4298      	cmp	r0, r3
 8000efa:	419b      	sbcs	r3, r3
 8000efc:	444f      	add	r7, r9
 8000efe:	425b      	negs	r3, r3
 8000f00:	18fb      	adds	r3, r7, r3
 8000f02:	07dc      	lsls	r4, r3, #31
 8000f04:	0840      	lsrs	r0, r0, #1
 8000f06:	085b      	lsrs	r3, r3, #1
 8000f08:	469a      	mov	sl, r3
 8000f0a:	0016      	movs	r6, r2
 8000f0c:	4304      	orrs	r4, r0
 8000f0e:	e6d9      	b.n	8000cc4 <__aeabi_dsub+0x314>
 8000f10:	2a00      	cmp	r2, #0
 8000f12:	d000      	beq.n	8000f16 <__aeabi_dsub+0x566>
 8000f14:	e081      	b.n	800101a <__aeabi_dsub+0x66a>
 8000f16:	003b      	movs	r3, r7
 8000f18:	4303      	orrs	r3, r0
 8000f1a:	d11d      	bne.n	8000f58 <__aeabi_dsub+0x5a8>
 8000f1c:	2280      	movs	r2, #128	; 0x80
 8000f1e:	2500      	movs	r5, #0
 8000f20:	0312      	lsls	r2, r2, #12
 8000f22:	e70b      	b.n	8000d3c <__aeabi_dsub+0x38c>
 8000f24:	08c0      	lsrs	r0, r0, #3
 8000f26:	077b      	lsls	r3, r7, #29
 8000f28:	465d      	mov	r5, fp
 8000f2a:	4303      	orrs	r3, r0
 8000f2c:	08fa      	lsrs	r2, r7, #3
 8000f2e:	e6d3      	b.n	8000cd8 <__aeabi_dsub+0x328>
 8000f30:	1ac4      	subs	r4, r0, r3
 8000f32:	42a0      	cmp	r0, r4
 8000f34:	4180      	sbcs	r0, r0
 8000f36:	464b      	mov	r3, r9
 8000f38:	4240      	negs	r0, r0
 8000f3a:	1aff      	subs	r7, r7, r3
 8000f3c:	1a3b      	subs	r3, r7, r0
 8000f3e:	469a      	mov	sl, r3
 8000f40:	465d      	mov	r5, fp
 8000f42:	e597      	b.n	8000a74 <__aeabi_dsub+0xc4>
 8000f44:	1a1c      	subs	r4, r3, r0
 8000f46:	464a      	mov	r2, r9
 8000f48:	42a3      	cmp	r3, r4
 8000f4a:	419b      	sbcs	r3, r3
 8000f4c:	1bd7      	subs	r7, r2, r7
 8000f4e:	425b      	negs	r3, r3
 8000f50:	1afb      	subs	r3, r7, r3
 8000f52:	469a      	mov	sl, r3
 8000f54:	2601      	movs	r6, #1
 8000f56:	e585      	b.n	8000a64 <__aeabi_dsub+0xb4>
 8000f58:	08c0      	lsrs	r0, r0, #3
 8000f5a:	077b      	lsls	r3, r7, #29
 8000f5c:	465d      	mov	r5, fp
 8000f5e:	4303      	orrs	r3, r0
 8000f60:	08fa      	lsrs	r2, r7, #3
 8000f62:	e6e7      	b.n	8000d34 <__aeabi_dsub+0x384>
 8000f64:	464a      	mov	r2, r9
 8000f66:	08db      	lsrs	r3, r3, #3
 8000f68:	0752      	lsls	r2, r2, #29
 8000f6a:	4313      	orrs	r3, r2
 8000f6c:	464a      	mov	r2, r9
 8000f6e:	08d2      	lsrs	r2, r2, #3
 8000f70:	e6b5      	b.n	8000cde <__aeabi_dsub+0x32e>
 8000f72:	08c0      	lsrs	r0, r0, #3
 8000f74:	077b      	lsls	r3, r7, #29
 8000f76:	4303      	orrs	r3, r0
 8000f78:	08fa      	lsrs	r2, r7, #3
 8000f7a:	e6db      	b.n	8000d34 <__aeabi_dsub+0x384>
 8000f7c:	4649      	mov	r1, r9
 8000f7e:	4319      	orrs	r1, r3
 8000f80:	000b      	movs	r3, r1
 8000f82:	1e59      	subs	r1, r3, #1
 8000f84:	418b      	sbcs	r3, r1
 8000f86:	001c      	movs	r4, r3
 8000f88:	e653      	b.n	8000c32 <__aeabi_dsub+0x282>
 8000f8a:	464d      	mov	r5, r9
 8000f8c:	3c20      	subs	r4, #32
 8000f8e:	40e5      	lsrs	r5, r4
 8000f90:	2920      	cmp	r1, #32
 8000f92:	d005      	beq.n	8000fa0 <__aeabi_dsub+0x5f0>
 8000f94:	2440      	movs	r4, #64	; 0x40
 8000f96:	1a64      	subs	r4, r4, r1
 8000f98:	4649      	mov	r1, r9
 8000f9a:	40a1      	lsls	r1, r4
 8000f9c:	430b      	orrs	r3, r1
 8000f9e:	4698      	mov	r8, r3
 8000fa0:	4643      	mov	r3, r8
 8000fa2:	1e5c      	subs	r4, r3, #1
 8000fa4:	41a3      	sbcs	r3, r4
 8000fa6:	432b      	orrs	r3, r5
 8000fa8:	e776      	b.n	8000e98 <__aeabi_dsub+0x4e8>
 8000faa:	2a00      	cmp	r2, #0
 8000fac:	d0e1      	beq.n	8000f72 <__aeabi_dsub+0x5c2>
 8000fae:	003a      	movs	r2, r7
 8000fb0:	08db      	lsrs	r3, r3, #3
 8000fb2:	4302      	orrs	r2, r0
 8000fb4:	d100      	bne.n	8000fb8 <__aeabi_dsub+0x608>
 8000fb6:	e6b8      	b.n	8000d2a <__aeabi_dsub+0x37a>
 8000fb8:	464a      	mov	r2, r9
 8000fba:	0752      	lsls	r2, r2, #29
 8000fbc:	2480      	movs	r4, #128	; 0x80
 8000fbe:	4313      	orrs	r3, r2
 8000fc0:	464a      	mov	r2, r9
 8000fc2:	0324      	lsls	r4, r4, #12
 8000fc4:	08d2      	lsrs	r2, r2, #3
 8000fc6:	4222      	tst	r2, r4
 8000fc8:	d007      	beq.n	8000fda <__aeabi_dsub+0x62a>
 8000fca:	08fe      	lsrs	r6, r7, #3
 8000fcc:	4226      	tst	r6, r4
 8000fce:	d104      	bne.n	8000fda <__aeabi_dsub+0x62a>
 8000fd0:	465d      	mov	r5, fp
 8000fd2:	0032      	movs	r2, r6
 8000fd4:	08c3      	lsrs	r3, r0, #3
 8000fd6:	077f      	lsls	r7, r7, #29
 8000fd8:	433b      	orrs	r3, r7
 8000fda:	0f59      	lsrs	r1, r3, #29
 8000fdc:	00db      	lsls	r3, r3, #3
 8000fde:	0749      	lsls	r1, r1, #29
 8000fe0:	08db      	lsrs	r3, r3, #3
 8000fe2:	430b      	orrs	r3, r1
 8000fe4:	e6a6      	b.n	8000d34 <__aeabi_dsub+0x384>
 8000fe6:	1ac4      	subs	r4, r0, r3
 8000fe8:	42a0      	cmp	r0, r4
 8000fea:	4180      	sbcs	r0, r0
 8000fec:	464b      	mov	r3, r9
 8000fee:	4240      	negs	r0, r0
 8000ff0:	1aff      	subs	r7, r7, r3
 8000ff2:	1a3b      	subs	r3, r7, r0
 8000ff4:	469a      	mov	sl, r3
 8000ff6:	465d      	mov	r5, fp
 8000ff8:	2601      	movs	r6, #1
 8000ffa:	e533      	b.n	8000a64 <__aeabi_dsub+0xb4>
 8000ffc:	003b      	movs	r3, r7
 8000ffe:	4303      	orrs	r3, r0
 8001000:	d100      	bne.n	8001004 <__aeabi_dsub+0x654>
 8001002:	e715      	b.n	8000e30 <__aeabi_dsub+0x480>
 8001004:	08c0      	lsrs	r0, r0, #3
 8001006:	077b      	lsls	r3, r7, #29
 8001008:	465d      	mov	r5, fp
 800100a:	4303      	orrs	r3, r0
 800100c:	08fa      	lsrs	r2, r7, #3
 800100e:	e666      	b.n	8000cde <__aeabi_dsub+0x32e>
 8001010:	08c0      	lsrs	r0, r0, #3
 8001012:	077b      	lsls	r3, r7, #29
 8001014:	4303      	orrs	r3, r0
 8001016:	08fa      	lsrs	r2, r7, #3
 8001018:	e65e      	b.n	8000cd8 <__aeabi_dsub+0x328>
 800101a:	003a      	movs	r2, r7
 800101c:	08db      	lsrs	r3, r3, #3
 800101e:	4302      	orrs	r2, r0
 8001020:	d100      	bne.n	8001024 <__aeabi_dsub+0x674>
 8001022:	e682      	b.n	8000d2a <__aeabi_dsub+0x37a>
 8001024:	464a      	mov	r2, r9
 8001026:	0752      	lsls	r2, r2, #29
 8001028:	2480      	movs	r4, #128	; 0x80
 800102a:	4313      	orrs	r3, r2
 800102c:	464a      	mov	r2, r9
 800102e:	0324      	lsls	r4, r4, #12
 8001030:	08d2      	lsrs	r2, r2, #3
 8001032:	4222      	tst	r2, r4
 8001034:	d007      	beq.n	8001046 <__aeabi_dsub+0x696>
 8001036:	08fe      	lsrs	r6, r7, #3
 8001038:	4226      	tst	r6, r4
 800103a:	d104      	bne.n	8001046 <__aeabi_dsub+0x696>
 800103c:	465d      	mov	r5, fp
 800103e:	0032      	movs	r2, r6
 8001040:	08c3      	lsrs	r3, r0, #3
 8001042:	077f      	lsls	r7, r7, #29
 8001044:	433b      	orrs	r3, r7
 8001046:	0f59      	lsrs	r1, r3, #29
 8001048:	00db      	lsls	r3, r3, #3
 800104a:	08db      	lsrs	r3, r3, #3
 800104c:	0749      	lsls	r1, r1, #29
 800104e:	430b      	orrs	r3, r1
 8001050:	e670      	b.n	8000d34 <__aeabi_dsub+0x384>
 8001052:	08c0      	lsrs	r0, r0, #3
 8001054:	077b      	lsls	r3, r7, #29
 8001056:	4303      	orrs	r3, r0
 8001058:	08fa      	lsrs	r2, r7, #3
 800105a:	e640      	b.n	8000cde <__aeabi_dsub+0x32e>
 800105c:	464c      	mov	r4, r9
 800105e:	3920      	subs	r1, #32
 8001060:	40cc      	lsrs	r4, r1
 8001062:	4661      	mov	r1, ip
 8001064:	2920      	cmp	r1, #32
 8001066:	d006      	beq.n	8001076 <__aeabi_dsub+0x6c6>
 8001068:	4666      	mov	r6, ip
 800106a:	2140      	movs	r1, #64	; 0x40
 800106c:	1b89      	subs	r1, r1, r6
 800106e:	464e      	mov	r6, r9
 8001070:	408e      	lsls	r6, r1
 8001072:	4333      	orrs	r3, r6
 8001074:	4698      	mov	r8, r3
 8001076:	4643      	mov	r3, r8
 8001078:	1e59      	subs	r1, r3, #1
 800107a:	418b      	sbcs	r3, r1
 800107c:	431c      	orrs	r4, r3
 800107e:	e5d8      	b.n	8000c32 <__aeabi_dsub+0x282>
 8001080:	181c      	adds	r4, r3, r0
 8001082:	4284      	cmp	r4, r0
 8001084:	4180      	sbcs	r0, r0
 8001086:	444f      	add	r7, r9
 8001088:	46ba      	mov	sl, r7
 800108a:	4240      	negs	r0, r0
 800108c:	4482      	add	sl, r0
 800108e:	e6d9      	b.n	8000e44 <__aeabi_dsub+0x494>
 8001090:	4653      	mov	r3, sl
 8001092:	4323      	orrs	r3, r4
 8001094:	d100      	bne.n	8001098 <__aeabi_dsub+0x6e8>
 8001096:	e6cb      	b.n	8000e30 <__aeabi_dsub+0x480>
 8001098:	e614      	b.n	8000cc4 <__aeabi_dsub+0x314>
 800109a:	46c0      	nop			; (mov r8, r8)
 800109c:	000007ff 	.word	0x000007ff
 80010a0:	ff7fffff 	.word	0xff7fffff
 80010a4:	000007fe 	.word	0x000007fe
 80010a8:	2300      	movs	r3, #0
 80010aa:	4a01      	ldr	r2, [pc, #4]	; (80010b0 <__aeabi_dsub+0x700>)
 80010ac:	001c      	movs	r4, r3
 80010ae:	e529      	b.n	8000b04 <__aeabi_dsub+0x154>
 80010b0:	000007ff 	.word	0x000007ff

080010b4 <__aeabi_d2iz>:
 80010b4:	000a      	movs	r2, r1
 80010b6:	b530      	push	{r4, r5, lr}
 80010b8:	4c13      	ldr	r4, [pc, #76]	; (8001108 <__aeabi_d2iz+0x54>)
 80010ba:	0053      	lsls	r3, r2, #1
 80010bc:	0309      	lsls	r1, r1, #12
 80010be:	0005      	movs	r5, r0
 80010c0:	0b09      	lsrs	r1, r1, #12
 80010c2:	2000      	movs	r0, #0
 80010c4:	0d5b      	lsrs	r3, r3, #21
 80010c6:	0fd2      	lsrs	r2, r2, #31
 80010c8:	42a3      	cmp	r3, r4
 80010ca:	dd04      	ble.n	80010d6 <__aeabi_d2iz+0x22>
 80010cc:	480f      	ldr	r0, [pc, #60]	; (800110c <__aeabi_d2iz+0x58>)
 80010ce:	4283      	cmp	r3, r0
 80010d0:	dd02      	ble.n	80010d8 <__aeabi_d2iz+0x24>
 80010d2:	4b0f      	ldr	r3, [pc, #60]	; (8001110 <__aeabi_d2iz+0x5c>)
 80010d4:	18d0      	adds	r0, r2, r3
 80010d6:	bd30      	pop	{r4, r5, pc}
 80010d8:	2080      	movs	r0, #128	; 0x80
 80010da:	0340      	lsls	r0, r0, #13
 80010dc:	4301      	orrs	r1, r0
 80010de:	480d      	ldr	r0, [pc, #52]	; (8001114 <__aeabi_d2iz+0x60>)
 80010e0:	1ac0      	subs	r0, r0, r3
 80010e2:	281f      	cmp	r0, #31
 80010e4:	dd08      	ble.n	80010f8 <__aeabi_d2iz+0x44>
 80010e6:	480c      	ldr	r0, [pc, #48]	; (8001118 <__aeabi_d2iz+0x64>)
 80010e8:	1ac3      	subs	r3, r0, r3
 80010ea:	40d9      	lsrs	r1, r3
 80010ec:	000b      	movs	r3, r1
 80010ee:	4258      	negs	r0, r3
 80010f0:	2a00      	cmp	r2, #0
 80010f2:	d1f0      	bne.n	80010d6 <__aeabi_d2iz+0x22>
 80010f4:	0018      	movs	r0, r3
 80010f6:	e7ee      	b.n	80010d6 <__aeabi_d2iz+0x22>
 80010f8:	4c08      	ldr	r4, [pc, #32]	; (800111c <__aeabi_d2iz+0x68>)
 80010fa:	40c5      	lsrs	r5, r0
 80010fc:	46a4      	mov	ip, r4
 80010fe:	4463      	add	r3, ip
 8001100:	4099      	lsls	r1, r3
 8001102:	000b      	movs	r3, r1
 8001104:	432b      	orrs	r3, r5
 8001106:	e7f2      	b.n	80010ee <__aeabi_d2iz+0x3a>
 8001108:	000003fe 	.word	0x000003fe
 800110c:	0000041d 	.word	0x0000041d
 8001110:	7fffffff 	.word	0x7fffffff
 8001114:	00000433 	.word	0x00000433
 8001118:	00000413 	.word	0x00000413
 800111c:	fffffbed 	.word	0xfffffbed

08001120 <__aeabi_ui2d>:
 8001120:	b510      	push	{r4, lr}
 8001122:	1e04      	subs	r4, r0, #0
 8001124:	d010      	beq.n	8001148 <__aeabi_ui2d+0x28>
 8001126:	f000 f85f 	bl	80011e8 <__clzsi2>
 800112a:	4b0f      	ldr	r3, [pc, #60]	; (8001168 <__aeabi_ui2d+0x48>)
 800112c:	1a1b      	subs	r3, r3, r0
 800112e:	280a      	cmp	r0, #10
 8001130:	dc11      	bgt.n	8001156 <__aeabi_ui2d+0x36>
 8001132:	220b      	movs	r2, #11
 8001134:	0021      	movs	r1, r4
 8001136:	1a12      	subs	r2, r2, r0
 8001138:	40d1      	lsrs	r1, r2
 800113a:	3015      	adds	r0, #21
 800113c:	030a      	lsls	r2, r1, #12
 800113e:	055b      	lsls	r3, r3, #21
 8001140:	4084      	lsls	r4, r0
 8001142:	0b12      	lsrs	r2, r2, #12
 8001144:	0d5b      	lsrs	r3, r3, #21
 8001146:	e001      	b.n	800114c <__aeabi_ui2d+0x2c>
 8001148:	2300      	movs	r3, #0
 800114a:	2200      	movs	r2, #0
 800114c:	051b      	lsls	r3, r3, #20
 800114e:	4313      	orrs	r3, r2
 8001150:	0020      	movs	r0, r4
 8001152:	0019      	movs	r1, r3
 8001154:	bd10      	pop	{r4, pc}
 8001156:	0022      	movs	r2, r4
 8001158:	380b      	subs	r0, #11
 800115a:	4082      	lsls	r2, r0
 800115c:	055b      	lsls	r3, r3, #21
 800115e:	0312      	lsls	r2, r2, #12
 8001160:	2400      	movs	r4, #0
 8001162:	0b12      	lsrs	r2, r2, #12
 8001164:	0d5b      	lsrs	r3, r3, #21
 8001166:	e7f1      	b.n	800114c <__aeabi_ui2d+0x2c>
 8001168:	0000041e 	.word	0x0000041e

0800116c <__aeabi_cdrcmple>:
 800116c:	4684      	mov	ip, r0
 800116e:	0010      	movs	r0, r2
 8001170:	4662      	mov	r2, ip
 8001172:	468c      	mov	ip, r1
 8001174:	0019      	movs	r1, r3
 8001176:	4663      	mov	r3, ip
 8001178:	e000      	b.n	800117c <__aeabi_cdcmpeq>
 800117a:	46c0      	nop			; (mov r8, r8)

0800117c <__aeabi_cdcmpeq>:
 800117c:	b51f      	push	{r0, r1, r2, r3, r4, lr}
 800117e:	f000 f8f9 	bl	8001374 <__ledf2>
 8001182:	2800      	cmp	r0, #0
 8001184:	d401      	bmi.n	800118a <__aeabi_cdcmpeq+0xe>
 8001186:	2100      	movs	r1, #0
 8001188:	42c8      	cmn	r0, r1
 800118a:	bd1f      	pop	{r0, r1, r2, r3, r4, pc}

0800118c <__aeabi_dcmpeq>:
 800118c:	b510      	push	{r4, lr}
 800118e:	f000 f849 	bl	8001224 <__eqdf2>
 8001192:	4240      	negs	r0, r0
 8001194:	3001      	adds	r0, #1
 8001196:	bd10      	pop	{r4, pc}

08001198 <__aeabi_dcmplt>:
 8001198:	b510      	push	{r4, lr}
 800119a:	f000 f8eb 	bl	8001374 <__ledf2>
 800119e:	2800      	cmp	r0, #0
 80011a0:	db01      	blt.n	80011a6 <__aeabi_dcmplt+0xe>
 80011a2:	2000      	movs	r0, #0
 80011a4:	bd10      	pop	{r4, pc}
 80011a6:	2001      	movs	r0, #1
 80011a8:	bd10      	pop	{r4, pc}
 80011aa:	46c0      	nop			; (mov r8, r8)

080011ac <__aeabi_dcmple>:
 80011ac:	b510      	push	{r4, lr}
 80011ae:	f000 f8e1 	bl	8001374 <__ledf2>
 80011b2:	2800      	cmp	r0, #0
 80011b4:	dd01      	ble.n	80011ba <__aeabi_dcmple+0xe>
 80011b6:	2000      	movs	r0, #0
 80011b8:	bd10      	pop	{r4, pc}
 80011ba:	2001      	movs	r0, #1
 80011bc:	bd10      	pop	{r4, pc}
 80011be:	46c0      	nop			; (mov r8, r8)

080011c0 <__aeabi_dcmpgt>:
 80011c0:	b510      	push	{r4, lr}
 80011c2:	f000 f871 	bl	80012a8 <__gedf2>
 80011c6:	2800      	cmp	r0, #0
 80011c8:	dc01      	bgt.n	80011ce <__aeabi_dcmpgt+0xe>
 80011ca:	2000      	movs	r0, #0
 80011cc:	bd10      	pop	{r4, pc}
 80011ce:	2001      	movs	r0, #1
 80011d0:	bd10      	pop	{r4, pc}
 80011d2:	46c0      	nop			; (mov r8, r8)

080011d4 <__aeabi_dcmpge>:
 80011d4:	b510      	push	{r4, lr}
 80011d6:	f000 f867 	bl	80012a8 <__gedf2>
 80011da:	2800      	cmp	r0, #0
 80011dc:	da01      	bge.n	80011e2 <__aeabi_dcmpge+0xe>
 80011de:	2000      	movs	r0, #0
 80011e0:	bd10      	pop	{r4, pc}
 80011e2:	2001      	movs	r0, #1
 80011e4:	bd10      	pop	{r4, pc}
 80011e6:	46c0      	nop			; (mov r8, r8)

080011e8 <__clzsi2>:
 80011e8:	211c      	movs	r1, #28
 80011ea:	2301      	movs	r3, #1
 80011ec:	041b      	lsls	r3, r3, #16
 80011ee:	4298      	cmp	r0, r3
 80011f0:	d301      	bcc.n	80011f6 <__clzsi2+0xe>
 80011f2:	0c00      	lsrs	r0, r0, #16
 80011f4:	3910      	subs	r1, #16
 80011f6:	0a1b      	lsrs	r3, r3, #8
 80011f8:	4298      	cmp	r0, r3
 80011fa:	d301      	bcc.n	8001200 <__clzsi2+0x18>
 80011fc:	0a00      	lsrs	r0, r0, #8
 80011fe:	3908      	subs	r1, #8
 8001200:	091b      	lsrs	r3, r3, #4
 8001202:	4298      	cmp	r0, r3
 8001204:	d301      	bcc.n	800120a <__clzsi2+0x22>
 8001206:	0900      	lsrs	r0, r0, #4
 8001208:	3904      	subs	r1, #4
 800120a:	a202      	add	r2, pc, #8	; (adr r2, 8001214 <__clzsi2+0x2c>)
 800120c:	5c10      	ldrb	r0, [r2, r0]
 800120e:	1840      	adds	r0, r0, r1
 8001210:	4770      	bx	lr
 8001212:	46c0      	nop			; (mov r8, r8)
 8001214:	02020304 	.word	0x02020304
 8001218:	01010101 	.word	0x01010101
	...

08001224 <__eqdf2>:
 8001224:	b5f0      	push	{r4, r5, r6, r7, lr}
 8001226:	464e      	mov	r6, r9
 8001228:	4645      	mov	r5, r8
 800122a:	46de      	mov	lr, fp
 800122c:	4657      	mov	r7, sl
 800122e:	4690      	mov	r8, r2
 8001230:	b5e0      	push	{r5, r6, r7, lr}
 8001232:	0017      	movs	r7, r2
 8001234:	031a      	lsls	r2, r3, #12
 8001236:	0b12      	lsrs	r2, r2, #12
 8001238:	0005      	movs	r5, r0
 800123a:	4684      	mov	ip, r0
 800123c:	4819      	ldr	r0, [pc, #100]	; (80012a4 <__eqdf2+0x80>)
 800123e:	030e      	lsls	r6, r1, #12
 8001240:	004c      	lsls	r4, r1, #1
 8001242:	4691      	mov	r9, r2
 8001244:	005a      	lsls	r2, r3, #1
 8001246:	0fdb      	lsrs	r3, r3, #31
 8001248:	469b      	mov	fp, r3
 800124a:	0b36      	lsrs	r6, r6, #12
 800124c:	0d64      	lsrs	r4, r4, #21
 800124e:	0fc9      	lsrs	r1, r1, #31
 8001250:	0d52      	lsrs	r2, r2, #21
 8001252:	4284      	cmp	r4, r0
 8001254:	d019      	beq.n	800128a <__eqdf2+0x66>
 8001256:	4282      	cmp	r2, r0
 8001258:	d010      	beq.n	800127c <__eqdf2+0x58>
 800125a:	2001      	movs	r0, #1
 800125c:	4294      	cmp	r4, r2
 800125e:	d10e      	bne.n	800127e <__eqdf2+0x5a>
 8001260:	454e      	cmp	r6, r9
 8001262:	d10c      	bne.n	800127e <__eqdf2+0x5a>
 8001264:	2001      	movs	r0, #1
 8001266:	45c4      	cmp	ip, r8
 8001268:	d109      	bne.n	800127e <__eqdf2+0x5a>
 800126a:	4559      	cmp	r1, fp
 800126c:	d017      	beq.n	800129e <__eqdf2+0x7a>
 800126e:	2c00      	cmp	r4, #0
 8001270:	d105      	bne.n	800127e <__eqdf2+0x5a>
 8001272:	0030      	movs	r0, r6
 8001274:	4328      	orrs	r0, r5
 8001276:	1e43      	subs	r3, r0, #1
 8001278:	4198      	sbcs	r0, r3
 800127a:	e000      	b.n	800127e <__eqdf2+0x5a>
 800127c:	2001      	movs	r0, #1
 800127e:	bcf0      	pop	{r4, r5, r6, r7}
 8001280:	46bb      	mov	fp, r7
 8001282:	46b2      	mov	sl, r6
 8001284:	46a9      	mov	r9, r5
 8001286:	46a0      	mov	r8, r4
 8001288:	bdf0      	pop	{r4, r5, r6, r7, pc}
 800128a:	0033      	movs	r3, r6
 800128c:	2001      	movs	r0, #1
 800128e:	432b      	orrs	r3, r5
 8001290:	d1f5      	bne.n	800127e <__eqdf2+0x5a>
 8001292:	42a2      	cmp	r2, r4
 8001294:	d1f3      	bne.n	800127e <__eqdf2+0x5a>
 8001296:	464b      	mov	r3, r9
 8001298:	433b      	orrs	r3, r7
 800129a:	d1f0      	bne.n	800127e <__eqdf2+0x5a>
 800129c:	e7e2      	b.n	8001264 <__eqdf2+0x40>
 800129e:	2000      	movs	r0, #0
 80012a0:	e7ed      	b.n	800127e <__eqdf2+0x5a>
 80012a2:	46c0      	nop			; (mov r8, r8)
 80012a4:	000007ff 	.word	0x000007ff

080012a8 <__gedf2>:
 80012a8:	b5f0      	push	{r4, r5, r6, r7, lr}
 80012aa:	4647      	mov	r7, r8
 80012ac:	46ce      	mov	lr, r9
 80012ae:	0004      	movs	r4, r0
 80012b0:	0018      	movs	r0, r3
 80012b2:	0016      	movs	r6, r2
 80012b4:	031b      	lsls	r3, r3, #12
 80012b6:	0b1b      	lsrs	r3, r3, #12
 80012b8:	4d2d      	ldr	r5, [pc, #180]	; (8001370 <__gedf2+0xc8>)
 80012ba:	004a      	lsls	r2, r1, #1
 80012bc:	4699      	mov	r9, r3
 80012be:	b580      	push	{r7, lr}
 80012c0:	0043      	lsls	r3, r0, #1
 80012c2:	030f      	lsls	r7, r1, #12
 80012c4:	46a4      	mov	ip, r4
 80012c6:	46b0      	mov	r8, r6
 80012c8:	0b3f      	lsrs	r7, r7, #12
 80012ca:	0d52      	lsrs	r2, r2, #21
 80012cc:	0fc9      	lsrs	r1, r1, #31
 80012ce:	0d5b      	lsrs	r3, r3, #21
 80012d0:	0fc0      	lsrs	r0, r0, #31
 80012d2:	42aa      	cmp	r2, r5
 80012d4:	d021      	beq.n	800131a <__gedf2+0x72>
 80012d6:	42ab      	cmp	r3, r5
 80012d8:	d013      	beq.n	8001302 <__gedf2+0x5a>
 80012da:	2a00      	cmp	r2, #0
 80012dc:	d122      	bne.n	8001324 <__gedf2+0x7c>
 80012de:	433c      	orrs	r4, r7
 80012e0:	2b00      	cmp	r3, #0
 80012e2:	d102      	bne.n	80012ea <__gedf2+0x42>
 80012e4:	464d      	mov	r5, r9
 80012e6:	432e      	orrs	r6, r5
 80012e8:	d022      	beq.n	8001330 <__gedf2+0x88>
 80012ea:	2c00      	cmp	r4, #0
 80012ec:	d010      	beq.n	8001310 <__gedf2+0x68>
 80012ee:	4281      	cmp	r1, r0
 80012f0:	d022      	beq.n	8001338 <__gedf2+0x90>
 80012f2:	2002      	movs	r0, #2
 80012f4:	3901      	subs	r1, #1
 80012f6:	4008      	ands	r0, r1
 80012f8:	3801      	subs	r0, #1
 80012fa:	bcc0      	pop	{r6, r7}
 80012fc:	46b9      	mov	r9, r7
 80012fe:	46b0      	mov	r8, r6
 8001300:	bdf0      	pop	{r4, r5, r6, r7, pc}
 8001302:	464d      	mov	r5, r9
 8001304:	432e      	orrs	r6, r5
 8001306:	d129      	bne.n	800135c <__gedf2+0xb4>
 8001308:	2a00      	cmp	r2, #0
 800130a:	d1f0      	bne.n	80012ee <__gedf2+0x46>
 800130c:	433c      	orrs	r4, r7
 800130e:	d1ee      	bne.n	80012ee <__gedf2+0x46>
 8001310:	2800      	cmp	r0, #0
 8001312:	d1f2      	bne.n	80012fa <__gedf2+0x52>
 8001314:	2001      	movs	r0, #1
 8001316:	4240      	negs	r0, r0
 8001318:	e7ef      	b.n	80012fa <__gedf2+0x52>
 800131a:	003d      	movs	r5, r7
 800131c:	4325      	orrs	r5, r4
 800131e:	d11d      	bne.n	800135c <__gedf2+0xb4>
 8001320:	4293      	cmp	r3, r2
 8001322:	d0ee      	beq.n	8001302 <__gedf2+0x5a>
 8001324:	2b00      	cmp	r3, #0
 8001326:	d1e2      	bne.n	80012ee <__gedf2+0x46>
 8001328:	464c      	mov	r4, r9
 800132a:	4326      	orrs	r6, r4
 800132c:	d1df      	bne.n	80012ee <__gedf2+0x46>
 800132e:	e7e0      	b.n	80012f2 <__gedf2+0x4a>
 8001330:	2000      	movs	r0, #0
 8001332:	2c00      	cmp	r4, #0
 8001334:	d0e1      	beq.n	80012fa <__gedf2+0x52>
 8001336:	e7dc      	b.n	80012f2 <__gedf2+0x4a>
 8001338:	429a      	cmp	r2, r3
 800133a:	dc0a      	bgt.n	8001352 <__gedf2+0xaa>
 800133c:	dbe8      	blt.n	8001310 <__gedf2+0x68>
 800133e:	454f      	cmp	r7, r9
 8001340:	d8d7      	bhi.n	80012f2 <__gedf2+0x4a>
 8001342:	d00e      	beq.n	8001362 <__gedf2+0xba>
 8001344:	2000      	movs	r0, #0
 8001346:	454f      	cmp	r7, r9
 8001348:	d2d7      	bcs.n	80012fa <__gedf2+0x52>
 800134a:	2900      	cmp	r1, #0
 800134c:	d0e2      	beq.n	8001314 <__gedf2+0x6c>
 800134e:	0008      	movs	r0, r1
 8001350:	e7d3      	b.n	80012fa <__gedf2+0x52>
 8001352:	4243      	negs	r3, r0
 8001354:	4158      	adcs	r0, r3
 8001356:	0040      	lsls	r0, r0, #1
 8001358:	3801      	subs	r0, #1
 800135a:	e7ce      	b.n	80012fa <__gedf2+0x52>
 800135c:	2002      	movs	r0, #2
 800135e:	4240      	negs	r0, r0
 8001360:	e7cb      	b.n	80012fa <__gedf2+0x52>
 8001362:	45c4      	cmp	ip, r8
 8001364:	d8c5      	bhi.n	80012f2 <__gedf2+0x4a>
 8001366:	2000      	movs	r0, #0
 8001368:	45c4      	cmp	ip, r8
 800136a:	d2c6      	bcs.n	80012fa <__gedf2+0x52>
 800136c:	e7ed      	b.n	800134a <__gedf2+0xa2>
 800136e:	46c0      	nop			; (mov r8, r8)
 8001370:	000007ff 	.word	0x000007ff

08001374 <__ledf2>:
 8001374:	b5f0      	push	{r4, r5, r6, r7, lr}
 8001376:	4647      	mov	r7, r8
 8001378:	46ce      	mov	lr, r9
 800137a:	0004      	movs	r4, r0
 800137c:	0018      	movs	r0, r3
 800137e:	0016      	movs	r6, r2
 8001380:	031b      	lsls	r3, r3, #12
 8001382:	0b1b      	lsrs	r3, r3, #12
 8001384:	4d2c      	ldr	r5, [pc, #176]	; (8001438 <__ledf2+0xc4>)
 8001386:	004a      	lsls	r2, r1, #1
 8001388:	4699      	mov	r9, r3
 800138a:	b580      	push	{r7, lr}
 800138c:	0043      	lsls	r3, r0, #1
 800138e:	030f      	lsls	r7, r1, #12
 8001390:	46a4      	mov	ip, r4
 8001392:	46b0      	mov	r8, r6
 8001394:	0b3f      	lsrs	r7, r7, #12
 8001396:	0d52      	lsrs	r2, r2, #21
 8001398:	0fc9      	lsrs	r1, r1, #31
 800139a:	0d5b      	lsrs	r3, r3, #21
 800139c:	0fc0      	lsrs	r0, r0, #31
 800139e:	42aa      	cmp	r2, r5
 80013a0:	d00d      	beq.n	80013be <__ledf2+0x4a>
 80013a2:	42ab      	cmp	r3, r5
 80013a4:	d010      	beq.n	80013c8 <__ledf2+0x54>
 80013a6:	2a00      	cmp	r2, #0
 80013a8:	d127      	bne.n	80013fa <__ledf2+0x86>
 80013aa:	433c      	orrs	r4, r7
 80013ac:	2b00      	cmp	r3, #0
 80013ae:	d111      	bne.n	80013d4 <__ledf2+0x60>
 80013b0:	464d      	mov	r5, r9
 80013b2:	432e      	orrs	r6, r5
 80013b4:	d10e      	bne.n	80013d4 <__ledf2+0x60>
 80013b6:	2000      	movs	r0, #0
 80013b8:	2c00      	cmp	r4, #0
 80013ba:	d015      	beq.n	80013e8 <__ledf2+0x74>
 80013bc:	e00e      	b.n	80013dc <__ledf2+0x68>
 80013be:	003d      	movs	r5, r7
 80013c0:	4325      	orrs	r5, r4
 80013c2:	d110      	bne.n	80013e6 <__ledf2+0x72>
 80013c4:	4293      	cmp	r3, r2
 80013c6:	d118      	bne.n	80013fa <__ledf2+0x86>
 80013c8:	464d      	mov	r5, r9
 80013ca:	432e      	orrs	r6, r5
 80013cc:	d10b      	bne.n	80013e6 <__ledf2+0x72>
 80013ce:	2a00      	cmp	r2, #0
 80013d0:	d102      	bne.n	80013d8 <__ledf2+0x64>
 80013d2:	433c      	orrs	r4, r7
 80013d4:	2c00      	cmp	r4, #0
 80013d6:	d00b      	beq.n	80013f0 <__ledf2+0x7c>
 80013d8:	4281      	cmp	r1, r0
 80013da:	d014      	beq.n	8001406 <__ledf2+0x92>
 80013dc:	2002      	movs	r0, #2
 80013de:	3901      	subs	r1, #1
 80013e0:	4008      	ands	r0, r1
 80013e2:	3801      	subs	r0, #1
 80013e4:	e000      	b.n	80013e8 <__ledf2+0x74>
 80013e6:	2002      	movs	r0, #2
 80013e8:	bcc0      	pop	{r6, r7}
 80013ea:	46b9      	mov	r9, r7
 80013ec:	46b0      	mov	r8, r6
 80013ee:	bdf0      	pop	{r4, r5, r6, r7, pc}
 80013f0:	2800      	cmp	r0, #0
 80013f2:	d1f9      	bne.n	80013e8 <__ledf2+0x74>
 80013f4:	2001      	movs	r0, #1
 80013f6:	4240      	negs	r0, r0
 80013f8:	e7f6      	b.n	80013e8 <__ledf2+0x74>
 80013fa:	2b00      	cmp	r3, #0
 80013fc:	d1ec      	bne.n	80013d8 <__ledf2+0x64>
 80013fe:	464c      	mov	r4, r9
 8001400:	4326      	orrs	r6, r4
 8001402:	d1e9      	bne.n	80013d8 <__ledf2+0x64>
 8001404:	e7ea      	b.n	80013dc <__ledf2+0x68>
 8001406:	429a      	cmp	r2, r3
 8001408:	dd04      	ble.n	8001414 <__ledf2+0xa0>
 800140a:	4243      	negs	r3, r0
 800140c:	4158      	adcs	r0, r3
 800140e:	0040      	lsls	r0, r0, #1
 8001410:	3801      	subs	r0, #1
 8001412:	e7e9      	b.n	80013e8 <__ledf2+0x74>
 8001414:	429a      	cmp	r2, r3
 8001416:	dbeb      	blt.n	80013f0 <__ledf2+0x7c>
 8001418:	454f      	cmp	r7, r9
 800141a:	d8df      	bhi.n	80013dc <__ledf2+0x68>
 800141c:	d006      	beq.n	800142c <__ledf2+0xb8>
 800141e:	2000      	movs	r0, #0
 8001420:	454f      	cmp	r7, r9
 8001422:	d2e1      	bcs.n	80013e8 <__ledf2+0x74>
 8001424:	2900      	cmp	r1, #0
 8001426:	d0e5      	beq.n	80013f4 <__ledf2+0x80>
 8001428:	0008      	movs	r0, r1
 800142a:	e7dd      	b.n	80013e8 <__ledf2+0x74>
 800142c:	45c4      	cmp	ip, r8
 800142e:	d8d5      	bhi.n	80013dc <__ledf2+0x68>
 8001430:	2000      	movs	r0, #0
 8001432:	45c4      	cmp	ip, r8
 8001434:	d2d8      	bcs.n	80013e8 <__ledf2+0x74>
 8001436:	e7f5      	b.n	8001424 <__ledf2+0xb0>
 8001438:	000007ff 	.word	0x000007ff

0800143c <TMC5160_Basic_Init>:
int Ax = 0;				// counter for buffer
uint8_t AMS_Ready;		//check for interrupt


void TMC5160_Basic_Init(CurrentConfig *Current)
{
 800143c:	b580      	push	{r7, lr}
 800143e:	b084      	sub	sp, #16
 8001440:	af00      	add	r7, sp, #0
 8001442:	6078      	str	r0, [r7, #4]
	/* CURRENT SETTINGS
	 I_RUN, Max run current = 20 = ~2.0A
	 I_HOLD, Max Hold current = 20 = ~2.0A
	*/

	uint32_t IHOLD_IRUN = 0x00070000; // standard IHOLD DELAY value
 8001444:	23e0      	movs	r3, #224	; 0xe0
 8001446:	02db      	lsls	r3, r3, #11
 8001448:	60fb      	str	r3, [r7, #12]
	//uint32_t GSTAT_VALUE = 0x00000000; //default value for GSTAT

	if(Current->IHOLD > 20) // set upper current limit ~2.0A
 800144a:	687b      	ldr	r3, [r7, #4]
 800144c:	685b      	ldr	r3, [r3, #4]
 800144e:	2b14      	cmp	r3, #20
 8001450:	d902      	bls.n	8001458 <TMC5160_Basic_Init+0x1c>
	{
		Current->IHOLD = 20;
 8001452:	687b      	ldr	r3, [r7, #4]
 8001454:	2214      	movs	r2, #20
 8001456:	605a      	str	r2, [r3, #4]
	}

	if(Current->IRUN > 20) // set upper current limit ~2.0A
 8001458:	687b      	ldr	r3, [r7, #4]
 800145a:	681b      	ldr	r3, [r3, #0]
 800145c:	2b14      	cmp	r3, #20
 800145e:	d902      	bls.n	8001466 <TMC5160_Basic_Init+0x2a>
	{
		Current->IRUN = 20;
 8001460:	687b      	ldr	r3, [r7, #4]
 8001462:	2214      	movs	r2, #20
 8001464:	601a      	str	r2, [r3, #0]
	}

	IHOLD_IRUN += Current->IHOLD + (Current->IRUN <<8);
 8001466:	687b      	ldr	r3, [r7, #4]
 8001468:	685a      	ldr	r2, [r3, #4]
 800146a:	687b      	ldr	r3, [r7, #4]
 800146c:	681b      	ldr	r3, [r3, #0]
 800146e:	021b      	lsls	r3, r3, #8
 8001470:	18d3      	adds	r3, r2, r3
 8001472:	68fa      	ldr	r2, [r7, #12]
 8001474:	18d3      	adds	r3, r2, r3
 8001476:	60fb      	str	r3, [r7, #12]

	TMC5160_SPIWrite(0x00, 0x00000008, 1); // writing value 0x00000008 = 8 = 0.0 to address 0 = 0x00(GCONF)
 8001478:	2201      	movs	r2, #1
 800147a:	2108      	movs	r1, #8
 800147c:	2000      	movs	r0, #0
 800147e:	f000 fa9b 	bl	80019b8 <TMC5160_SPIWrite>
	TMC5160_SPIWrite(0x00, 0x00000008, 0); // writing value 0x00000008 = 8 = 0.0 to address 0 = 0x00(GCONF)
 8001482:	2200      	movs	r2, #0
 8001484:	2108      	movs	r1, #8
 8001486:	2000      	movs	r0, #0
 8001488:	f000 fa96 	bl	80019b8 <TMC5160_SPIWrite>
	{
		TMC5160_SPIWrite(0x01, 0x00000001, 1); // write 1 bit to GSTAT to clear all error flags
		// TODO: is clearing the flags enough? or poweqr cycle needed?
	}*/

	TMC5160_SPIWrite(0x03, 0x00000000, 1); // writing value 0x00000000 = 0 = 0.0 to address 1 = 0x03(SLAVECONF)
 800148c:	2201      	movs	r2, #1
 800148e:	2100      	movs	r1, #0
 8001490:	2003      	movs	r0, #3
 8001492:	f000 fa91 	bl	80019b8 <TMC5160_SPIWrite>
	TMC5160_SPIWrite(0x05, 0x00000000, 1); // writing value 0x00000000 = 0 = 0.0 to address 2 = 0x05(X_COMPARE)
 8001496:	2201      	movs	r2, #1
 8001498:	2100      	movs	r1, #0
 800149a:	2005      	movs	r0, #5
 800149c:	f000 fa8c 	bl	80019b8 <TMC5160_SPIWrite>
	TMC5160_SPIWrite(0x06, 0x00000000, 1); // writing value 0x00000000 = 0 = 0.0 to address 3 = 0x06(OTP_PROG)
 80014a0:	2201      	movs	r2, #1
 80014a2:	2100      	movs	r1, #0
 80014a4:	2006      	movs	r0, #6
 80014a6:	f000 fa87 	bl	80019b8 <TMC5160_SPIWrite>
	TMC5160_SPIWrite(0x08, 0x0000000F, 1); // writing value 0x0000000F = 15 = 0.0 to address 4 = 0x08(FACTORY_CONF)
 80014aa:	2201      	movs	r2, #1
 80014ac:	210f      	movs	r1, #15
 80014ae:	2008      	movs	r0, #8
 80014b0:	f000 fa82 	bl	80019b8 <TMC5160_SPIWrite>
	TMC5160_SPIWrite(0x09, 0x00010606, 1); // writing value 0x00010606 = 67078 = 0.0 to address 5 = 0x09(SHORT_CONF)
 80014b4:	4b53      	ldr	r3, [pc, #332]	; (8001604 <TMC5160_Basic_Init+0x1c8>)
 80014b6:	2201      	movs	r2, #1
 80014b8:	0019      	movs	r1, r3
 80014ba:	2009      	movs	r0, #9
 80014bc:	f000 fa7c 	bl	80019b8 <TMC5160_SPIWrite>
	TMC5160_SPIWrite(0x0A, 0x00080400, 1); // writing value 0x00080400 = 525312 = 0.0 to address 6 = 0x0A(DRV_CONF)
 80014c0:	4b51      	ldr	r3, [pc, #324]	; (8001608 <TMC5160_Basic_Init+0x1cc>)
 80014c2:	2201      	movs	r2, #1
 80014c4:	0019      	movs	r1, r3
 80014c6:	200a      	movs	r0, #10
 80014c8:	f000 fa76 	bl	80019b8 <TMC5160_SPIWrite>
	TMC5160_SPIWrite(0x0B, 0x00000000, 1); // writing value 0x00000000 = 0 = 0.0 to address 7 = 0x0B(GLOBAL_SCALER)
 80014cc:	2201      	movs	r2, #1
 80014ce:	2100      	movs	r1, #0
 80014d0:	200b      	movs	r0, #11
 80014d2:	f000 fa71 	bl	80019b8 <TMC5160_SPIWrite>

	TMC5160_SPIWrite(0x10, IHOLD_IRUN, 1); // writing value 0x00070A03 = 461315 = 0.0 to address 8 = 0x10(IHOLD_IRUN)
 80014d6:	68fb      	ldr	r3, [r7, #12]
 80014d8:	2201      	movs	r2, #1
 80014da:	0019      	movs	r1, r3
 80014dc:	2010      	movs	r0, #16
 80014de:	f000 fa6b 	bl	80019b8 <TMC5160_SPIWrite>

	TMC5160_SPIWrite(0x11, 0x0000000A, 1); // writing value 0x0000000A = 10 = 0.0 to address 9 = 0x11(TPOWERDOWN)
 80014e2:	2201      	movs	r2, #1
 80014e4:	210a      	movs	r1, #10
 80014e6:	2011      	movs	r0, #17
 80014e8:	f000 fa66 	bl	80019b8 <TMC5160_SPIWrite>
	TMC5160_SPIWrite(0x13, 0x00000000, 1); // writing value 0x00000000 = 0 = 0.0 to address 10 = 0x13(TPWMTHRS)
 80014ec:	2201      	movs	r2, #1
 80014ee:	2100      	movs	r1, #0
 80014f0:	2013      	movs	r0, #19
 80014f2:	f000 fa61 	bl	80019b8 <TMC5160_SPIWrite>
	TMC5160_SPIWrite(0x14, 0x00000000, 1); // writing value 0x00000010 = 16 = 0.0 to address 11 = 0x14(TCOOLTHRS)
 80014f6:	2201      	movs	r2, #1
 80014f8:	2100      	movs	r1, #0
 80014fa:	2014      	movs	r0, #20
 80014fc:	f000 fa5c 	bl	80019b8 <TMC5160_SPIWrite>
	TMC5160_SPIWrite(0x15, 0x00000000, 1); // writing value 0x00000000 = 0 = 0.0 to address 12 = 0x15(THIGH)
 8001500:	2201      	movs	r2, #1
 8001502:	2100      	movs	r1, #0
 8001504:	2015      	movs	r0, #21
 8001506:	f000 fa57 	bl	80019b8 <TMC5160_SPIWrite>
	TMC5160_SPIWrite(0x2C, 0x00000000, 1); // writing value 0x00000000 = 0 = 0.0 to address 23 = 0x2C(TZEROWAIT)
 800150a:	2201      	movs	r2, #1
 800150c:	2100      	movs	r1, #0
 800150e:	202c      	movs	r0, #44	; 0x2c
 8001510:	f000 fa52 	bl	80019b8 <TMC5160_SPIWrite>
	TMC5160_SPIWrite(0x33, 0x00000000, 1); // writing value 0x00000000 = 0 = 0.0 to address 25 = 0x33(VDCMIN)
 8001514:	2201      	movs	r2, #1
 8001516:	2100      	movs	r1, #0
 8001518:	2033      	movs	r0, #51	; 0x33
 800151a:	f000 fa4d 	bl	80019b8 <TMC5160_SPIWrite>
	TMC5160_SPIWrite(0x34, 0x00000000, 1); // writing value 0x00000000 = 0 = 0.0 to address 26 = 0x34(SW_MODE)
 800151e:	2201      	movs	r2, #1
 8001520:	2100      	movs	r1, #0
 8001522:	2034      	movs	r0, #52	; 0x34
 8001524:	f000 fa48 	bl	80019b8 <TMC5160_SPIWrite>
	TMC5160_SPIWrite(0x38, 0x00000000, 1); // writing value 0x00000000 = 0 = 0.0 to address 27 = 0x38(ENCMODE)
 8001528:	2201      	movs	r2, #1
 800152a:	2100      	movs	r1, #0
 800152c:	2038      	movs	r0, #56	; 0x38
 800152e:	f000 fa43 	bl	80019b8 <TMC5160_SPIWrite>
	TMC5160_SPIWrite(0x39, 0x00000000, 1); // writing value 0x00000000 = 0 = 0.0 to address 28 = 0x39(X_ENC)
 8001532:	2201      	movs	r2, #1
 8001534:	2100      	movs	r1, #0
 8001536:	2039      	movs	r0, #57	; 0x39
 8001538:	f000 fa3e 	bl	80019b8 <TMC5160_SPIWrite>
	TMC5160_SPIWrite(0x3A, 0x00010000, 1); // writing value 0x00010000 = 65536 = 0.0 to address 29 = 0x3A(ENC_CONST)
 800153c:	2380      	movs	r3, #128	; 0x80
 800153e:	025b      	lsls	r3, r3, #9
 8001540:	2201      	movs	r2, #1
 8001542:	0019      	movs	r1, r3
 8001544:	203a      	movs	r0, #58	; 0x3a
 8001546:	f000 fa37 	bl	80019b8 <TMC5160_SPIWrite>
	TMC5160_SPIWrite(0x3D, 0x00000000, 1); // writing value 0x00000000 = 0 = 0.0 to address 30 = 0x3D(ENC_DEVIATION)
 800154a:	2201      	movs	r2, #1
 800154c:	2100      	movs	r1, #0
 800154e:	203d      	movs	r0, #61	; 0x3d
 8001550:	f000 fa32 	bl	80019b8 <TMC5160_SPIWrite>
	TMC5160_SPIWrite(0x60, 0xAAAAB554, 1); // writing value 0xAAAAB554 = 0 = 0.0 to address 31 = 0x60(MSLUT[0])
 8001554:	4b2d      	ldr	r3, [pc, #180]	; (800160c <TMC5160_Basic_Init+0x1d0>)
 8001556:	2201      	movs	r2, #1
 8001558:	0019      	movs	r1, r3
 800155a:	2060      	movs	r0, #96	; 0x60
 800155c:	f000 fa2c 	bl	80019b8 <TMC5160_SPIWrite>
	TMC5160_SPIWrite(0x61, 0x4A9554AA, 1); // writing value 0x4A9554AA = 1251300522 = 0.0 to address 32 = 0x61(MSLUT[1])
 8001560:	4b2b      	ldr	r3, [pc, #172]	; (8001610 <TMC5160_Basic_Init+0x1d4>)
 8001562:	2201      	movs	r2, #1
 8001564:	0019      	movs	r1, r3
 8001566:	2061      	movs	r0, #97	; 0x61
 8001568:	f000 fa26 	bl	80019b8 <TMC5160_SPIWrite>
	TMC5160_SPIWrite(0x62, 0x24492929, 1); // writing value 0x24492929 = 608774441 = 0.0 to address 33 = 0x62(MSLUT[2])
 800156c:	4b29      	ldr	r3, [pc, #164]	; (8001614 <TMC5160_Basic_Init+0x1d8>)
 800156e:	2201      	movs	r2, #1
 8001570:	0019      	movs	r1, r3
 8001572:	2062      	movs	r0, #98	; 0x62
 8001574:	f000 fa20 	bl	80019b8 <TMC5160_SPIWrite>
	TMC5160_SPIWrite(0x63, 0x10104222, 1); // writing value 0x10104222 = 269500962 = 0.0 to address 34 = 0x63(MSLUT[3])
 8001578:	4b27      	ldr	r3, [pc, #156]	; (8001618 <TMC5160_Basic_Init+0x1dc>)
 800157a:	2201      	movs	r2, #1
 800157c:	0019      	movs	r1, r3
 800157e:	2063      	movs	r0, #99	; 0x63
 8001580:	f000 fa1a 	bl	80019b8 <TMC5160_SPIWrite>
	TMC5160_SPIWrite(0x64, 0xFBFFFFFF, 1); // writing value 0xFBFFFFFF = 0 = 0.0 to address 35 = 0x64(MSLUT[4])
 8001584:	4b25      	ldr	r3, [pc, #148]	; (800161c <TMC5160_Basic_Init+0x1e0>)
 8001586:	2201      	movs	r2, #1
 8001588:	0019      	movs	r1, r3
 800158a:	2064      	movs	r0, #100	; 0x64
 800158c:	f000 fa14 	bl	80019b8 <TMC5160_SPIWrite>
	TMC5160_SPIWrite(0x65, 0xB5BB777D, 1); // writing value 0xB5BB777D = 0 = 0.0 to address 36 = 0x65(MSLUT[5])
 8001590:	4b23      	ldr	r3, [pc, #140]	; (8001620 <TMC5160_Basic_Init+0x1e4>)
 8001592:	2201      	movs	r2, #1
 8001594:	0019      	movs	r1, r3
 8001596:	2065      	movs	r0, #101	; 0x65
 8001598:	f000 fa0e 	bl	80019b8 <TMC5160_SPIWrite>
	TMC5160_SPIWrite(0x66, 0x49295556, 1); // writing value 0x49295556 = 1227445590 = 0.0 to address 37 = 0x66(MSLUT[6])
 800159c:	4b21      	ldr	r3, [pc, #132]	; (8001624 <TMC5160_Basic_Init+0x1e8>)
 800159e:	2201      	movs	r2, #1
 80015a0:	0019      	movs	r1, r3
 80015a2:	2066      	movs	r0, #102	; 0x66
 80015a4:	f000 fa08 	bl	80019b8 <TMC5160_SPIWrite>
	TMC5160_SPIWrite(0x67, 0x00404222, 1); // writing value 0x00404222 = 4211234 = 0.0 to address 38 = 0x67(MSLUT[7])
 80015a8:	4b1f      	ldr	r3, [pc, #124]	; (8001628 <TMC5160_Basic_Init+0x1ec>)
 80015aa:	2201      	movs	r2, #1
 80015ac:	0019      	movs	r1, r3
 80015ae:	2067      	movs	r0, #103	; 0x67
 80015b0:	f000 fa02 	bl	80019b8 <TMC5160_SPIWrite>
	TMC5160_SPIWrite(0x68, 0xFFFF8056, 1); // writing value 0xFFFF8056 = 0 = 0.0 to address 39 = 0x68(MSLUTSEL)
 80015b4:	4b1d      	ldr	r3, [pc, #116]	; (800162c <TMC5160_Basic_Init+0x1f0>)
 80015b6:	2201      	movs	r2, #1
 80015b8:	0019      	movs	r1, r3
 80015ba:	2068      	movs	r0, #104	; 0x68
 80015bc:	f000 f9fc 	bl	80019b8 <TMC5160_SPIWrite>
	TMC5160_SPIWrite(0x69, 0x00F70000, 1); // writing value 0x00F70000 = 16187392 = 0.0 to address 40 = 0x69(MSLUTSTART)
 80015c0:	23f7      	movs	r3, #247	; 0xf7
 80015c2:	041b      	lsls	r3, r3, #16
 80015c4:	2201      	movs	r2, #1
 80015c6:	0019      	movs	r1, r3
 80015c8:	2069      	movs	r0, #105	; 0x69
 80015ca:	f000 f9f5 	bl	80019b8 <TMC5160_SPIWrite>
	TMC5160_SPIWrite(0x6C, 0x00410153, 1); // writing value 0x00410153 = 4260099 = 0.0 to address 41 = 0x6C(CHOPCONF)
 80015ce:	4b18      	ldr	r3, [pc, #96]	; (8001630 <TMC5160_Basic_Init+0x1f4>)
 80015d0:	2201      	movs	r2, #1
 80015d2:	0019      	movs	r1, r3
 80015d4:	206c      	movs	r0, #108	; 0x6c
 80015d6:	f000 f9ef 	bl	80019b8 <TMC5160_SPIWrite>
	TMC5160_SPIWrite(0x6D, 0x00000000, 1); // writing value 0x00000000 = 0 = 0.0 to address 42 = 0x6D(COOLCONF)
 80015da:	2201      	movs	r2, #1
 80015dc:	2100      	movs	r1, #0
 80015de:	206d      	movs	r0, #109	; 0x6d
 80015e0:	f000 f9ea 	bl	80019b8 <TMC5160_SPIWrite>
	TMC5160_SPIWrite(0x6E, 0x00000000, 1); // writing value 0x00000000 = 0 = 0.0 to address 43 = 0x6E(DCCTRL)
 80015e4:	2201      	movs	r2, #1
 80015e6:	2100      	movs	r1, #0
 80015e8:	206e      	movs	r0, #110	; 0x6e
 80015ea:	f000 f9e5 	bl	80019b8 <TMC5160_SPIWrite>
	TMC5160_SPIWrite(0x70, 0xC40C001E, 1); // writing value 0xC40C001E = 0 = 0.0 to address 44 = 0x70(PWMCONF)
 80015ee:	4b11      	ldr	r3, [pc, #68]	; (8001634 <TMC5160_Basic_Init+0x1f8>)
 80015f0:	2201      	movs	r2, #1
 80015f2:	0019      	movs	r1, r3
 80015f4:	2070      	movs	r0, #112	; 0x70
 80015f6:	f000 f9df 	bl	80019b8 <TMC5160_SPIWrite>

}
 80015fa:	46c0      	nop			; (mov r8, r8)
 80015fc:	46bd      	mov	sp, r7
 80015fe:	b004      	add	sp, #16
 8001600:	bd80      	pop	{r7, pc}
 8001602:	46c0      	nop			; (mov r8, r8)
 8001604:	00010606 	.word	0x00010606
 8001608:	00080400 	.word	0x00080400
 800160c:	aaaab554 	.word	0xaaaab554
 8001610:	4a9554aa 	.word	0x4a9554aa
 8001614:	24492929 	.word	0x24492929
 8001618:	10104222 	.word	0x10104222
 800161c:	fbffffff 	.word	0xfbffffff
 8001620:	b5bb777d 	.word	0xb5bb777d
 8001624:	49295556 	.word	0x49295556
 8001628:	00404222 	.word	0x00404222
 800162c:	ffff8056 	.word	0xffff8056
 8001630:	00410153 	.word	0x00410153
 8001634:	c40c001e 	.word	0xc40c001e

08001638 <TMC5160_Init_Stallguard>:

	//TODO: finilize
}

void TMC5160_Init_Stallguard(int reset)
{
 8001638:	b580      	push	{r7, lr}
 800163a:	b084      	sub	sp, #16
 800163c:	af00      	add	r7, sp, #0
 800163e:	6078      	str	r0, [r7, #4]
	if(reset == 0)//basic stall setup
 8001640:	687b      	ldr	r3, [r7, #4]
 8001642:	2b00      	cmp	r3, #0
 8001644:	d10f      	bne.n	8001666 <TMC5160_Init_Stallguard+0x2e>
	{
		uint32_t SGT = 1;
 8001646:	2301      	movs	r3, #1
 8001648:	60fb      	str	r3, [r7, #12]
		uint32_t COOLCONF = 0;
 800164a:	2300      	movs	r3, #0
 800164c:	60bb      	str	r3, [r7, #8]

		COOLCONF += (SGT <<16);
 800164e:	68fb      	ldr	r3, [r7, #12]
 8001650:	041b      	lsls	r3, r3, #16
 8001652:	68ba      	ldr	r2, [r7, #8]
 8001654:	18d3      	adds	r3, r2, r3
 8001656:	60bb      	str	r3, [r7, #8]

		//TODO: test COOLCONF register write to match register value

		//TMC5160_SPIWrite(0x6D, COOLCONF, 1); //0x6D(COOLCONF) //Stallguard Threshold
		TMC5160_SPIWrite(0x6D, 0x00010000, 1); //0x6D(COOLCONF) //Stallguard Threshold
 8001658:	2380      	movs	r3, #128	; 0x80
 800165a:	025b      	lsls	r3, r3, #9
 800165c:	2201      	movs	r2, #1
 800165e:	0019      	movs	r1, r3
 8001660:	206d      	movs	r0, #109	; 0x6d
 8001662:	f000 f9a9 	bl	80019b8 <TMC5160_SPIWrite>
	}

	if(reset == 1)//perform reset of stall, to allow movement again
 8001666:	687b      	ldr	r3, [r7, #4]
 8001668:	2b01      	cmp	r3, #1
 800166a:	d104      	bne.n	8001676 <TMC5160_Init_Stallguard+0x3e>
	{
		TMC5160_SPIWrite(0x35, 0x00000040, 1); //0x35(RAMP_STAT)
 800166c:	2201      	movs	r2, #1
 800166e:	2140      	movs	r1, #64	; 0x40
 8001670:	2035      	movs	r0, #53	; 0x35
 8001672:	f000 f9a1 	bl	80019b8 <TMC5160_SPIWrite>
	// Apply load and monitor SG_RESULT
	// If SG_RESULT reaches 0 before "stall event" , increase SGT value (+63 highest) , if 0 is not reached lower SGT value (-64 lowest)

	// Sudden motor stops can cause for a stall event.
	// In this case , increase TCOOLTHRS to increase the duration before stallguard is activated
}
 8001676:	46c0      	nop			; (mov r8, r8)
 8001678:	46bd      	mov	sp, r7
 800167a:	b004      	add	sp, #16
 800167c:	bd80      	pop	{r7, pc}
	...

08001680 <TMC5160_Monitor_Stallguard>:

int TMC5160_Monitor_Stallguard(void)
{
 8001680:	b580      	push	{r7, lr}
 8001682:	b084      	sub	sp, #16
 8001684:	af00      	add	r7, sp, #0
	uint32_t DRV_STATUS;
	int Stall_Flag = 0;
 8001686:	2300      	movs	r3, #0
 8001688:	607b      	str	r3, [r7, #4]

	DRV_STATUS = TMC5160_SPIWrite(0x6F, 0x00000000, 0); //Read (DRV_STATUS)
 800168a:	2200      	movs	r2, #0
 800168c:	2100      	movs	r1, #0
 800168e:	206f      	movs	r0, #111	; 0x6f
 8001690:	f000 f992 	bl	80019b8 <TMC5160_SPIWrite>
 8001694:	0003      	movs	r3, r0
 8001696:	60fb      	str	r3, [r7, #12]
	//T_STEP[x] = TMC5160_SPIWrite(0x12, 0x00000000, 0); // 0x12(TSTEP)

	Stall_Flag = (DRV_STATUS & (1 << 24)); //bit 24 of DRV_STATUS is Stallguard flag
 8001698:	68fa      	ldr	r2, [r7, #12]
 800169a:	2380      	movs	r3, #128	; 0x80
 800169c:	045b      	lsls	r3, r3, #17
 800169e:	4013      	ands	r3, r2
 80016a0:	607b      	str	r3, [r7, #4]
	Stall_Flag = (Stall_Flag >> 24); // bitshift stall flag is 0 or 1
 80016a2:	687b      	ldr	r3, [r7, #4]
 80016a4:	161b      	asrs	r3, r3, #24
 80016a6:	607b      	str	r3, [r7, #4]

	if(Stall_Flag != 0) //stall detected -> stop motor
 80016a8:	687b      	ldr	r3, [r7, #4]
 80016aa:	2b00      	cmp	r3, #0
 80016ac:	d001      	beq.n	80016b2 <TMC5160_Monitor_Stallguard+0x32>
	{
		TMC5160_Stop();
 80016ae:	f000 f955 	bl	800195c <TMC5160_Stop>
	}

	for(int y = 32; y > 10; y--) // clear other data
 80016b2:	2320      	movs	r3, #32
 80016b4:	60bb      	str	r3, [r7, #8]
 80016b6:	e00b      	b.n	80016d0 <TMC5160_Monitor_Stallguard+0x50>
	{
		DRV_STATUS &= ~(1 << y);
 80016b8:	2201      	movs	r2, #1
 80016ba:	68bb      	ldr	r3, [r7, #8]
 80016bc:	409a      	lsls	r2, r3
 80016be:	0013      	movs	r3, r2
 80016c0:	43db      	mvns	r3, r3
 80016c2:	001a      	movs	r2, r3
 80016c4:	68fb      	ldr	r3, [r7, #12]
 80016c6:	4013      	ands	r3, r2
 80016c8:	60fb      	str	r3, [r7, #12]
	for(int y = 32; y > 10; y--) // clear other data
 80016ca:	68bb      	ldr	r3, [r7, #8]
 80016cc:	3b01      	subs	r3, #1
 80016ce:	60bb      	str	r3, [r7, #8]
 80016d0:	68bb      	ldr	r3, [r7, #8]
 80016d2:	2b0a      	cmp	r3, #10
 80016d4:	dcf0      	bgt.n	80016b8 <TMC5160_Monitor_Stallguard+0x38>
	}

	SG_RESULTS[x] = DRV_STATUS; // see SG_RESULTS in explorer for tuning stallguard (SG_RESULT 0 = stall detected)
 80016d6:	4b11      	ldr	r3, [pc, #68]	; (800171c <TMC5160_Monitor_Stallguard+0x9c>)
 80016d8:	681a      	ldr	r2, [r3, #0]
 80016da:	4b11      	ldr	r3, [pc, #68]	; (8001720 <TMC5160_Monitor_Stallguard+0xa0>)
 80016dc:	0092      	lsls	r2, r2, #2
 80016de:	68f9      	ldr	r1, [r7, #12]
 80016e0:	50d1      	str	r1, [r2, r3]
	x++;
 80016e2:	4b0e      	ldr	r3, [pc, #56]	; (800171c <TMC5160_Monitor_Stallguard+0x9c>)
 80016e4:	681b      	ldr	r3, [r3, #0]
 80016e6:	1c5a      	adds	r2, r3, #1
 80016e8:	4b0c      	ldr	r3, [pc, #48]	; (800171c <TMC5160_Monitor_Stallguard+0x9c>)
 80016ea:	601a      	str	r2, [r3, #0]

	if(x >= 1000) // stop stallguard demo or it will overflow
 80016ec:	4b0b      	ldr	r3, [pc, #44]	; (800171c <TMC5160_Monitor_Stallguard+0x9c>)
 80016ee:	681a      	ldr	r2, [r3, #0]
 80016f0:	23fa      	movs	r3, #250	; 0xfa
 80016f2:	009b      	lsls	r3, r3, #2
 80016f4:	429a      	cmp	r2, r3
 80016f6:	db0c      	blt.n	8001712 <TMC5160_Monitor_Stallguard+0x92>
	{
		x = 0;
 80016f8:	4b08      	ldr	r3, [pc, #32]	; (800171c <TMC5160_Monitor_Stallguard+0x9c>)
 80016fa:	2200      	movs	r2, #0
 80016fc:	601a      	str	r2, [r3, #0]

	    HAL_GPIO_WritePin(GPIOA,DRV_ENN_Pin,1); // LOW = ON
 80016fe:	2380      	movs	r3, #128	; 0x80
 8001700:	0059      	lsls	r1, r3, #1
 8001702:	2390      	movs	r3, #144	; 0x90
 8001704:	05db      	lsls	r3, r3, #23
 8001706:	2201      	movs	r2, #1
 8001708:	0018      	movs	r0, r3
 800170a:	f002 fa9b 	bl	8003c44 <HAL_GPIO_WritePin>
	    TMC5160_Stop();
 800170e:	f000 f925 	bl	800195c <TMC5160_Stop>
	}

	return Stall_Flag;
 8001712:	687b      	ldr	r3, [r7, #4]
}
 8001714:	0018      	movs	r0, r3
 8001716:	46bd      	mov	sp, r7
 8001718:	b004      	add	sp, #16
 800171a:	bd80      	pop	{r7, pc}
 800171c:	20000fcc 	.word	0x20000fcc
 8001720:	2000002c 	.word	0x2000002c

08001724 <TMC5160_Basic_Rotate>:

void TMC5160_Basic_Rotate(uint8_t Mode, RampConfig *Ramp) // 0 = Velocity Mode + , 1 = Velocity Mode -
{
 8001724:	b580      	push	{r7, lr}
 8001726:	b082      	sub	sp, #8
 8001728:	af00      	add	r7, sp, #0
 800172a:	0002      	movs	r2, r0
 800172c:	6039      	str	r1, [r7, #0]
 800172e:	1dfb      	adds	r3, r7, #7
 8001730:	701a      	strb	r2, [r3, #0]
	//Velocity mode , using VMAX and AMAX

	TMC5160_SPIWrite(0x11, 	0x0000000A, 1); 	// writing value 0x0000000A = 10 = 0.0 to address 9 = 0x11(TPOWERDOWN)
 8001732:	2201      	movs	r2, #1
 8001734:	210a      	movs	r1, #10
 8001736:	2011      	movs	r0, #17
 8001738:	f000 f93e 	bl	80019b8 <TMC5160_SPIWrite>
	TMC5160_SPIWrite(0x13, 	0x000001F4, 1); 	// writing value 0x00000000 = 0 = 0.0 to address 10 = 0x13(TPWMTHRS)
 800173c:	23fa      	movs	r3, #250	; 0xfa
 800173e:	005b      	lsls	r3, r3, #1
 8001740:	2201      	movs	r2, #1
 8001742:	0019      	movs	r1, r3
 8001744:	2013      	movs	r0, #19
 8001746:	f000 f937 	bl	80019b8 <TMC5160_SPIWrite>

	TMC5160_SPIWrite(0x23, Ramp->VSTART, 1); 	// = 1000 = 0.0 to address 15 = 0x23(VSTART)
 800174a:	683b      	ldr	r3, [r7, #0]
 800174c:	681b      	ldr	r3, [r3, #0]
 800174e:	2201      	movs	r2, #1
 8001750:	0019      	movs	r1, r3
 8001752:	2023      	movs	r0, #35	; 0x23
 8001754:	f000 f930 	bl	80019b8 <TMC5160_SPIWrite>
	TMC5160_SPIWrite(0x26, Ramp->AMAX, 1); 		// = 12800 = 0.0 to address 18 = 0x26(AMAX)
 8001758:	683b      	ldr	r3, [r7, #0]
 800175a:	68db      	ldr	r3, [r3, #12]
 800175c:	2201      	movs	r2, #1
 800175e:	0019      	movs	r1, r3
 8001760:	2026      	movs	r0, #38	; 0x26
 8001762:	f000 f929 	bl	80019b8 <TMC5160_SPIWrite>
	TMC5160_SPIWrite(0x27, Ramp->VMAX, 1); 		// = 51200 = 0.0 to address 19 = 0x27(VMAX)
 8001766:	683b      	ldr	r3, [r7, #0]
 8001768:	691b      	ldr	r3, [r3, #16]
 800176a:	2201      	movs	r2, #1
 800176c:	0019      	movs	r1, r3
 800176e:	2027      	movs	r0, #39	; 0x27
 8001770:	f000 f922 	bl	80019b8 <TMC5160_SPIWrite>
	TMC5160_SPIWrite(0x2B, Ramp->VSTOP, 1); 	// = 10 = 0.0 to address 22 = 0x2B(VSTOP)
 8001774:	683b      	ldr	r3, [r7, #0]
 8001776:	69db      	ldr	r3, [r3, #28]
 8001778:	2201      	movs	r2, #1
 800177a:	0019      	movs	r1, r3
 800177c:	202b      	movs	r0, #43	; 0x2b
 800177e:	f000 f91b 	bl	80019b8 <TMC5160_SPIWrite>

	if(Mode == 0)
 8001782:	1dfb      	adds	r3, r7, #7
 8001784:	781b      	ldrb	r3, [r3, #0]
 8001786:	2b00      	cmp	r3, #0
 8001788:	d105      	bne.n	8001796 <TMC5160_Basic_Rotate+0x72>
	{
		TMC5160_SPIWrite(0x20, 	0x00000001, 1); 		// writing value 0x00000001 = 0 = 0.0 to address 13 = 0x20(RAMPMODE)VM +
 800178a:	2201      	movs	r2, #1
 800178c:	2101      	movs	r1, #1
 800178e:	2020      	movs	r0, #32
 8001790:	f000 f912 	bl	80019b8 <TMC5160_SPIWrite>

	else if(Mode == 1)
	{
		TMC5160_SPIWrite(0x20, 	0x00000002, 1); 		// writing value 0x00000002 = 0 = 0.0 to address 13 = 0x20(RAMPMODE) VM -
	}
}
 8001794:	e008      	b.n	80017a8 <TMC5160_Basic_Rotate+0x84>
	else if(Mode == 1)
 8001796:	1dfb      	adds	r3, r7, #7
 8001798:	781b      	ldrb	r3, [r3, #0]
 800179a:	2b01      	cmp	r3, #1
 800179c:	d104      	bne.n	80017a8 <TMC5160_Basic_Rotate+0x84>
		TMC5160_SPIWrite(0x20, 	0x00000002, 1); 		// writing value 0x00000002 = 0 = 0.0 to address 13 = 0x20(RAMPMODE) VM -
 800179e:	2201      	movs	r2, #1
 80017a0:	2102      	movs	r1, #2
 80017a2:	2020      	movs	r0, #32
 80017a4:	f000 f908 	bl	80019b8 <TMC5160_SPIWrite>
}
 80017a8:	46c0      	nop			; (mov r8, r8)
 80017aa:	46bd      	mov	sp, r7
 80017ac:	b002      	add	sp, #8
 80017ae:	bd80      	pop	{r7, pc}

080017b0 <TMC5160_Rotate_To>:


void TMC5160_Rotate_To(uint32_t Position, RampConfig *Ramp)
{
 80017b0:	b580      	push	{r7, lr}
 80017b2:	b086      	sub	sp, #24
 80017b4:	af00      	add	r7, sp, #0
 80017b6:	6078      	str	r0, [r7, #4]
 80017b8:	6039      	str	r1, [r7, #0]
	uint32_t Target_Angle = 0;
 80017ba:	2300      	movs	r3, #0
 80017bc:	613b      	str	r3, [r7, #16]
	uint32_t AMS_Angle = 0;
 80017be:	2300      	movs	r3, #0
 80017c0:	60fb      	str	r3, [r7, #12]
	uint32_t ENC_Angle = 0;
 80017c2:	2300      	movs	r3, #0
 80017c4:	60bb      	str	r3, [r7, #8]
	uint32_t TMC_Angle = 0;
 80017c6:	2300      	movs	r3, #0
 80017c8:	617b      	str	r3, [r7, #20]

	TMC5160_SPIWrite(0x11, 	0x0000000A, 1); 	// writing value 0x0000000A = 10 = 0.0 to address 9 = 0x11(TPOWERDOWN)
 80017ca:	2201      	movs	r2, #1
 80017cc:	210a      	movs	r1, #10
 80017ce:	2011      	movs	r0, #17
 80017d0:	f000 f8f2 	bl	80019b8 <TMC5160_SPIWrite>
	//TMC5160_SPIWrite(0x00, 	0x00000008, 1); 	// writing value 0x00000008 = 8 = 0.0 to address 0 = 0x00(GCONF)
	TMC5160_SPIWrite(0x13, 	0x000001F4, 1); 	// writing value 0x00000000 = 0 = 0.0 to address 10 = 0x13(TPWMTHRS)
 80017d4:	23fa      	movs	r3, #250	; 0xfa
 80017d6:	005b      	lsls	r3, r3, #1
 80017d8:	2201      	movs	r2, #1
 80017da:	0019      	movs	r1, r3
 80017dc:	2013      	movs	r0, #19
 80017de:	f000 f8eb 	bl	80019b8 <TMC5160_SPIWrite>

	// setup for profile
	TMC5160_SPIWrite(0x23, Ramp->VSTART, 1); 	// = 1000 = 0.0 to address 15 = 0x23(VSTART)
 80017e2:	683b      	ldr	r3, [r7, #0]
 80017e4:	681b      	ldr	r3, [r3, #0]
 80017e6:	2201      	movs	r2, #1
 80017e8:	0019      	movs	r1, r3
 80017ea:	2023      	movs	r0, #35	; 0x23
 80017ec:	f000 f8e4 	bl	80019b8 <TMC5160_SPIWrite>
	TMC5160_SPIWrite(0x24, Ramp->A1, 1); 		// = 5600 = 0.0 to address 16 = 0x24(A1)
 80017f0:	683b      	ldr	r3, [r7, #0]
 80017f2:	685b      	ldr	r3, [r3, #4]
 80017f4:	2201      	movs	r2, #1
 80017f6:	0019      	movs	r1, r3
 80017f8:	2024      	movs	r0, #36	; 0x24
 80017fa:	f000 f8dd 	bl	80019b8 <TMC5160_SPIWrite>
	TMC5160_SPIWrite(0x25, Ramp->V1, 1); 		// = 12800 = 0.0 to address 17 = 0x25(V1)
 80017fe:	683b      	ldr	r3, [r7, #0]
 8001800:	689b      	ldr	r3, [r3, #8]
 8001802:	2201      	movs	r2, #1
 8001804:	0019      	movs	r1, r3
 8001806:	2025      	movs	r0, #37	; 0x25
 8001808:	f000 f8d6 	bl	80019b8 <TMC5160_SPIWrite>
	TMC5160_SPIWrite(0x26, Ramp->AMAX, 1); 		// = 12800 = 0.0 to address 18 = 0x26(AMAX)
 800180c:	683b      	ldr	r3, [r7, #0]
 800180e:	68db      	ldr	r3, [r3, #12]
 8001810:	2201      	movs	r2, #1
 8001812:	0019      	movs	r1, r3
 8001814:	2026      	movs	r0, #38	; 0x26
 8001816:	f000 f8cf 	bl	80019b8 <TMC5160_SPIWrite>
	TMC5160_SPIWrite(0x27, Ramp->VMAX, 1); 		// = 51200 = 0.0 to address 19 = 0x27(VMAX)
 800181a:	683b      	ldr	r3, [r7, #0]
 800181c:	691b      	ldr	r3, [r3, #16]
 800181e:	2201      	movs	r2, #1
 8001820:	0019      	movs	r1, r3
 8001822:	2027      	movs	r0, #39	; 0x27
 8001824:	f000 f8c8 	bl	80019b8 <TMC5160_SPIWrite>
	TMC5160_SPIWrite(0x28, Ramp->DMAX, 1); 		// = 700 = 0.0 to address 20 = 0x28(DMAX)
 8001828:	683b      	ldr	r3, [r7, #0]
 800182a:	695b      	ldr	r3, [r3, #20]
 800182c:	2201      	movs	r2, #1
 800182e:	0019      	movs	r1, r3
 8001830:	2028      	movs	r0, #40	; 0x28
 8001832:	f000 f8c1 	bl	80019b8 <TMC5160_SPIWrite>
	TMC5160_SPIWrite(0x2A, Ramp->D1, 1); 		// = 1400 = 0.0 to address 21 = 0x2A(D1)
 8001836:	683b      	ldr	r3, [r7, #0]
 8001838:	699b      	ldr	r3, [r3, #24]
 800183a:	2201      	movs	r2, #1
 800183c:	0019      	movs	r1, r3
 800183e:	202a      	movs	r0, #42	; 0x2a
 8001840:	f000 f8ba 	bl	80019b8 <TMC5160_SPIWrite>
	TMC5160_SPIWrite(0x2B, Ramp->VSTOP, 1); 	// = 10 = 0.0 to address 22 = 0x2B(VSTOP)
 8001844:	683b      	ldr	r3, [r7, #0]
 8001846:	69db      	ldr	r3, [r3, #28]
 8001848:	2201      	movs	r2, #1
 800184a:	0019      	movs	r1, r3
 800184c:	202b      	movs	r0, #43	; 0x2b
 800184e:	f000 f8b3 	bl	80019b8 <TMC5160_SPIWrite>

	TMC5160_SPIWrite(0x20, 	0x00000000, 1); 	// writing value 0x00000000 = 0 = 0.0 to address 13 = 0x20(RAMPMODE) MTP
 8001852:	2201      	movs	r2, #1
 8001854:	2100      	movs	r1, #0
 8001856:	2020      	movs	r0, #32
 8001858:	f000 f8ae 	bl	80019b8 <TMC5160_SPIWrite>
	TMC5160_SPIWrite(0x2D, Position, 1); 		// writing value to address 24 = 0x2D(XTARGET)  1 lap
 800185c:	687b      	ldr	r3, [r7, #4]
 800185e:	2201      	movs	r2, #1
 8001860:	0019      	movs	r1, r3
 8001862:	202d      	movs	r0, #45	; 0x2d
 8001864:	f000 f8a8 	bl	80019b8 <TMC5160_SPIWrite>
	TMC5160_SPIWrite(0x21,	0x00000000, 0);		// READ position register
 8001868:	2200      	movs	r2, #0
 800186a:	2100      	movs	r1, #0
 800186c:	2021      	movs	r0, #33	; 0x21
 800186e:	f000 f8a3 	bl	80019b8 <TMC5160_SPIWrite>

	/*Convert to Angle so we can compare to Hall Sensor*/

	if((int)Position < 0)
 8001872:	687b      	ldr	r3, [r7, #4]
 8001874:	2b00      	cmp	r3, #0
 8001876:	da02      	bge.n	800187e <TMC5160_Rotate_To+0xce>
	{
		Position = Position * (-1); 			// make positive for easier math
 8001878:	687b      	ldr	r3, [r7, #4]
 800187a:	425b      	negs	r3, r3
 800187c:	607b      	str	r3, [r7, #4]
	}

	if(Position == 0) 							// to fix the first reading when target position = 0
 800187e:	687b      	ldr	r3, [r7, #4]
 8001880:	2b00      	cmp	r3, #0
 8001882:	d105      	bne.n	8001890 <TMC5160_Rotate_To+0xe0>
	{
		AMS_Angle = 1;
 8001884:	2301      	movs	r3, #1
 8001886:	60fb      	str	r3, [r7, #12]
		ENC_Angle = 1;
 8001888:	2301      	movs	r3, #1
 800188a:	60bb      	str	r3, [r7, #8]
		TMC_Angle = 1;
 800188c:	2301      	movs	r3, #1
 800188e:	617b      	str	r3, [r7, #20]
	}

    Target_Angle = ((Position / 256) * 1.8);	//convert target position to angle
 8001890:	687b      	ldr	r3, [r7, #4]
 8001892:	0a1b      	lsrs	r3, r3, #8
 8001894:	0018      	movs	r0, r3
 8001896:	f7ff fc43 	bl	8001120 <__aeabi_ui2d>
 800189a:	4a15      	ldr	r2, [pc, #84]	; (80018f0 <TMC5160_Rotate_To+0x140>)
 800189c:	4b15      	ldr	r3, [pc, #84]	; (80018f4 <TMC5160_Rotate_To+0x144>)
 800189e:	f7fe fdc5 	bl	800042c <__aeabi_dmul>
 80018a2:	0002      	movs	r2, r0
 80018a4:	000b      	movs	r3, r1
 80018a6:	0010      	movs	r0, r2
 80018a8:	0019      	movs	r1, r3
 80018aa:	f7fe fda1 	bl	80003f0 <__aeabi_d2uiz>
 80018ae:	0003      	movs	r3, r0
 80018b0:	613b      	str	r3, [r7, #16]

	// enter loop to check if position is reached
	while(TMC_Angle != Target_Angle) //&& AMS_Angle != Target_Angle && ENC_Angle != Target_Angle
 80018b2:	e013      	b.n	80018dc <TMC5160_Rotate_To+0x12c>
	{
		TMC_Angle = TMC_Get_Position();
 80018b4:	f000 f824 	bl	8001900 <TMC_Get_Position>
 80018b8:	0003      	movs	r3, r0
 80018ba:	617b      	str	r3, [r7, #20]

		if(AMS_ENB == 1)// Hall sensor is enabled
 80018bc:	4b0e      	ldr	r3, [pc, #56]	; (80018f8 <TMC5160_Rotate_To+0x148>)
 80018be:	681b      	ldr	r3, [r3, #0]
 80018c0:	2b01      	cmp	r3, #1
 80018c2:	d103      	bne.n	80018cc <TMC5160_Rotate_To+0x11c>
		{
			AMS_Angle = AMS5055_Get_Position();
 80018c4:	f000 f8f2 	bl	8001aac <AMS5055_Get_Position>
 80018c8:	0003      	movs	r3, r0
 80018ca:	60fb      	str	r3, [r7, #12]
		}

		if(ENC_ENB == 1)// Encoder is enabled
 80018cc:	4b0b      	ldr	r3, [pc, #44]	; (80018fc <TMC5160_Rotate_To+0x14c>)
 80018ce:	681b      	ldr	r3, [r3, #0]
 80018d0:	2b01      	cmp	r3, #1
 80018d2:	d103      	bne.n	80018dc <TMC5160_Rotate_To+0x12c>
		{
			ENC_Angle = ENC_Get_Position();
 80018d4:	f000 fa0c 	bl	8001cf0 <ENC_Get_Position>
 80018d8:	0003      	movs	r3, r0
 80018da:	60bb      	str	r3, [r7, #8]
	while(TMC_Angle != Target_Angle) //&& AMS_Angle != Target_Angle && ENC_Angle != Target_Angle
 80018dc:	697a      	ldr	r2, [r7, #20]
 80018de:	693b      	ldr	r3, [r7, #16]
 80018e0:	429a      	cmp	r2, r3
 80018e2:	d1e7      	bne.n	80018b4 <TMC5160_Rotate_To+0x104>
		}
	}
 }
 80018e4:	46c0      	nop			; (mov r8, r8)
 80018e6:	46c0      	nop			; (mov r8, r8)
 80018e8:	46bd      	mov	sp, r7
 80018ea:	b006      	add	sp, #24
 80018ec:	bd80      	pop	{r7, pc}
 80018ee:	46c0      	nop			; (mov r8, r8)
 80018f0:	cccccccd 	.word	0xcccccccd
 80018f4:	3ffccccc 	.word	0x3ffccccc
 80018f8:	20001170 	.word	0x20001170
 80018fc:	20001174 	.word	0x20001174

08001900 <TMC_Get_Position>:

uint16_t TMC_Get_Position()
{
 8001900:	b580      	push	{r7, lr}
 8001902:	b082      	sub	sp, #8
 8001904:	af00      	add	r7, sp, #0
	uint32_t AngleT = 0;
 8001906:	2300      	movs	r3, #0
 8001908:	607b      	str	r3, [r7, #4]

	AngleT = TMC5160_SPIWrite(0x21, 0x00000000, 0); //read step counter from TMC5160
 800190a:	2200      	movs	r2, #0
 800190c:	2100      	movs	r1, #0
 800190e:	2021      	movs	r0, #33	; 0x21
 8001910:	f000 f852 	bl	80019b8 <TMC5160_SPIWrite>
 8001914:	0003      	movs	r3, r0
 8001916:	607b      	str	r3, [r7, #4]


	if((int)AngleT < 0)
 8001918:	687b      	ldr	r3, [r7, #4]
 800191a:	2b00      	cmp	r3, #0
 800191c:	da02      	bge.n	8001924 <TMC_Get_Position+0x24>
	{
		AngleT = AngleT * (-1); // make positive for easier math
 800191e:	687b      	ldr	r3, [r7, #4]
 8001920:	425b      	negs	r3, r3
 8001922:	607b      	str	r3, [r7, #4]
	}

	AngleT = ((AngleT / 256)* 1.8);//convert target position to angle
 8001924:	687b      	ldr	r3, [r7, #4]
 8001926:	0a1b      	lsrs	r3, r3, #8
 8001928:	0018      	movs	r0, r3
 800192a:	f7ff fbf9 	bl	8001120 <__aeabi_ui2d>
 800192e:	4a09      	ldr	r2, [pc, #36]	; (8001954 <TMC_Get_Position+0x54>)
 8001930:	4b09      	ldr	r3, [pc, #36]	; (8001958 <TMC_Get_Position+0x58>)
 8001932:	f7fe fd7b 	bl	800042c <__aeabi_dmul>
 8001936:	0002      	movs	r2, r0
 8001938:	000b      	movs	r3, r1
 800193a:	0010      	movs	r0, r2
 800193c:	0019      	movs	r1, r3
 800193e:	f7fe fd57 	bl	80003f0 <__aeabi_d2uiz>
 8001942:	0003      	movs	r3, r0
 8001944:	607b      	str	r3, [r7, #4]

	return AngleT;
 8001946:	687b      	ldr	r3, [r7, #4]
 8001948:	b29b      	uxth	r3, r3
}
 800194a:	0018      	movs	r0, r3
 800194c:	46bd      	mov	sp, r7
 800194e:	b002      	add	sp, #8
 8001950:	bd80      	pop	{r7, pc}
 8001952:	46c0      	nop			; (mov r8, r8)
 8001954:	cccccccd 	.word	0xcccccccd
 8001958:	3ffccccc 	.word	0x3ffccccc

0800195c <TMC5160_Stop>:

void TMC5160_Stop(void)
{
 800195c:	b580      	push	{r7, lr}
 800195e:	af00      	add	r7, sp, #0
	TMC5160_SPIWrite(0x27,0x00000000, 1); //set VMAX to 0
 8001960:	2201      	movs	r2, #1
 8001962:	2100      	movs	r1, #0
 8001964:	2027      	movs	r0, #39	; 0x27
 8001966:	f000 f827 	bl	80019b8 <TMC5160_SPIWrite>
}
 800196a:	46c0      	nop			; (mov r8, r8)
 800196c:	46bd      	mov	sp, r7
 800196e:	bd80      	pop	{r7, pc}

08001970 <Drive_Enable>:

void Drive_Enable(int state)
{
 8001970:	b580      	push	{r7, lr}
 8001972:	b082      	sub	sp, #8
 8001974:	af00      	add	r7, sp, #0
 8001976:	6078      	str	r0, [r7, #4]
	if(state == 1) // Enable driver
 8001978:	687b      	ldr	r3, [r7, #4]
 800197a:	2b01      	cmp	r3, #1
 800197c:	d10a      	bne.n	8001994 <Drive_Enable+0x24>
	{
		HAL_GPIO_WritePin(GPIOA, DRV_ENN_Pin, 0); // LOW = ON
 800197e:	2380      	movs	r3, #128	; 0x80
 8001980:	0059      	lsls	r1, r3, #1
 8001982:	2390      	movs	r3, #144	; 0x90
 8001984:	05db      	lsls	r3, r3, #23
 8001986:	2200      	movs	r2, #0
 8001988:	0018      	movs	r0, r3
 800198a:	f002 f95b 	bl	8003c44 <HAL_GPIO_WritePin>
		HAL_Delay(10);
 800198e:	200a      	movs	r0, #10
 8001990:	f000 ff00 	bl	8002794 <HAL_Delay>
	}

	if(state == 0) // disable drive
 8001994:	687b      	ldr	r3, [r7, #4]
 8001996:	2b00      	cmp	r3, #0
 8001998:	d10a      	bne.n	80019b0 <Drive_Enable+0x40>
	{
		HAL_GPIO_WritePin(GPIOA, DRV_ENN_Pin, 1); // HIGH = OFF
 800199a:	2380      	movs	r3, #128	; 0x80
 800199c:	0059      	lsls	r1, r3, #1
 800199e:	2390      	movs	r3, #144	; 0x90
 80019a0:	05db      	lsls	r3, r3, #23
 80019a2:	2201      	movs	r2, #1
 80019a4:	0018      	movs	r0, r3
 80019a6:	f002 f94d 	bl	8003c44 <HAL_GPIO_WritePin>
		HAL_Delay(10);
 80019aa:	200a      	movs	r0, #10
 80019ac:	f000 fef2 	bl	8002794 <HAL_Delay>
	}
}
 80019b0:	46c0      	nop			; (mov r8, r8)
 80019b2:	46bd      	mov	sp, r7
 80019b4:	b002      	add	sp, #8
 80019b6:	bd80      	pop	{r7, pc}

080019b8 <TMC5160_SPIWrite>:


uint32_t TMC5160_SPIWrite(uint8_t Address, uint32_t Value, int Action)
{
 80019b8:	b590      	push	{r4, r7, lr}
 80019ba:	b08d      	sub	sp, #52	; 0x34
 80019bc:	af02      	add	r7, sp, #8
 80019be:	60b9      	str	r1, [r7, #8]
 80019c0:	607a      	str	r2, [r7, #4]
 80019c2:	240f      	movs	r4, #15
 80019c4:	193b      	adds	r3, r7, r4
 80019c6:	1c02      	adds	r2, r0, #0
 80019c8:	701a      	strb	r2, [r3, #0]

	uint8_t SPI2TxData[5];  //TX data array SPI2
	uint8_t SPI2RxData[5];  //RX data array SPI2
	uint32_t SPI2Rx = 0;
 80019ca:	2300      	movs	r3, #0
 80019cc:	627b      	str	r3, [r7, #36]	; 0x24

	  HAL_GPIO_WritePin(GPIOB,TMC_CS_Pin,0); // set TMC CS low
 80019ce:	2380      	movs	r3, #128	; 0x80
 80019d0:	015b      	lsls	r3, r3, #5
 80019d2:	482d      	ldr	r0, [pc, #180]	; (8001a88 <TMC5160_SPIWrite+0xd0>)
 80019d4:	2200      	movs	r2, #0
 80019d6:	0019      	movs	r1, r3
 80019d8:	f002 f934 	bl	8003c44 <HAL_GPIO_WritePin>

	  if (Action == 1) //Write
 80019dc:	687b      	ldr	r3, [r7, #4]
 80019de:	2b01      	cmp	r3, #1
 80019e0:	d107      	bne.n	80019f2 <TMC5160_SPIWrite+0x3a>
	  {
		SPI2TxData[0] = Address + 0x80;
 80019e2:	193b      	adds	r3, r7, r4
 80019e4:	781b      	ldrb	r3, [r3, #0]
 80019e6:	3b80      	subs	r3, #128	; 0x80
 80019e8:	b2da      	uxtb	r2, r3
 80019ea:	231c      	movs	r3, #28
 80019ec:	18fb      	adds	r3, r7, r3
 80019ee:	701a      	strb	r2, [r3, #0]
 80019f0:	e005      	b.n	80019fe <TMC5160_SPIWrite+0x46>
	  }

	  else //Read
	  {
		SPI2TxData[0] = Address;
 80019f2:	231c      	movs	r3, #28
 80019f4:	18fb      	adds	r3, r7, r3
 80019f6:	220f      	movs	r2, #15
 80019f8:	18ba      	adds	r2, r7, r2
 80019fa:	7812      	ldrb	r2, [r2, #0]
 80019fc:	701a      	strb	r2, [r3, #0]
	  }

	  SPI2TxData[1] = Value >> 24;
 80019fe:	68bb      	ldr	r3, [r7, #8]
 8001a00:	0e1b      	lsrs	r3, r3, #24
 8001a02:	b2da      	uxtb	r2, r3
 8001a04:	211c      	movs	r1, #28
 8001a06:	187b      	adds	r3, r7, r1
 8001a08:	705a      	strb	r2, [r3, #1]
	  SPI2TxData[2] = Value >> 16;
 8001a0a:	68bb      	ldr	r3, [r7, #8]
 8001a0c:	0c1b      	lsrs	r3, r3, #16
 8001a0e:	b2da      	uxtb	r2, r3
 8001a10:	187b      	adds	r3, r7, r1
 8001a12:	709a      	strb	r2, [r3, #2]
	  SPI2TxData[3] = Value >> 8;
 8001a14:	68bb      	ldr	r3, [r7, #8]
 8001a16:	0a1b      	lsrs	r3, r3, #8
 8001a18:	b2da      	uxtb	r2, r3
 8001a1a:	187b      	adds	r3, r7, r1
 8001a1c:	70da      	strb	r2, [r3, #3]
	  SPI2TxData[4] = Value;
 8001a1e:	68bb      	ldr	r3, [r7, #8]
 8001a20:	b2da      	uxtb	r2, r3
 8001a22:	187b      	adds	r3, r7, r1
 8001a24:	711a      	strb	r2, [r3, #4]

	  HAL_SPI_TransmitReceive(&hspi2, SPI2TxData, SPI2RxData, 0x05, 100);
 8001a26:	2414      	movs	r4, #20
 8001a28:	193a      	adds	r2, r7, r4
 8001a2a:	1879      	adds	r1, r7, r1
 8001a2c:	4817      	ldr	r0, [pc, #92]	; (8001a8c <TMC5160_SPIWrite+0xd4>)
 8001a2e:	2364      	movs	r3, #100	; 0x64
 8001a30:	9300      	str	r3, [sp, #0]
 8001a32:	2305      	movs	r3, #5
 8001a34:	f002 feda 	bl	80047ec <HAL_SPI_TransmitReceive>


	  SPI2Rx += (SPI2RxData[1] << 24);
 8001a38:	0021      	movs	r1, r4
 8001a3a:	187b      	adds	r3, r7, r1
 8001a3c:	785b      	ldrb	r3, [r3, #1]
 8001a3e:	061b      	lsls	r3, r3, #24
 8001a40:	001a      	movs	r2, r3
 8001a42:	6a7b      	ldr	r3, [r7, #36]	; 0x24
 8001a44:	189b      	adds	r3, r3, r2
 8001a46:	627b      	str	r3, [r7, #36]	; 0x24
	  SPI2Rx += (SPI2RxData[2] << 16);
 8001a48:	187b      	adds	r3, r7, r1
 8001a4a:	789b      	ldrb	r3, [r3, #2]
 8001a4c:	041b      	lsls	r3, r3, #16
 8001a4e:	001a      	movs	r2, r3
 8001a50:	6a7b      	ldr	r3, [r7, #36]	; 0x24
 8001a52:	189b      	adds	r3, r3, r2
 8001a54:	627b      	str	r3, [r7, #36]	; 0x24
	  SPI2Rx += (SPI2RxData[3] << 8);
 8001a56:	187b      	adds	r3, r7, r1
 8001a58:	78db      	ldrb	r3, [r3, #3]
 8001a5a:	021b      	lsls	r3, r3, #8
 8001a5c:	001a      	movs	r2, r3
 8001a5e:	6a7b      	ldr	r3, [r7, #36]	; 0x24
 8001a60:	189b      	adds	r3, r3, r2
 8001a62:	627b      	str	r3, [r7, #36]	; 0x24
	  SPI2Rx += (SPI2RxData[4] << 0);
 8001a64:	187b      	adds	r3, r7, r1
 8001a66:	791b      	ldrb	r3, [r3, #4]
 8001a68:	001a      	movs	r2, r3
 8001a6a:	6a7b      	ldr	r3, [r7, #36]	; 0x24
 8001a6c:	189b      	adds	r3, r3, r2
 8001a6e:	627b      	str	r3, [r7, #36]	; 0x24

	  HAL_GPIO_WritePin(GPIOB,TMC_CS_Pin,1); // set TMC CS high
 8001a70:	2380      	movs	r3, #128	; 0x80
 8001a72:	015b      	lsls	r3, r3, #5
 8001a74:	4804      	ldr	r0, [pc, #16]	; (8001a88 <TMC5160_SPIWrite+0xd0>)
 8001a76:	2201      	movs	r2, #1
 8001a78:	0019      	movs	r1, r3
 8001a7a:	f002 f8e3 	bl	8003c44 <HAL_GPIO_WritePin>

	  return SPI2Rx;
 8001a7e:	6a7b      	ldr	r3, [r7, #36]	; 0x24
}
 8001a80:	0018      	movs	r0, r3
 8001a82:	46bd      	mov	sp, r7
 8001a84:	b00b      	add	sp, #44	; 0x2c
 8001a86:	bd90      	pop	{r4, r7, pc}
 8001a88:	48000400 	.word	0x48000400
 8001a8c:	200010a4 	.word	0x200010a4

08001a90 <AMS5055_Basic_Init>:

void AMS5055_Basic_Init(void)
{
 8001a90:	b580      	push	{r7, lr}
 8001a92:	af00      	add	r7, sp, #0
	AMSoffset = AMS5055_Get_Position();  // Angle read when standstill is offset
 8001a94:	f000 f80a 	bl	8001aac <AMS5055_Get_Position>
 8001a98:	0003      	movs	r3, r0
 8001a9a:	001a      	movs	r2, r3
 8001a9c:	4b02      	ldr	r3, [pc, #8]	; (8001aa8 <AMS5055_Basic_Init+0x18>)
 8001a9e:	801a      	strh	r2, [r3, #0]
}
 8001aa0:	46c0      	nop			; (mov r8, r8)
 8001aa2:	46bd      	mov	sp, r7
 8001aa4:	bd80      	pop	{r7, pc}
 8001aa6:	46c0      	nop			; (mov r8, r8)
 8001aa8:	20000028 	.word	0x20000028

08001aac <AMS5055_Get_Position>:

uint16_t AMS5055_Get_Position(void)
{
 8001aac:	b5b0      	push	{r4, r5, r7, lr}
 8001aae:	b084      	sub	sp, #16
 8001ab0:	af00      	add	r7, sp, #0
	uint16_t Angle = 0;
 8001ab2:	230e      	movs	r3, #14
 8001ab4:	18fb      	adds	r3, r7, r3
 8001ab6:	2200      	movs	r2, #0
 8001ab8:	801a      	strh	r2, [r3, #0]
	int AlarmLo = 0;
 8001aba:	2300      	movs	r3, #0
 8001abc:	60bb      	str	r3, [r7, #8]
	int AlarmHi = 0;
 8001abe:	2300      	movs	r3, #0
 8001ac0:	607b      	str	r3, [r7, #4]

	AMS5055_SPIWriteInt(ANGULAR_DATA,1);
 8001ac2:	4b34      	ldr	r3, [pc, #208]	; (8001b94 <AMS5055_Get_Position+0xe8>)
 8001ac4:	2101      	movs	r1, #1
 8001ac6:	0018      	movs	r0, r3
 8001ac8:	f000 f8a4 	bl	8001c14 <AMS5055_SPIWriteInt>

	while(AMS_Ready != 1) //wacht op INT
 8001acc:	46c0      	nop			; (mov r8, r8)
 8001ace:	4b32      	ldr	r3, [pc, #200]	; (8001b98 <AMS5055_Get_Position+0xec>)
 8001ad0:	781b      	ldrb	r3, [r3, #0]
 8001ad2:	2b01      	cmp	r3, #1
 8001ad4:	d1fb      	bne.n	8001ace <AMS5055_Get_Position+0x22>
	{
	}

	Angle = AMS5055_SPIWriteInt(NOP,1);
 8001ad6:	250e      	movs	r5, #14
 8001ad8:	197c      	adds	r4, r7, r5
 8001ada:	2101      	movs	r1, #1
 8001adc:	2000      	movs	r0, #0
 8001ade:	f000 f899 	bl	8001c14 <AMS5055_SPIWriteInt>
 8001ae2:	0003      	movs	r3, r0
 8001ae4:	8023      	strh	r3, [r4, #0]

	AlarmHi = (Angle >> 12) & 0x01; // AlamHi = b14
 8001ae6:	0029      	movs	r1, r5
 8001ae8:	187b      	adds	r3, r7, r1
 8001aea:	881b      	ldrh	r3, [r3, #0]
 8001aec:	0b1b      	lsrs	r3, r3, #12
 8001aee:	b29b      	uxth	r3, r3
 8001af0:	001a      	movs	r2, r3
 8001af2:	2301      	movs	r3, #1
 8001af4:	4013      	ands	r3, r2
 8001af6:	607b      	str	r3, [r7, #4]
	AlarmLo = (Angle >> 13) & 0x01; // AlarmLo = b15
 8001af8:	187b      	adds	r3, r7, r1
 8001afa:	881b      	ldrh	r3, [r3, #0]
 8001afc:	0b5b      	lsrs	r3, r3, #13
 8001afe:	b29b      	uxth	r3, r3
 8001b00:	001a      	movs	r2, r3
 8001b02:	2301      	movs	r3, #1
 8001b04:	4013      	ands	r3, r2
 8001b06:	60bb      	str	r3, [r7, #8]
		//magnetic field too strong , lower AGC ?
	}

	// remove first 2 and last 2 bits

	Angle &= ~(1 << 14);
 8001b08:	000c      	movs	r4, r1
 8001b0a:	193b      	adds	r3, r7, r4
 8001b0c:	193a      	adds	r2, r7, r4
 8001b0e:	8812      	ldrh	r2, [r2, #0]
 8001b10:	4922      	ldr	r1, [pc, #136]	; (8001b9c <AMS5055_Get_Position+0xf0>)
 8001b12:	400a      	ands	r2, r1
 8001b14:	801a      	strh	r2, [r3, #0]
	Angle &= ~(1 << 15);
 8001b16:	193b      	adds	r3, r7, r4
 8001b18:	193a      	adds	r2, r7, r4
 8001b1a:	8812      	ldrh	r2, [r2, #0]
 8001b1c:	0452      	lsls	r2, r2, #17
 8001b1e:	0c52      	lsrs	r2, r2, #17
 8001b20:	801a      	strh	r2, [r3, #0]
	Angle = (Angle >> 2);
 8001b22:	193b      	adds	r3, r7, r4
 8001b24:	193a      	adds	r2, r7, r4
 8001b26:	8812      	ldrh	r2, [r2, #0]
 8001b28:	0892      	lsrs	r2, r2, #2
 8001b2a:	801a      	strh	r2, [r3, #0]

	Angle = ((Angle * 360) / 4095); //12 bit resolution
 8001b2c:	193b      	adds	r3, r7, r4
 8001b2e:	881a      	ldrh	r2, [r3, #0]
 8001b30:	0013      	movs	r3, r2
 8001b32:	005b      	lsls	r3, r3, #1
 8001b34:	189b      	adds	r3, r3, r2
 8001b36:	011a      	lsls	r2, r3, #4
 8001b38:	1ad2      	subs	r2, r2, r3
 8001b3a:	00d3      	lsls	r3, r2, #3
 8001b3c:	001a      	movs	r2, r3
 8001b3e:	0013      	movs	r3, r2
 8001b40:	4917      	ldr	r1, [pc, #92]	; (8001ba0 <AMS5055_Get_Position+0xf4>)
 8001b42:	0018      	movs	r0, r3
 8001b44:	f7fe fb68 	bl	8000218 <__divsi3>
 8001b48:	0003      	movs	r3, r0
 8001b4a:	001a      	movs	r2, r3
 8001b4c:	193b      	adds	r3, r7, r4
 8001b4e:	801a      	strh	r2, [r3, #0]

	Angle = Angle - AMSoffset;  // AMS is not calibrated, so angle needs to be fixed
 8001b50:	4b14      	ldr	r3, [pc, #80]	; (8001ba4 <AMS5055_Get_Position+0xf8>)
 8001b52:	881a      	ldrh	r2, [r3, #0]
 8001b54:	193b      	adds	r3, r7, r4
 8001b56:	1939      	adds	r1, r7, r4
 8001b58:	8809      	ldrh	r1, [r1, #0]
 8001b5a:	1a8a      	subs	r2, r1, r2
 8001b5c:	801a      	strh	r2, [r3, #0]
	if((int)Angle <= 0)
 8001b5e:	193b      	adds	r3, r7, r4
 8001b60:	881b      	ldrh	r3, [r3, #0]
 8001b62:	2b00      	cmp	r3, #0
 8001b64:	d106      	bne.n	8001b74 <AMS5055_Get_Position+0xc8>
	{
		Angle = Angle + 360;
 8001b66:	193b      	adds	r3, r7, r4
 8001b68:	193a      	adds	r2, r7, r4
 8001b6a:	8812      	ldrh	r2, [r2, #0]
 8001b6c:	3269      	adds	r2, #105	; 0x69
 8001b6e:	32ff      	adds	r2, #255	; 0xff
 8001b70:	801a      	strh	r2, [r3, #0]
 8001b72:	e007      	b.n	8001b84 <AMS5055_Get_Position+0xd8>
		Ax = 0;
	}*/

	else
	{
		Ax++;
 8001b74:	4b0c      	ldr	r3, [pc, #48]	; (8001ba8 <AMS5055_Get_Position+0xfc>)
 8001b76:	681b      	ldr	r3, [r3, #0]
 8001b78:	1c5a      	adds	r2, r3, #1
 8001b7a:	4b0b      	ldr	r3, [pc, #44]	; (8001ba8 <AMS5055_Get_Position+0xfc>)
 8001b7c:	601a      	str	r2, [r3, #0]
		AMS_Ready = 0;
 8001b7e:	4b06      	ldr	r3, [pc, #24]	; (8001b98 <AMS5055_Get_Position+0xec>)
 8001b80:	2200      	movs	r2, #0
 8001b82:	701a      	strb	r2, [r3, #0]
	}

	return Angle;
 8001b84:	230e      	movs	r3, #14
 8001b86:	18fb      	adds	r3, r7, r3
 8001b88:	881b      	ldrh	r3, [r3, #0]
}
 8001b8a:	0018      	movs	r0, r3
 8001b8c:	46bd      	mov	sp, r7
 8001b8e:	b004      	add	sp, #16
 8001b90:	bdb0      	pop	{r4, r5, r7, pc}
 8001b92:	46c0      	nop			; (mov r8, r8)
 8001b94:	00003fff 	.word	0x00003fff
 8001b98:	20000fd4 	.word	0x20000fd4
 8001b9c:	ffffbfff 	.word	0xffffbfff
 8001ba0:	00000fff 	.word	0x00000fff
 8001ba4:	20000028 	.word	0x20000028
 8001ba8:	20000fd0 	.word	0x20000fd0

08001bac <AMSParity>:

uint8_t AMSParity(uint16_t value)
{
 8001bac:	b580      	push	{r7, lr}
 8001bae:	b084      	sub	sp, #16
 8001bb0:	af00      	add	r7, sp, #0
 8001bb2:	0002      	movs	r2, r0
 8001bb4:	1dbb      	adds	r3, r7, #6
 8001bb6:	801a      	strh	r2, [r3, #0]
	uint8_t cnt = 0;
 8001bb8:	230f      	movs	r3, #15
 8001bba:	18fb      	adds	r3, r7, r3
 8001bbc:	2200      	movs	r2, #0
 8001bbe:	701a      	strb	r2, [r3, #0]
	uint8_t i;

	for (i = 0; i < 16; i++)
 8001bc0:	230e      	movs	r3, #14
 8001bc2:	18fb      	adds	r3, r7, r3
 8001bc4:	2200      	movs	r2, #0
 8001bc6:	701a      	strb	r2, [r3, #0]
 8001bc8:	e015      	b.n	8001bf6 <AMSParity+0x4a>
	{
		if (value & 0x1)
 8001bca:	1dbb      	adds	r3, r7, #6
 8001bcc:	881b      	ldrh	r3, [r3, #0]
 8001bce:	2201      	movs	r2, #1
 8001bd0:	4013      	ands	r3, r2
 8001bd2:	d005      	beq.n	8001be0 <AMSParity+0x34>
		{
			cnt++;
 8001bd4:	210f      	movs	r1, #15
 8001bd6:	187b      	adds	r3, r7, r1
 8001bd8:	781a      	ldrb	r2, [r3, #0]
 8001bda:	187b      	adds	r3, r7, r1
 8001bdc:	3201      	adds	r2, #1
 8001bde:	701a      	strb	r2, [r3, #0]
		}

		value >>= 1;
 8001be0:	1dbb      	adds	r3, r7, #6
 8001be2:	1dba      	adds	r2, r7, #6
 8001be4:	8812      	ldrh	r2, [r2, #0]
 8001be6:	0852      	lsrs	r2, r2, #1
 8001be8:	801a      	strh	r2, [r3, #0]
	for (i = 0; i < 16; i++)
 8001bea:	210e      	movs	r1, #14
 8001bec:	187b      	adds	r3, r7, r1
 8001bee:	781a      	ldrb	r2, [r3, #0]
 8001bf0:	187b      	adds	r3, r7, r1
 8001bf2:	3201      	adds	r2, #1
 8001bf4:	701a      	strb	r2, [r3, #0]
 8001bf6:	230e      	movs	r3, #14
 8001bf8:	18fb      	adds	r3, r7, r3
 8001bfa:	781b      	ldrb	r3, [r3, #0]
 8001bfc:	2b0f      	cmp	r3, #15
 8001bfe:	d9e4      	bls.n	8001bca <AMSParity+0x1e>
	}
	return cnt & 0x1;
 8001c00:	230f      	movs	r3, #15
 8001c02:	18fb      	adds	r3, r7, r3
 8001c04:	781b      	ldrb	r3, [r3, #0]
 8001c06:	2201      	movs	r2, #1
 8001c08:	4013      	ands	r3, r2
 8001c0a:	b2db      	uxtb	r3, r3
}
 8001c0c:	0018      	movs	r0, r3
 8001c0e:	46bd      	mov	sp, r7
 8001c10:	b004      	add	sp, #16
 8001c12:	bd80      	pop	{r7, pc}

08001c14 <AMS5055_SPIWriteInt>:

uint16_t AMS5055_SPIWriteInt(uint16_t Address, int Action)
{
 8001c14:	b590      	push	{r4, r7, lr}
 8001c16:	b089      	sub	sp, #36	; 0x24
 8001c18:	af02      	add	r7, sp, #8
 8001c1a:	0002      	movs	r2, r0
 8001c1c:	6039      	str	r1, [r7, #0]
 8001c1e:	1dbb      	adds	r3, r7, #6
 8001c20:	801a      	strh	r2, [r3, #0]
	*/

	uint8_t SPI1TxData[2];	//TX data array SPI1
	uint8_t SPI1RxData[2];	//RX data array SPI1

	uint16_t SPI1Rx = 0;
 8001c22:	2314      	movs	r3, #20
 8001c24:	18fb      	adds	r3, r7, r3
 8001c26:	2200      	movs	r2, #0
 8001c28:	801a      	strh	r2, [r3, #0]
	uint16_t SPI1Tx = 0;
 8001c2a:	2416      	movs	r4, #22
 8001c2c:	193b      	adds	r3, r7, r4
 8001c2e:	2200      	movs	r2, #0
 8001c30:	801a      	strh	r2, [r3, #0]

	HAL_GPIO_WritePin(GPIOA,AMS_CS_Pin,0); // set TMC CS low
 8001c32:	2390      	movs	r3, #144	; 0x90
 8001c34:	05db      	lsls	r3, r3, #23
 8001c36:	2200      	movs	r2, #0
 8001c38:	2110      	movs	r1, #16
 8001c3a:	0018      	movs	r0, r3
 8001c3c:	f002 f802 	bl	8003c44 <HAL_GPIO_WritePin>


	  SPI1Tx = (Address << 1);
 8001c40:	0021      	movs	r1, r4
 8001c42:	187a      	adds	r2, r7, r1
 8001c44:	1dbb      	adds	r3, r7, #6
 8001c46:	881b      	ldrh	r3, [r3, #0]
 8001c48:	18db      	adds	r3, r3, r3
 8001c4a:	8013      	strh	r3, [r2, #0]

	  if (Action == 1) //READ
 8001c4c:	683b      	ldr	r3, [r7, #0]
 8001c4e:	2b01      	cmp	r3, #1
 8001c50:	d105      	bne.n	8001c5e <AMS5055_SPIWriteInt+0x4a>
	  {
		  SPI1Tx = SPI1Tx | 0x8000;
 8001c52:	187b      	adds	r3, r7, r1
 8001c54:	187a      	adds	r2, r7, r1
 8001c56:	8812      	ldrh	r2, [r2, #0]
 8001c58:	4923      	ldr	r1, [pc, #140]	; (8001ce8 <AMS5055_SPIWriteInt+0xd4>)
 8001c5a:	430a      	orrs	r2, r1
 8001c5c:	801a      	strh	r2, [r3, #0]
	  }

	  SPI1Tx = SPI1Tx | AMSParity(SPI1Tx);
 8001c5e:	2416      	movs	r4, #22
 8001c60:	193b      	adds	r3, r7, r4
 8001c62:	881b      	ldrh	r3, [r3, #0]
 8001c64:	0018      	movs	r0, r3
 8001c66:	f7ff ffa1 	bl	8001bac <AMSParity>
 8001c6a:	0003      	movs	r3, r0
 8001c6c:	b299      	uxth	r1, r3
 8001c6e:	193b      	adds	r3, r7, r4
 8001c70:	193a      	adds	r2, r7, r4
 8001c72:	8812      	ldrh	r2, [r2, #0]
 8001c74:	430a      	orrs	r2, r1
 8001c76:	801a      	strh	r2, [r3, #0]

	 // HAL_GPIO_WritePin(GPIOA,AMS_CS_Pin,0); // set TMC CS low

	  SPI1TxData[0] = SPI1Tx >> 8;
 8001c78:	0021      	movs	r1, r4
 8001c7a:	193b      	adds	r3, r7, r4
 8001c7c:	881b      	ldrh	r3, [r3, #0]
 8001c7e:	0a1b      	lsrs	r3, r3, #8
 8001c80:	b29b      	uxth	r3, r3
 8001c82:	b2da      	uxtb	r2, r3
 8001c84:	2010      	movs	r0, #16
 8001c86:	183b      	adds	r3, r7, r0
 8001c88:	701a      	strb	r2, [r3, #0]
	  SPI1TxData[1] = SPI1Tx;
 8001c8a:	187b      	adds	r3, r7, r1
 8001c8c:	881b      	ldrh	r3, [r3, #0]
 8001c8e:	b2da      	uxtb	r2, r3
 8001c90:	183b      	adds	r3, r7, r0
 8001c92:	705a      	strb	r2, [r3, #1]

	  HAL_SPI_TransmitReceive(&hspi1, SPI1TxData, SPI1RxData, 0x02, 100);
 8001c94:	240c      	movs	r4, #12
 8001c96:	193a      	adds	r2, r7, r4
 8001c98:	1839      	adds	r1, r7, r0
 8001c9a:	4814      	ldr	r0, [pc, #80]	; (8001cec <AMS5055_SPIWriteInt+0xd8>)
 8001c9c:	2364      	movs	r3, #100	; 0x64
 8001c9e:	9300      	str	r3, [sp, #0]
 8001ca0:	2302      	movs	r3, #2
 8001ca2:	f002 fda3 	bl	80047ec <HAL_SPI_TransmitReceive>
	//HAL_SPI_TransmitReceive(&hspi1, SPI1Tx, SPI1Rx, 0x02, 100);

	  //HAL_GPIO_WritePin(GPIOA,AMS_CS_Pin,1); // set TMC CS high

	  SPI1Rx += (SPI1RxData[0] << 8);	//<< 8
 8001ca6:	193b      	adds	r3, r7, r4
 8001ca8:	781b      	ldrb	r3, [r3, #0]
 8001caa:	b29b      	uxth	r3, r3
 8001cac:	021b      	lsls	r3, r3, #8
 8001cae:	b299      	uxth	r1, r3
 8001cb0:	2014      	movs	r0, #20
 8001cb2:	183b      	adds	r3, r7, r0
 8001cb4:	183a      	adds	r2, r7, r0
 8001cb6:	8812      	ldrh	r2, [r2, #0]
 8001cb8:	188a      	adds	r2, r1, r2
 8001cba:	801a      	strh	r2, [r3, #0]
	  SPI1Rx += (SPI1RxData[1] << 0);	//<< 0
 8001cbc:	193b      	adds	r3, r7, r4
 8001cbe:	785b      	ldrb	r3, [r3, #1]
 8001cc0:	b299      	uxth	r1, r3
 8001cc2:	183b      	adds	r3, r7, r0
 8001cc4:	0004      	movs	r4, r0
 8001cc6:	183a      	adds	r2, r7, r0
 8001cc8:	8812      	ldrh	r2, [r2, #0]
 8001cca:	188a      	adds	r2, r1, r2
 8001ccc:	801a      	strh	r2, [r3, #0]

	  HAL_GPIO_WritePin(GPIOA,AMS_CS_Pin,1); // set TMC CS high
 8001cce:	2390      	movs	r3, #144	; 0x90
 8001cd0:	05db      	lsls	r3, r3, #23
 8001cd2:	2201      	movs	r2, #1
 8001cd4:	2110      	movs	r1, #16
 8001cd6:	0018      	movs	r0, r3
 8001cd8:	f001 ffb4 	bl	8003c44 <HAL_GPIO_WritePin>

	  return SPI1Rx;
 8001cdc:	193b      	adds	r3, r7, r4
 8001cde:	881b      	ldrh	r3, [r3, #0]
}
 8001ce0:	0018      	movs	r0, r3
 8001ce2:	46bd      	mov	sp, r7
 8001ce4:	b007      	add	sp, #28
 8001ce6:	bd90      	pop	{r4, r7, pc}
 8001ce8:	ffff8000 	.word	0xffff8000
 8001cec:	20001040 	.word	0x20001040

08001cf0 <ENC_Get_Position>:

uint16_t ENC_Get_Position(void)
{
 8001cf0:	b580      	push	{r7, lr}
 8001cf2:	b082      	sub	sp, #8
 8001cf4:	af00      	add	r7, sp, #0
	uint32_t Enc_Position = TMC5160_SPIWrite(0x39, 0x00000000, 0); // read encoder position
 8001cf6:	2200      	movs	r2, #0
 8001cf8:	2100      	movs	r1, #0
 8001cfa:	2039      	movs	r0, #57	; 0x39
 8001cfc:	f7ff fe5c 	bl	80019b8 <TMC5160_SPIWrite>
 8001d00:	0003      	movs	r3, r0
 8001d02:	607b      	str	r3, [r7, #4]

	if((int)Enc_Position <= 0)
 8001d04:	687b      	ldr	r3, [r7, #4]
 8001d06:	2b00      	cmp	r3, #0
 8001d08:	dc02      	bgt.n	8001d10 <ENC_Get_Position+0x20>
	{
		Enc_Position = Enc_Position * (-1);
 8001d0a:	687b      	ldr	r3, [r7, #4]
 8001d0c:	425b      	negs	r3, r3
 8001d0e:	607b      	str	r3, [r7, #4]
	}

	Enc_Position = ((Enc_Position / 256)* 1.8);
 8001d10:	687b      	ldr	r3, [r7, #4]
 8001d12:	0a1b      	lsrs	r3, r3, #8
 8001d14:	0018      	movs	r0, r3
 8001d16:	f7ff fa03 	bl	8001120 <__aeabi_ui2d>
 8001d1a:	4a09      	ldr	r2, [pc, #36]	; (8001d40 <ENC_Get_Position+0x50>)
 8001d1c:	4b09      	ldr	r3, [pc, #36]	; (8001d44 <ENC_Get_Position+0x54>)
 8001d1e:	f7fe fb85 	bl	800042c <__aeabi_dmul>
 8001d22:	0002      	movs	r2, r0
 8001d24:	000b      	movs	r3, r1
 8001d26:	0010      	movs	r0, r2
 8001d28:	0019      	movs	r1, r3
 8001d2a:	f7fe fb61 	bl	80003f0 <__aeabi_d2uiz>
 8001d2e:	0003      	movs	r3, r0
 8001d30:	607b      	str	r3, [r7, #4]

	return Enc_Position;
 8001d32:	687b      	ldr	r3, [r7, #4]
 8001d34:	b29b      	uxth	r3, r3
}
 8001d36:	0018      	movs	r0, r3
 8001d38:	46bd      	mov	sp, r7
 8001d3a:	b002      	add	sp, #8
 8001d3c:	bd80      	pop	{r7, pc}
 8001d3e:	46c0      	nop			; (mov r8, r8)
 8001d40:	cccccccd 	.word	0xcccccccd
 8001d44:	3ffccccc 	.word	0x3ffccccc

08001d48 <HAL_CAN_RxFifo0MsgPendingCallback>:
uint32_t TxMailbox[3];	//CAN Mailbox
int Datacheck;			//temp value for checking incomming CAN Data

/*  CAN RECEIVE INTERRUPT */
void HAL_CAN_RxFifo0MsgPendingCallback(CAN_HandleTypeDef *hcan)
{
 8001d48:	b580      	push	{r7, lr}
 8001d4a:	b082      	sub	sp, #8
 8001d4c:	af00      	add	r7, sp, #0
 8001d4e:	6078      	str	r0, [r7, #4]
	HAL_CAN_GetRxMessage(hcan, CAN_RX_FIFO0, &CANRxHeader, CANRxData);
 8001d50:	4b08      	ldr	r3, [pc, #32]	; (8001d74 <HAL_CAN_RxFifo0MsgPendingCallback+0x2c>)
 8001d52:	4a09      	ldr	r2, [pc, #36]	; (8001d78 <HAL_CAN_RxFifo0MsgPendingCallback+0x30>)
 8001d54:	6878      	ldr	r0, [r7, #4]
 8001d56:	2100      	movs	r1, #0
 8001d58:	f001 f9c4 	bl	80030e4 <HAL_CAN_GetRxMessage>

	if (CANRxData[0] == 0x01)
 8001d5c:	4b05      	ldr	r3, [pc, #20]	; (8001d74 <HAL_CAN_RxFifo0MsgPendingCallback+0x2c>)
 8001d5e:	781b      	ldrb	r3, [r3, #0]
 8001d60:	2b01      	cmp	r3, #1
 8001d62:	d102      	bne.n	8001d6a <HAL_CAN_RxFifo0MsgPendingCallback+0x22>
	{
		Datacheck = 1;
 8001d64:	4b05      	ldr	r3, [pc, #20]	; (8001d7c <HAL_CAN_RxFifo0MsgPendingCallback+0x34>)
 8001d66:	2201      	movs	r2, #1
 8001d68:	601a      	str	r2, [r3, #0]
	}
}
 8001d6a:	46c0      	nop			; (mov r8, r8)
 8001d6c:	46bd      	mov	sp, r7
 8001d6e:	b002      	add	sp, #8
 8001d70:	bd80      	pop	{r7, pc}
 8001d72:	46c0      	nop			; (mov r8, r8)
 8001d74:	20001198 	.word	0x20001198
 8001d78:	2000117c 	.word	0x2000117c
 8001d7c:	200011a0 	.word	0x200011a0

08001d80 <HAL_GPIO_EXTI_Callback>:

/* AMS INTERRUPT */
void HAL_GPIO_EXTI_Callback(uint16_t GPIO_Pin)
{
 8001d80:	b580      	push	{r7, lr}
 8001d82:	b082      	sub	sp, #8
 8001d84:	af00      	add	r7, sp, #0
 8001d86:	0002      	movs	r2, r0
 8001d88:	1dbb      	adds	r3, r7, #6
 8001d8a:	801a      	strh	r2, [r3, #0]
	if(GPIO_Pin == AMS_INT_Pin && AMS_Ready == 0)
 8001d8c:	1dbb      	adds	r3, r7, #6
 8001d8e:	881b      	ldrh	r3, [r3, #0]
 8001d90:	2b01      	cmp	r3, #1
 8001d92:	d106      	bne.n	8001da2 <HAL_GPIO_EXTI_Callback+0x22>
 8001d94:	4b05      	ldr	r3, [pc, #20]	; (8001dac <HAL_GPIO_EXTI_Callback+0x2c>)
 8001d96:	781b      	ldrb	r3, [r3, #0]
 8001d98:	2b00      	cmp	r3, #0
 8001d9a:	d102      	bne.n	8001da2 <HAL_GPIO_EXTI_Callback+0x22>
	{
		AMS_Ready = 1;
 8001d9c:	4b03      	ldr	r3, [pc, #12]	; (8001dac <HAL_GPIO_EXTI_Callback+0x2c>)
 8001d9e:	2201      	movs	r2, #1
 8001da0:	701a      	strb	r2, [r3, #0]
	}
}
 8001da2:	46c0      	nop			; (mov r8, r8)
 8001da4:	46bd      	mov	sp, r7
 8001da6:	b002      	add	sp, #8
 8001da8:	bd80      	pop	{r7, pc}
 8001daa:	46c0      	nop			; (mov r8, r8)
 8001dac:	20000fd4 	.word	0x20000fd4

08001db0 <main>:
/**
  * @brief  The application entry point.
  * @retval int
  */
int main(void)
{
 8001db0:	b580      	push	{r7, lr}
 8001db2:	af00      	add	r7, sp, #0

  /* MCU Configuration--------------------------------------------------------*/

  /* Reset of all peripherals, Initializes the Flash interface and the Systick. */

	HAL_Init();
 8001db4:	f000 fc8a 	bl	80026cc <HAL_Init>
  /* USER CODE BEGIN Init */

  /* USER CODE END Init */

  /* Configure the system clock */
  SystemClock_Config();
 8001db8:	f000 f8a0 	bl	8001efc <SystemClock_Config>
  /* USER CODE BEGIN SysInit */

  /* USER CODE END SysInit */

  /* Initialize all configured peripherals */
  MX_GPIO_Init();
 8001dbc:	f000 fa26 	bl	800220c <MX_GPIO_Init>
  MX_ADC_Init();
 8001dc0:	f000 f8e0 	bl	8001f84 <MX_ADC_Init>
  MX_CAN_Init();
 8001dc4:	f000 f93a 	bl	800203c <MX_CAN_Init>
  MX_SPI1_Init();
 8001dc8:	f000 f9a4 	bl	8002114 <MX_SPI1_Init>
  MX_SPI2_Init();
 8001dcc:	f000 f9e0 	bl	8002190 <MX_SPI2_Init>
  /* USER CODE BEGIN 2 */

  TMC5160_Stop();
 8001dd0:	f7ff fdc4 	bl	800195c <TMC5160_Stop>
  HAL_Delay(2500);	//startup delay, so motor does not spin on debug
 8001dd4:	4b40      	ldr	r3, [pc, #256]	; (8001ed8 <main+0x128>)
 8001dd6:	0018      	movs	r0, r3
 8001dd8:	f000 fcdc 	bl	8002794 <HAL_Delay>

  Ramp1.VSTART 	= 10;
 8001ddc:	4b3f      	ldr	r3, [pc, #252]	; (8001edc <main+0x12c>)
 8001dde:	220a      	movs	r2, #10
 8001de0:	601a      	str	r2, [r3, #0]
  Ramp1.A1 		= 1000;
 8001de2:	4b3e      	ldr	r3, [pc, #248]	; (8001edc <main+0x12c>)
 8001de4:	22fa      	movs	r2, #250	; 0xfa
 8001de6:	0092      	lsls	r2, r2, #2
 8001de8:	605a      	str	r2, [r3, #4]
  Ramp1.V1 		= 10000;
 8001dea:	4b3c      	ldr	r3, [pc, #240]	; (8001edc <main+0x12c>)
 8001dec:	4a3c      	ldr	r2, [pc, #240]	; (8001ee0 <main+0x130>)
 8001dee:	609a      	str	r2, [r3, #8]
  Ramp1.AMAX 	= 12800;
 8001df0:	4b3a      	ldr	r3, [pc, #232]	; (8001edc <main+0x12c>)
 8001df2:	22c8      	movs	r2, #200	; 0xc8
 8001df4:	0192      	lsls	r2, r2, #6
 8001df6:	60da      	str	r2, [r3, #12]
  Ramp1.VMAX 	= 51200;
 8001df8:	4b38      	ldr	r3, [pc, #224]	; (8001edc <main+0x12c>)
 8001dfa:	22c8      	movs	r2, #200	; 0xc8
 8001dfc:	0212      	lsls	r2, r2, #8
 8001dfe:	611a      	str	r2, [r3, #16]
  Ramp1.DMAX 	= 700;
 8001e00:	4b36      	ldr	r3, [pc, #216]	; (8001edc <main+0x12c>)
 8001e02:	22af      	movs	r2, #175	; 0xaf
 8001e04:	0092      	lsls	r2, r2, #2
 8001e06:	615a      	str	r2, [r3, #20]
  Ramp1.D1 		= 1400;
 8001e08:	4b34      	ldr	r3, [pc, #208]	; (8001edc <main+0x12c>)
 8001e0a:	22af      	movs	r2, #175	; 0xaf
 8001e0c:	00d2      	lsls	r2, r2, #3
 8001e0e:	619a      	str	r2, [r3, #24]
  Ramp1.VSTOP 	= 10;
 8001e10:	4b32      	ldr	r3, [pc, #200]	; (8001edc <main+0x12c>)
 8001e12:	220a      	movs	r2, #10
 8001e14:	61da      	str	r2, [r3, #28]

  StallSettings1.VSTART = 10;
 8001e16:	4b33      	ldr	r3, [pc, #204]	; (8001ee4 <main+0x134>)
 8001e18:	220a      	movs	r2, #10
 8001e1a:	601a      	str	r2, [r3, #0]
  StallSettings1.AMAX 	= 51200;
 8001e1c:	4b31      	ldr	r3, [pc, #196]	; (8001ee4 <main+0x134>)
 8001e1e:	22c8      	movs	r2, #200	; 0xc8
 8001e20:	0212      	lsls	r2, r2, #8
 8001e22:	60da      	str	r2, [r3, #12]
  StallSettings1.VMAX 	= 102400; // 2 RPS
 8001e24:	4b2f      	ldr	r3, [pc, #188]	; (8001ee4 <main+0x134>)
 8001e26:	22c8      	movs	r2, #200	; 0xc8
 8001e28:	0252      	lsls	r2, r2, #9
 8001e2a:	611a      	str	r2, [r3, #16]
  StallSettings1.VSTOP 	= 10;
 8001e2c:	4b2d      	ldr	r3, [pc, #180]	; (8001ee4 <main+0x134>)
 8001e2e:	220a      	movs	r2, #10
 8001e30:	61da      	str	r2, [r3, #28]

  StealthSettings1.VSTART 	= 10;
 8001e32:	4b2d      	ldr	r3, [pc, #180]	; (8001ee8 <main+0x138>)
 8001e34:	220a      	movs	r2, #10
 8001e36:	601a      	str	r2, [r3, #0]
  StealthSettings1.AMAX 	= 2000;
 8001e38:	4b2b      	ldr	r3, [pc, #172]	; (8001ee8 <main+0x138>)
 8001e3a:	22fa      	movs	r2, #250	; 0xfa
 8001e3c:	00d2      	lsls	r2, r2, #3
 8001e3e:	60da      	str	r2, [r3, #12]
  StealthSettings1.VMAX 	= 5000;
 8001e40:	4b29      	ldr	r3, [pc, #164]	; (8001ee8 <main+0x138>)
 8001e42:	4a2a      	ldr	r2, [pc, #168]	; (8001eec <main+0x13c>)
 8001e44:	611a      	str	r2, [r3, #16]
  StealthSettings1.VSTOP 	= 10;
 8001e46:	4b28      	ldr	r3, [pc, #160]	; (8001ee8 <main+0x138>)
 8001e48:	220a      	movs	r2, #10
 8001e4a:	61da      	str	r2, [r3, #28]

  CurrentSetting1.IHOLD = 3;
 8001e4c:	4b28      	ldr	r3, [pc, #160]	; (8001ef0 <main+0x140>)
 8001e4e:	2203      	movs	r2, #3
 8001e50:	605a      	str	r2, [r3, #4]
  CurrentSetting1.IRUN 	= 1;
 8001e52:	4b27      	ldr	r3, [pc, #156]	; (8001ef0 <main+0x140>)
 8001e54:	2201      	movs	r2, #1
 8001e56:	601a      	str	r2, [r3, #0]


  TMC5160_Basic_Init(&CurrentSetting1);
 8001e58:	4b25      	ldr	r3, [pc, #148]	; (8001ef0 <main+0x140>)
 8001e5a:	0018      	movs	r0, r3
 8001e5c:	f7ff faee 	bl	800143c <TMC5160_Basic_Init>

  //TMC5160_Init_Stealthchop();

  if(AMS_ENB == 1)
 8001e60:	4b24      	ldr	r3, [pc, #144]	; (8001ef4 <main+0x144>)
 8001e62:	681b      	ldr	r3, [r3, #0]
 8001e64:	2b01      	cmp	r3, #1
 8001e66:	d101      	bne.n	8001e6c <main+0xbc>
  {
	  AMS5055_Basic_Init();
 8001e68:	f7ff fe12 	bl	8001a90 <AMS5055_Basic_Init>
  }

  Drive_Enable(1); // enable driver
 8001e6c:	2001      	movs	r0, #1
 8001e6e:	f7ff fd7f 	bl	8001970 <Drive_Enable>

	if (STG_ENB == 1) {
 8001e72:	4b21      	ldr	r3, [pc, #132]	; (8001ef8 <main+0x148>)
 8001e74:	681b      	ldr	r3, [r3, #0]
 8001e76:	2b01      	cmp	r3, #1
 8001e78:	d107      	bne.n	8001e8a <main+0xda>
		TMC5160_Basic_Rotate(1, &StallSettings1); //Stallguard example basic movement started
 8001e7a:	4b1a      	ldr	r3, [pc, #104]	; (8001ee4 <main+0x134>)
 8001e7c:	0019      	movs	r1, r3
 8001e7e:	2001      	movs	r0, #1
 8001e80:	f7ff fc50 	bl	8001724 <TMC5160_Basic_Rotate>
		//if motor does not spin, Stallguard is triggered, adding a delay before init will fix it.
		TMC5160_Init_Stallguard(0);
 8001e84:	2000      	movs	r0, #0
 8001e86:	f7ff fbd7 	bl	8001638 <TMC5160_Init_Stallguard>
	//TMC5160_Basic_Rotate(1, &Ramp1);
	//HAL_Delay(2000);



    TMC5160_Rotate_To(51200, &Ramp1); // move to Position X
 8001e8a:	4a14      	ldr	r2, [pc, #80]	; (8001edc <main+0x12c>)
 8001e8c:	23c8      	movs	r3, #200	; 0xc8
 8001e8e:	021b      	lsls	r3, r3, #8
 8001e90:	0011      	movs	r1, r2
 8001e92:	0018      	movs	r0, r3
 8001e94:	f7ff fc8c 	bl	80017b0 <TMC5160_Rotate_To>
    TMC5160_Rotate_To(0, &Ramp1); // move to Position X
 8001e98:	4b10      	ldr	r3, [pc, #64]	; (8001edc <main+0x12c>)
 8001e9a:	0019      	movs	r1, r3
 8001e9c:	2000      	movs	r0, #0
 8001e9e:	f7ff fc87 	bl	80017b0 <TMC5160_Rotate_To>


    if(STG_ENB != 1) // keep rotating until stall
 8001ea2:	4b15      	ldr	r3, [pc, #84]	; (8001ef8 <main+0x148>)
 8001ea4:	681b      	ldr	r3, [r3, #0]
 8001ea6:	2b01      	cmp	r3, #1
 8001ea8:	d004      	beq.n	8001eb4 <main+0x104>
    {
    	TMC5160_Stop();
 8001eaa:	f7ff fd57 	bl	800195c <TMC5160_Stop>
    	Drive_Enable(0);
 8001eae:	2000      	movs	r0, #0
 8001eb0:	f7ff fd5e 	bl	8001970 <Drive_Enable>
  while (1)
  {
    /* USER CODE END WHILE */

    /* USER CODE BEGIN 3 */
	  if(STG_ENB == 1)
 8001eb4:	4b10      	ldr	r3, [pc, #64]	; (8001ef8 <main+0x148>)
 8001eb6:	681b      	ldr	r3, [r3, #0]
 8001eb8:	2b01      	cmp	r3, #1
 8001eba:	d1fb      	bne.n	8001eb4 <main+0x104>
	  {
		 HAL_Delay(10);
 8001ebc:	200a      	movs	r0, #10
 8001ebe:	f000 fc69 	bl	8002794 <HAL_Delay>
	 	 TMC5160_Monitor_Stallguard();
 8001ec2:	f7ff fbdd 	bl	8001680 <TMC5160_Monitor_Stallguard>

	 	  if(TMC5160_Monitor_Stallguard()== 1)
 8001ec6:	f7ff fbdb 	bl	8001680 <TMC5160_Monitor_Stallguard>
 8001eca:	0003      	movs	r3, r0
 8001ecc:	2b01      	cmp	r3, #1
 8001ece:	d1f1      	bne.n	8001eb4 <main+0x104>
	 	  {
	 	   	// stall event
	 		 TMC5160_Init_Stallguard(1); // clear stall flag
 8001ed0:	2001      	movs	r0, #1
 8001ed2:	f7ff fbb1 	bl	8001638 <TMC5160_Init_Stallguard>
	  if(STG_ENB == 1)
 8001ed6:	e7ed      	b.n	8001eb4 <main+0x104>
 8001ed8:	000009c4 	.word	0x000009c4
 8001edc:	20001108 	.word	0x20001108
 8001ee0:	00002710 	.word	0x00002710
 8001ee4:	20001128 	.word	0x20001128
 8001ee8:	20001148 	.word	0x20001148
 8001eec:	00001388 	.word	0x00001388
 8001ef0:	20001168 	.word	0x20001168
 8001ef4:	20001170 	.word	0x20001170
 8001ef8:	20001178 	.word	0x20001178

08001efc <SystemClock_Config>:
/**
  * @brief System Clock Configuration
  * @retval None
  */
void SystemClock_Config(void)
{
 8001efc:	b590      	push	{r4, r7, lr}
 8001efe:	b093      	sub	sp, #76	; 0x4c
 8001f00:	af00      	add	r7, sp, #0
  RCC_OscInitTypeDef RCC_OscInitStruct = {0};
 8001f02:	2414      	movs	r4, #20
 8001f04:	193b      	adds	r3, r7, r4
 8001f06:	0018      	movs	r0, r3
 8001f08:	2334      	movs	r3, #52	; 0x34
 8001f0a:	001a      	movs	r2, r3
 8001f0c:	2100      	movs	r1, #0
 8001f0e:	f002 ffb5 	bl	8004e7c <memset>
  RCC_ClkInitTypeDef RCC_ClkInitStruct = {0};
 8001f12:	1d3b      	adds	r3, r7, #4
 8001f14:	0018      	movs	r0, r3
 8001f16:	2310      	movs	r3, #16
 8001f18:	001a      	movs	r2, r3
 8001f1a:	2100      	movs	r1, #0
 8001f1c:	f002 ffae 	bl	8004e7c <memset>

  /** Initializes the RCC Oscillators according to the specified parameters
  * in the RCC_OscInitTypeDef structure.
  */
  RCC_OscInitStruct.OscillatorType = RCC_OSCILLATORTYPE_HSI14|RCC_OSCILLATORTYPE_HSE;
 8001f20:	0021      	movs	r1, r4
 8001f22:	187b      	adds	r3, r7, r1
 8001f24:	2211      	movs	r2, #17
 8001f26:	601a      	str	r2, [r3, #0]
  RCC_OscInitStruct.HSEState = RCC_HSE_ON;
 8001f28:	187b      	adds	r3, r7, r1
 8001f2a:	2201      	movs	r2, #1
 8001f2c:	605a      	str	r2, [r3, #4]
  RCC_OscInitStruct.HSI14State = RCC_HSI14_ON;
 8001f2e:	187b      	adds	r3, r7, r1
 8001f30:	2201      	movs	r2, #1
 8001f32:	615a      	str	r2, [r3, #20]
  RCC_OscInitStruct.HSI14CalibrationValue = 16;
 8001f34:	187b      	adds	r3, r7, r1
 8001f36:	2210      	movs	r2, #16
 8001f38:	619a      	str	r2, [r3, #24]
  RCC_OscInitStruct.PLL.PLLState = RCC_PLL_NONE;
 8001f3a:	187b      	adds	r3, r7, r1
 8001f3c:	2200      	movs	r2, #0
 8001f3e:	625a      	str	r2, [r3, #36]	; 0x24
  if (HAL_RCC_OscConfig(&RCC_OscInitStruct) != HAL_OK)
 8001f40:	187b      	adds	r3, r7, r1
 8001f42:	0018      	movs	r0, r3
 8001f44:	f001 feb8 	bl	8003cb8 <HAL_RCC_OscConfig>
 8001f48:	1e03      	subs	r3, r0, #0
 8001f4a:	d001      	beq.n	8001f50 <SystemClock_Config+0x54>
  {
    Error_Handler();
 8001f4c:	f000 fa12 	bl	8002374 <Error_Handler>
  }

  /** Initializes the CPU, AHB and APB buses clocks
  */
  RCC_ClkInitStruct.ClockType = RCC_CLOCKTYPE_HCLK|RCC_CLOCKTYPE_SYSCLK
 8001f50:	1d3b      	adds	r3, r7, #4
 8001f52:	2207      	movs	r2, #7
 8001f54:	601a      	str	r2, [r3, #0]
                              |RCC_CLOCKTYPE_PCLK1;
  RCC_ClkInitStruct.SYSCLKSource = RCC_SYSCLKSOURCE_HSE;
 8001f56:	1d3b      	adds	r3, r7, #4
 8001f58:	2201      	movs	r2, #1
 8001f5a:	605a      	str	r2, [r3, #4]
  RCC_ClkInitStruct.AHBCLKDivider = RCC_SYSCLK_DIV1;
 8001f5c:	1d3b      	adds	r3, r7, #4
 8001f5e:	2200      	movs	r2, #0
 8001f60:	609a      	str	r2, [r3, #8]
  RCC_ClkInitStruct.APB1CLKDivider = RCC_HCLK_DIV1;
 8001f62:	1d3b      	adds	r3, r7, #4
 8001f64:	2200      	movs	r2, #0
 8001f66:	60da      	str	r2, [r3, #12]

  if (HAL_RCC_ClockConfig(&RCC_ClkInitStruct, FLASH_LATENCY_0) != HAL_OK)
 8001f68:	1d3b      	adds	r3, r7, #4
 8001f6a:	2100      	movs	r1, #0
 8001f6c:	0018      	movs	r0, r3
 8001f6e:	f002 fa29 	bl	80043c4 <HAL_RCC_ClockConfig>
 8001f72:	1e03      	subs	r3, r0, #0
 8001f74:	d001      	beq.n	8001f7a <SystemClock_Config+0x7e>
  {
    Error_Handler();
 8001f76:	f000 f9fd 	bl	8002374 <Error_Handler>
  }
}
 8001f7a:	46c0      	nop			; (mov r8, r8)
 8001f7c:	46bd      	mov	sp, r7
 8001f7e:	b013      	add	sp, #76	; 0x4c
 8001f80:	bd90      	pop	{r4, r7, pc}
	...

08001f84 <MX_ADC_Init>:
  * @brief ADC Initialization Function
  * @param None
  * @retval None
  */
static void MX_ADC_Init(void)
{
 8001f84:	b580      	push	{r7, lr}
 8001f86:	b084      	sub	sp, #16
 8001f88:	af00      	add	r7, sp, #0

  /* USER CODE BEGIN ADC_Init 0 */

  /* USER CODE END ADC_Init 0 */

  ADC_ChannelConfTypeDef sConfig = {0};
 8001f8a:	1d3b      	adds	r3, r7, #4
 8001f8c:	0018      	movs	r0, r3
 8001f8e:	230c      	movs	r3, #12
 8001f90:	001a      	movs	r2, r3
 8001f92:	2100      	movs	r1, #0
 8001f94:	f002 ff72 	bl	8004e7c <memset>

  /* USER CODE END ADC_Init 1 */

  /** Configure the global features of the ADC (Clock, Resolution, Data Alignment and number of conversion)
  */
  hadc.Instance = ADC1;
 8001f98:	4b26      	ldr	r3, [pc, #152]	; (8002034 <MX_ADC_Init+0xb0>)
 8001f9a:	4a27      	ldr	r2, [pc, #156]	; (8002038 <MX_ADC_Init+0xb4>)
 8001f9c:	601a      	str	r2, [r3, #0]
  hadc.Init.ClockPrescaler = ADC_CLOCK_ASYNC_DIV1;
 8001f9e:	4b25      	ldr	r3, [pc, #148]	; (8002034 <MX_ADC_Init+0xb0>)
 8001fa0:	2200      	movs	r2, #0
 8001fa2:	605a      	str	r2, [r3, #4]
  hadc.Init.Resolution = ADC_RESOLUTION_12B;
 8001fa4:	4b23      	ldr	r3, [pc, #140]	; (8002034 <MX_ADC_Init+0xb0>)
 8001fa6:	2200      	movs	r2, #0
 8001fa8:	609a      	str	r2, [r3, #8]
  hadc.Init.DataAlign = ADC_DATAALIGN_RIGHT;
 8001faa:	4b22      	ldr	r3, [pc, #136]	; (8002034 <MX_ADC_Init+0xb0>)
 8001fac:	2200      	movs	r2, #0
 8001fae:	60da      	str	r2, [r3, #12]
  hadc.Init.ScanConvMode = ADC_SCAN_DIRECTION_FORWARD;
 8001fb0:	4b20      	ldr	r3, [pc, #128]	; (8002034 <MX_ADC_Init+0xb0>)
 8001fb2:	2201      	movs	r2, #1
 8001fb4:	611a      	str	r2, [r3, #16]
  hadc.Init.EOCSelection = ADC_EOC_SINGLE_CONV;
 8001fb6:	4b1f      	ldr	r3, [pc, #124]	; (8002034 <MX_ADC_Init+0xb0>)
 8001fb8:	2204      	movs	r2, #4
 8001fba:	615a      	str	r2, [r3, #20]
  hadc.Init.LowPowerAutoWait = DISABLE;
 8001fbc:	4b1d      	ldr	r3, [pc, #116]	; (8002034 <MX_ADC_Init+0xb0>)
 8001fbe:	2200      	movs	r2, #0
 8001fc0:	761a      	strb	r2, [r3, #24]
  hadc.Init.LowPowerAutoPowerOff = DISABLE;
 8001fc2:	4b1c      	ldr	r3, [pc, #112]	; (8002034 <MX_ADC_Init+0xb0>)
 8001fc4:	2200      	movs	r2, #0
 8001fc6:	765a      	strb	r2, [r3, #25]
  hadc.Init.ContinuousConvMode = DISABLE;
 8001fc8:	4b1a      	ldr	r3, [pc, #104]	; (8002034 <MX_ADC_Init+0xb0>)
 8001fca:	2200      	movs	r2, #0
 8001fcc:	769a      	strb	r2, [r3, #26]
  hadc.Init.DiscontinuousConvMode = DISABLE;
 8001fce:	4b19      	ldr	r3, [pc, #100]	; (8002034 <MX_ADC_Init+0xb0>)
 8001fd0:	2200      	movs	r2, #0
 8001fd2:	76da      	strb	r2, [r3, #27]
  hadc.Init.ExternalTrigConv = ADC_SOFTWARE_START;
 8001fd4:	4b17      	ldr	r3, [pc, #92]	; (8002034 <MX_ADC_Init+0xb0>)
 8001fd6:	22c2      	movs	r2, #194	; 0xc2
 8001fd8:	32ff      	adds	r2, #255	; 0xff
 8001fda:	61da      	str	r2, [r3, #28]
  hadc.Init.ExternalTrigConvEdge = ADC_EXTERNALTRIGCONVEDGE_NONE;
 8001fdc:	4b15      	ldr	r3, [pc, #84]	; (8002034 <MX_ADC_Init+0xb0>)
 8001fde:	2200      	movs	r2, #0
 8001fe0:	621a      	str	r2, [r3, #32]
  hadc.Init.DMAContinuousRequests = DISABLE;
 8001fe2:	4b14      	ldr	r3, [pc, #80]	; (8002034 <MX_ADC_Init+0xb0>)
 8001fe4:	2224      	movs	r2, #36	; 0x24
 8001fe6:	2100      	movs	r1, #0
 8001fe8:	5499      	strb	r1, [r3, r2]
  hadc.Init.Overrun = ADC_OVR_DATA_PRESERVED;
 8001fea:	4b12      	ldr	r3, [pc, #72]	; (8002034 <MX_ADC_Init+0xb0>)
 8001fec:	2201      	movs	r2, #1
 8001fee:	629a      	str	r2, [r3, #40]	; 0x28
  if (HAL_ADC_Init(&hadc) != HAL_OK)
 8001ff0:	4b10      	ldr	r3, [pc, #64]	; (8002034 <MX_ADC_Init+0xb0>)
 8001ff2:	0018      	movs	r0, r3
 8001ff4:	f000 fbf2 	bl	80027dc <HAL_ADC_Init>
 8001ff8:	1e03      	subs	r3, r0, #0
 8001ffa:	d001      	beq.n	8002000 <MX_ADC_Init+0x7c>
  {
    Error_Handler();
 8001ffc:	f000 f9ba 	bl	8002374 <Error_Handler>
  }

  /** Configure for the selected ADC regular channel to be converted.
  */
  sConfig.Channel = ADC_CHANNEL_0;
 8002000:	1d3b      	adds	r3, r7, #4
 8002002:	2200      	movs	r2, #0
 8002004:	601a      	str	r2, [r3, #0]
  sConfig.Rank = ADC_RANK_CHANNEL_NUMBER;
 8002006:	1d3b      	adds	r3, r7, #4
 8002008:	2280      	movs	r2, #128	; 0x80
 800200a:	0152      	lsls	r2, r2, #5
 800200c:	605a      	str	r2, [r3, #4]
  sConfig.SamplingTime = ADC_SAMPLETIME_1CYCLE_5;
 800200e:	1d3b      	adds	r3, r7, #4
 8002010:	2280      	movs	r2, #128	; 0x80
 8002012:	0552      	lsls	r2, r2, #21
 8002014:	609a      	str	r2, [r3, #8]
  if (HAL_ADC_ConfigChannel(&hadc, &sConfig) != HAL_OK)
 8002016:	1d3a      	adds	r2, r7, #4
 8002018:	4b06      	ldr	r3, [pc, #24]	; (8002034 <MX_ADC_Init+0xb0>)
 800201a:	0011      	movs	r1, r2
 800201c:	0018      	movs	r0, r3
 800201e:	f000 fd1d 	bl	8002a5c <HAL_ADC_ConfigChannel>
 8002022:	1e03      	subs	r3, r0, #0
 8002024:	d001      	beq.n	800202a <MX_ADC_Init+0xa6>
  {
    Error_Handler();
 8002026:	f000 f9a5 	bl	8002374 <Error_Handler>
  }
  /* USER CODE BEGIN ADC_Init 2 */

  /* USER CODE END ADC_Init 2 */

}
 800202a:	46c0      	nop			; (mov r8, r8)
 800202c:	46bd      	mov	sp, r7
 800202e:	b004      	add	sp, #16
 8002030:	bd80      	pop	{r7, pc}
 8002032:	46c0      	nop			; (mov r8, r8)
 8002034:	20000fd8 	.word	0x20000fd8
 8002038:	40012400 	.word	0x40012400

0800203c <MX_CAN_Init>:
  * @brief CAN Initialization Function
  * @param None
  * @retval None
  */
static void MX_CAN_Init(void)
{
 800203c:	b580      	push	{r7, lr}
 800203e:	b08a      	sub	sp, #40	; 0x28
 8002040:	af00      	add	r7, sp, #0

  /* USER CODE BEGIN CAN_Init 0 */
  HAL_GPIO_WritePin(GPIOA,CAN_STB_Pin,0); // Set STB pin LOW for normal operation
 8002042:	2390      	movs	r3, #144	; 0x90
 8002044:	05db      	lsls	r3, r3, #23
 8002046:	2200      	movs	r2, #0
 8002048:	2104      	movs	r1, #4
 800204a:	0018      	movs	r0, r3
 800204c:	f001 fdfa 	bl	8003c44 <HAL_GPIO_WritePin>
  /* USER CODE END CAN_Init 0 */

  /* USER CODE BEGIN CAN_Init 1 */

  /* USER CODE END CAN_Init 1 */
  hcan.Instance = CAN;
 8002050:	4b2e      	ldr	r3, [pc, #184]	; (800210c <MX_CAN_Init+0xd0>)
 8002052:	4a2f      	ldr	r2, [pc, #188]	; (8002110 <MX_CAN_Init+0xd4>)
 8002054:	601a      	str	r2, [r3, #0]
  hcan.Init.Prescaler = 16;
 8002056:	4b2d      	ldr	r3, [pc, #180]	; (800210c <MX_CAN_Init+0xd0>)
 8002058:	2210      	movs	r2, #16
 800205a:	605a      	str	r2, [r3, #4]
  hcan.Init.Mode = CAN_MODE_NORMAL;
 800205c:	4b2b      	ldr	r3, [pc, #172]	; (800210c <MX_CAN_Init+0xd0>)
 800205e:	2200      	movs	r2, #0
 8002060:	609a      	str	r2, [r3, #8]
  hcan.Init.SyncJumpWidth = CAN_SJW_1TQ;
 8002062:	4b2a      	ldr	r3, [pc, #168]	; (800210c <MX_CAN_Init+0xd0>)
 8002064:	2200      	movs	r2, #0
 8002066:	60da      	str	r2, [r3, #12]
  hcan.Init.TimeSeg1 = CAN_BS1_2TQ;
 8002068:	4b28      	ldr	r3, [pc, #160]	; (800210c <MX_CAN_Init+0xd0>)
 800206a:	2280      	movs	r2, #128	; 0x80
 800206c:	0252      	lsls	r2, r2, #9
 800206e:	611a      	str	r2, [r3, #16]
  hcan.Init.TimeSeg2 = CAN_BS2_1TQ;
 8002070:	4b26      	ldr	r3, [pc, #152]	; (800210c <MX_CAN_Init+0xd0>)
 8002072:	2200      	movs	r2, #0
 8002074:	615a      	str	r2, [r3, #20]
  hcan.Init.TimeTriggeredMode = DISABLE;
 8002076:	4b25      	ldr	r3, [pc, #148]	; (800210c <MX_CAN_Init+0xd0>)
 8002078:	2200      	movs	r2, #0
 800207a:	761a      	strb	r2, [r3, #24]
  hcan.Init.AutoBusOff = DISABLE;
 800207c:	4b23      	ldr	r3, [pc, #140]	; (800210c <MX_CAN_Init+0xd0>)
 800207e:	2200      	movs	r2, #0
 8002080:	765a      	strb	r2, [r3, #25]
  hcan.Init.AutoWakeUp = DISABLE;
 8002082:	4b22      	ldr	r3, [pc, #136]	; (800210c <MX_CAN_Init+0xd0>)
 8002084:	2200      	movs	r2, #0
 8002086:	769a      	strb	r2, [r3, #26]
  hcan.Init.AutoRetransmission = DISABLE;
 8002088:	4b20      	ldr	r3, [pc, #128]	; (800210c <MX_CAN_Init+0xd0>)
 800208a:	2200      	movs	r2, #0
 800208c:	76da      	strb	r2, [r3, #27]
  hcan.Init.ReceiveFifoLocked = DISABLE;
 800208e:	4b1f      	ldr	r3, [pc, #124]	; (800210c <MX_CAN_Init+0xd0>)
 8002090:	2200      	movs	r2, #0
 8002092:	771a      	strb	r2, [r3, #28]
  hcan.Init.TransmitFifoPriority = DISABLE;
 8002094:	4b1d      	ldr	r3, [pc, #116]	; (800210c <MX_CAN_Init+0xd0>)
 8002096:	2200      	movs	r2, #0
 8002098:	775a      	strb	r2, [r3, #29]
  if (HAL_CAN_Init(&hcan) != HAL_OK)
 800209a:	4b1c      	ldr	r3, [pc, #112]	; (800210c <MX_CAN_Init+0xd0>)
 800209c:	0018      	movs	r0, r3
 800209e:	f000 fdeb 	bl	8002c78 <HAL_CAN_Init>
 80020a2:	1e03      	subs	r3, r0, #0
 80020a4:	d001      	beq.n	80020aa <MX_CAN_Init+0x6e>
  {
    Error_Handler();
 80020a6:	f000 f965 	bl	8002374 <Error_Handler>

  /* CAN filter */

  CAN_FilterTypeDef  sFilterConfig;

  sFilterConfig.FilterActivation = ENABLE;
 80020aa:	003b      	movs	r3, r7
 80020ac:	2201      	movs	r2, #1
 80020ae:	621a      	str	r2, [r3, #32]
  sFilterConfig.FilterBank = 10;
 80020b0:	003b      	movs	r3, r7
 80020b2:	220a      	movs	r2, #10
 80020b4:	615a      	str	r2, [r3, #20]
  sFilterConfig.FilterFIFOAssignment = CAN_RX_FIFO0;
 80020b6:	003b      	movs	r3, r7
 80020b8:	2200      	movs	r2, #0
 80020ba:	611a      	str	r2, [r3, #16]
  sFilterConfig.FilterIdHigh = 0x0000;
 80020bc:	003b      	movs	r3, r7
 80020be:	2200      	movs	r2, #0
 80020c0:	601a      	str	r2, [r3, #0]
  sFilterConfig.FilterIdLow = 0x0000;
 80020c2:	003b      	movs	r3, r7
 80020c4:	2200      	movs	r2, #0
 80020c6:	605a      	str	r2, [r3, #4]
  sFilterConfig.FilterMaskIdHigh = 0x0000;
 80020c8:	003b      	movs	r3, r7
 80020ca:	2200      	movs	r2, #0
 80020cc:	609a      	str	r2, [r3, #8]
  sFilterConfig.FilterMaskIdLow = 0x0000;
 80020ce:	003b      	movs	r3, r7
 80020d0:	2200      	movs	r2, #0
 80020d2:	60da      	str	r2, [r3, #12]
  sFilterConfig.FilterMode = CAN_FILTERMODE_IDMASK;
 80020d4:	003b      	movs	r3, r7
 80020d6:	2200      	movs	r2, #0
 80020d8:	619a      	str	r2, [r3, #24]
  sFilterConfig.FilterScale = CAN_FILTERSCALE_32BIT;
 80020da:	003b      	movs	r3, r7
 80020dc:	2201      	movs	r2, #1
 80020de:	61da      	str	r2, [r3, #28]
  sFilterConfig.SlaveStartFilterBank = 0;
 80020e0:	003b      	movs	r3, r7
 80020e2:	2200      	movs	r2, #0
 80020e4:	625a      	str	r2, [r3, #36]	; 0x24

  HAL_CAN_ConfigFilter(&hcan, &sFilterConfig);
 80020e6:	003a      	movs	r2, r7
 80020e8:	4b08      	ldr	r3, [pc, #32]	; (800210c <MX_CAN_Init+0xd0>)
 80020ea:	0011      	movs	r1, r2
 80020ec:	0018      	movs	r0, r3
 80020ee:	f000 fec1 	bl	8002e74 <HAL_CAN_ConfigFilter>

  HAL_CAN_Start(&hcan);
 80020f2:	4b06      	ldr	r3, [pc, #24]	; (800210c <MX_CAN_Init+0xd0>)
 80020f4:	0018      	movs	r0, r3
 80020f6:	f000 ffaf 	bl	8003058 <HAL_CAN_Start>
  HAL_CAN_ActivateNotification(&hcan, CAN_IT_RX_FIFO0_MSG_PENDING);
 80020fa:	4b04      	ldr	r3, [pc, #16]	; (800210c <MX_CAN_Init+0xd0>)
 80020fc:	2102      	movs	r1, #2
 80020fe:	0018      	movs	r0, r3
 8002100:	f001 f90c 	bl	800331c <HAL_CAN_ActivateNotification>

  /* USER CODE END CAN_Init 2 */

}
 8002104:	46c0      	nop			; (mov r8, r8)
 8002106:	46bd      	mov	sp, r7
 8002108:	b00a      	add	sp, #40	; 0x28
 800210a:	bd80      	pop	{r7, pc}
 800210c:	20001018 	.word	0x20001018
 8002110:	40006400 	.word	0x40006400

08002114 <MX_SPI1_Init>:
  * @brief SPI1 Initialization Function
  * @param None
  * @retval None
  */
static void MX_SPI1_Init(void)
{
 8002114:	b580      	push	{r7, lr}
 8002116:	af00      	add	r7, sp, #0

  /* USER CODE BEGIN SPI1_Init 1 */

  /* USER CODE END SPI1_Init 1 */
  /* SPI1 parameter configuration*/
  hspi1.Instance = SPI1;
 8002118:	4b1b      	ldr	r3, [pc, #108]	; (8002188 <MX_SPI1_Init+0x74>)
 800211a:	4a1c      	ldr	r2, [pc, #112]	; (800218c <MX_SPI1_Init+0x78>)
 800211c:	601a      	str	r2, [r3, #0]
  hspi1.Init.Mode = SPI_MODE_MASTER;
 800211e:	4b1a      	ldr	r3, [pc, #104]	; (8002188 <MX_SPI1_Init+0x74>)
 8002120:	2282      	movs	r2, #130	; 0x82
 8002122:	0052      	lsls	r2, r2, #1
 8002124:	605a      	str	r2, [r3, #4]
  hspi1.Init.Direction = SPI_DIRECTION_2LINES;
 8002126:	4b18      	ldr	r3, [pc, #96]	; (8002188 <MX_SPI1_Init+0x74>)
 8002128:	2200      	movs	r2, #0
 800212a:	609a      	str	r2, [r3, #8]
  hspi1.Init.DataSize = SPI_DATASIZE_8BIT;
 800212c:	4b16      	ldr	r3, [pc, #88]	; (8002188 <MX_SPI1_Init+0x74>)
 800212e:	22e0      	movs	r2, #224	; 0xe0
 8002130:	00d2      	lsls	r2, r2, #3
 8002132:	60da      	str	r2, [r3, #12]
  hspi1.Init.CLKPolarity = SPI_POLARITY_LOW;
 8002134:	4b14      	ldr	r3, [pc, #80]	; (8002188 <MX_SPI1_Init+0x74>)
 8002136:	2200      	movs	r2, #0
 8002138:	611a      	str	r2, [r3, #16]
  hspi1.Init.CLKPhase = SPI_PHASE_2EDGE;
 800213a:	4b13      	ldr	r3, [pc, #76]	; (8002188 <MX_SPI1_Init+0x74>)
 800213c:	2201      	movs	r2, #1
 800213e:	615a      	str	r2, [r3, #20]
  hspi1.Init.NSS = SPI_NSS_SOFT;
 8002140:	4b11      	ldr	r3, [pc, #68]	; (8002188 <MX_SPI1_Init+0x74>)
 8002142:	2280      	movs	r2, #128	; 0x80
 8002144:	0092      	lsls	r2, r2, #2
 8002146:	619a      	str	r2, [r3, #24]
  hspi1.Init.BaudRatePrescaler = SPI_BAUDRATEPRESCALER_2;
 8002148:	4b0f      	ldr	r3, [pc, #60]	; (8002188 <MX_SPI1_Init+0x74>)
 800214a:	2200      	movs	r2, #0
 800214c:	61da      	str	r2, [r3, #28]
  hspi1.Init.FirstBit = SPI_FIRSTBIT_MSB;
 800214e:	4b0e      	ldr	r3, [pc, #56]	; (8002188 <MX_SPI1_Init+0x74>)
 8002150:	2200      	movs	r2, #0
 8002152:	621a      	str	r2, [r3, #32]
  hspi1.Init.TIMode = SPI_TIMODE_DISABLE;
 8002154:	4b0c      	ldr	r3, [pc, #48]	; (8002188 <MX_SPI1_Init+0x74>)
 8002156:	2200      	movs	r2, #0
 8002158:	625a      	str	r2, [r3, #36]	; 0x24
  hspi1.Init.CRCCalculation = SPI_CRCCALCULATION_DISABLE;
 800215a:	4b0b      	ldr	r3, [pc, #44]	; (8002188 <MX_SPI1_Init+0x74>)
 800215c:	2200      	movs	r2, #0
 800215e:	629a      	str	r2, [r3, #40]	; 0x28
  hspi1.Init.CRCPolynomial = 7;
 8002160:	4b09      	ldr	r3, [pc, #36]	; (8002188 <MX_SPI1_Init+0x74>)
 8002162:	2207      	movs	r2, #7
 8002164:	62da      	str	r2, [r3, #44]	; 0x2c
  hspi1.Init.CRCLength = SPI_CRC_LENGTH_DATASIZE;
 8002166:	4b08      	ldr	r3, [pc, #32]	; (8002188 <MX_SPI1_Init+0x74>)
 8002168:	2200      	movs	r2, #0
 800216a:	631a      	str	r2, [r3, #48]	; 0x30
  hspi1.Init.NSSPMode = SPI_NSS_PULSE_DISABLE;
 800216c:	4b06      	ldr	r3, [pc, #24]	; (8002188 <MX_SPI1_Init+0x74>)
 800216e:	2200      	movs	r2, #0
 8002170:	635a      	str	r2, [r3, #52]	; 0x34
  if (HAL_SPI_Init(&hspi1) != HAL_OK)
 8002172:	4b05      	ldr	r3, [pc, #20]	; (8002188 <MX_SPI1_Init+0x74>)
 8002174:	0018      	movs	r0, r3
 8002176:	f002 fa81 	bl	800467c <HAL_SPI_Init>
 800217a:	1e03      	subs	r3, r0, #0
 800217c:	d001      	beq.n	8002182 <MX_SPI1_Init+0x6e>
  {
    Error_Handler();
 800217e:	f000 f8f9 	bl	8002374 <Error_Handler>
  }
  /* USER CODE BEGIN SPI1_Init 2 */

  /* USER CODE END SPI1_Init 2 */

}
 8002182:	46c0      	nop			; (mov r8, r8)
 8002184:	46bd      	mov	sp, r7
 8002186:	bd80      	pop	{r7, pc}
 8002188:	20001040 	.word	0x20001040
 800218c:	40013000 	.word	0x40013000

08002190 <MX_SPI2_Init>:
  * @brief SPI2 Initialization Function
  * @param None
  * @retval None
  */
static void MX_SPI2_Init(void)
{
 8002190:	b580      	push	{r7, lr}
 8002192:	af00      	add	r7, sp, #0

  /* USER CODE BEGIN SPI2_Init 1 */

  /* USER CODE END SPI2_Init 1 */
  /* SPI2 parameter configuration*/
  hspi2.Instance = SPI2;
 8002194:	4b1b      	ldr	r3, [pc, #108]	; (8002204 <MX_SPI2_Init+0x74>)
 8002196:	4a1c      	ldr	r2, [pc, #112]	; (8002208 <MX_SPI2_Init+0x78>)
 8002198:	601a      	str	r2, [r3, #0]
  hspi2.Init.Mode = SPI_MODE_MASTER;
 800219a:	4b1a      	ldr	r3, [pc, #104]	; (8002204 <MX_SPI2_Init+0x74>)
 800219c:	2282      	movs	r2, #130	; 0x82
 800219e:	0052      	lsls	r2, r2, #1
 80021a0:	605a      	str	r2, [r3, #4]
  hspi2.Init.Direction = SPI_DIRECTION_2LINES;
 80021a2:	4b18      	ldr	r3, [pc, #96]	; (8002204 <MX_SPI2_Init+0x74>)
 80021a4:	2200      	movs	r2, #0
 80021a6:	609a      	str	r2, [r3, #8]
  hspi2.Init.DataSize = SPI_DATASIZE_8BIT;
 80021a8:	4b16      	ldr	r3, [pc, #88]	; (8002204 <MX_SPI2_Init+0x74>)
 80021aa:	22e0      	movs	r2, #224	; 0xe0
 80021ac:	00d2      	lsls	r2, r2, #3
 80021ae:	60da      	str	r2, [r3, #12]
  hspi2.Init.CLKPolarity = SPI_POLARITY_LOW;
 80021b0:	4b14      	ldr	r3, [pc, #80]	; (8002204 <MX_SPI2_Init+0x74>)
 80021b2:	2200      	movs	r2, #0
 80021b4:	611a      	str	r2, [r3, #16]
  hspi2.Init.CLKPhase = SPI_PHASE_1EDGE;
 80021b6:	4b13      	ldr	r3, [pc, #76]	; (8002204 <MX_SPI2_Init+0x74>)
 80021b8:	2200      	movs	r2, #0
 80021ba:	615a      	str	r2, [r3, #20]
  hspi2.Init.NSS = SPI_NSS_SOFT;
 80021bc:	4b11      	ldr	r3, [pc, #68]	; (8002204 <MX_SPI2_Init+0x74>)
 80021be:	2280      	movs	r2, #128	; 0x80
 80021c0:	0092      	lsls	r2, r2, #2
 80021c2:	619a      	str	r2, [r3, #24]
  hspi2.Init.BaudRatePrescaler = SPI_BAUDRATEPRESCALER_2;
 80021c4:	4b0f      	ldr	r3, [pc, #60]	; (8002204 <MX_SPI2_Init+0x74>)
 80021c6:	2200      	movs	r2, #0
 80021c8:	61da      	str	r2, [r3, #28]
  hspi2.Init.FirstBit = SPI_FIRSTBIT_MSB;
 80021ca:	4b0e      	ldr	r3, [pc, #56]	; (8002204 <MX_SPI2_Init+0x74>)
 80021cc:	2200      	movs	r2, #0
 80021ce:	621a      	str	r2, [r3, #32]
  hspi2.Init.TIMode = SPI_TIMODE_DISABLE;
 80021d0:	4b0c      	ldr	r3, [pc, #48]	; (8002204 <MX_SPI2_Init+0x74>)
 80021d2:	2200      	movs	r2, #0
 80021d4:	625a      	str	r2, [r3, #36]	; 0x24
  hspi2.Init.CRCCalculation = SPI_CRCCALCULATION_DISABLE;
 80021d6:	4b0b      	ldr	r3, [pc, #44]	; (8002204 <MX_SPI2_Init+0x74>)
 80021d8:	2200      	movs	r2, #0
 80021da:	629a      	str	r2, [r3, #40]	; 0x28
  hspi2.Init.CRCPolynomial = 7;
 80021dc:	4b09      	ldr	r3, [pc, #36]	; (8002204 <MX_SPI2_Init+0x74>)
 80021de:	2207      	movs	r2, #7
 80021e0:	62da      	str	r2, [r3, #44]	; 0x2c
  hspi2.Init.CRCLength = SPI_CRC_LENGTH_DATASIZE;
 80021e2:	4b08      	ldr	r3, [pc, #32]	; (8002204 <MX_SPI2_Init+0x74>)
 80021e4:	2200      	movs	r2, #0
 80021e6:	631a      	str	r2, [r3, #48]	; 0x30
  hspi2.Init.NSSPMode = SPI_NSS_PULSE_ENABLE;
 80021e8:	4b06      	ldr	r3, [pc, #24]	; (8002204 <MX_SPI2_Init+0x74>)
 80021ea:	2208      	movs	r2, #8
 80021ec:	635a      	str	r2, [r3, #52]	; 0x34
  if (HAL_SPI_Init(&hspi2) != HAL_OK)
 80021ee:	4b05      	ldr	r3, [pc, #20]	; (8002204 <MX_SPI2_Init+0x74>)
 80021f0:	0018      	movs	r0, r3
 80021f2:	f002 fa43 	bl	800467c <HAL_SPI_Init>
 80021f6:	1e03      	subs	r3, r0, #0
 80021f8:	d001      	beq.n	80021fe <MX_SPI2_Init+0x6e>
  {
    Error_Handler();
 80021fa:	f000 f8bb 	bl	8002374 <Error_Handler>
  }
  /* USER CODE BEGIN SPI2_Init 2 */

  /* USER CODE END SPI2_Init 2 */

}
 80021fe:	46c0      	nop			; (mov r8, r8)
 8002200:	46bd      	mov	sp, r7
 8002202:	bd80      	pop	{r7, pc}
 8002204:	200010a4 	.word	0x200010a4
 8002208:	40003800 	.word	0x40003800

0800220c <MX_GPIO_Init>:
  * @brief GPIO Initialization Function
  * @param None
  * @retval None
  */
static void MX_GPIO_Init(void)
{
 800220c:	b590      	push	{r4, r7, lr}
 800220e:	b089      	sub	sp, #36	; 0x24
 8002210:	af00      	add	r7, sp, #0
  GPIO_InitTypeDef GPIO_InitStruct = {0};
 8002212:	240c      	movs	r4, #12
 8002214:	193b      	adds	r3, r7, r4
 8002216:	0018      	movs	r0, r3
 8002218:	2314      	movs	r3, #20
 800221a:	001a      	movs	r2, r3
 800221c:	2100      	movs	r1, #0
 800221e:	f002 fe2d 	bl	8004e7c <memset>

  /* GPIO Ports Clock Enable */
  __HAL_RCC_GPIOF_CLK_ENABLE();
 8002222:	4b51      	ldr	r3, [pc, #324]	; (8002368 <MX_GPIO_Init+0x15c>)
 8002224:	695a      	ldr	r2, [r3, #20]
 8002226:	4b50      	ldr	r3, [pc, #320]	; (8002368 <MX_GPIO_Init+0x15c>)
 8002228:	2180      	movs	r1, #128	; 0x80
 800222a:	03c9      	lsls	r1, r1, #15
 800222c:	430a      	orrs	r2, r1
 800222e:	615a      	str	r2, [r3, #20]
 8002230:	4b4d      	ldr	r3, [pc, #308]	; (8002368 <MX_GPIO_Init+0x15c>)
 8002232:	695a      	ldr	r2, [r3, #20]
 8002234:	2380      	movs	r3, #128	; 0x80
 8002236:	03db      	lsls	r3, r3, #15
 8002238:	4013      	ands	r3, r2
 800223a:	60bb      	str	r3, [r7, #8]
 800223c:	68bb      	ldr	r3, [r7, #8]
  __HAL_RCC_GPIOA_CLK_ENABLE();
 800223e:	4b4a      	ldr	r3, [pc, #296]	; (8002368 <MX_GPIO_Init+0x15c>)
 8002240:	695a      	ldr	r2, [r3, #20]
 8002242:	4b49      	ldr	r3, [pc, #292]	; (8002368 <MX_GPIO_Init+0x15c>)
 8002244:	2180      	movs	r1, #128	; 0x80
 8002246:	0289      	lsls	r1, r1, #10
 8002248:	430a      	orrs	r2, r1
 800224a:	615a      	str	r2, [r3, #20]
 800224c:	4b46      	ldr	r3, [pc, #280]	; (8002368 <MX_GPIO_Init+0x15c>)
 800224e:	695a      	ldr	r2, [r3, #20]
 8002250:	2380      	movs	r3, #128	; 0x80
 8002252:	029b      	lsls	r3, r3, #10
 8002254:	4013      	ands	r3, r2
 8002256:	607b      	str	r3, [r7, #4]
 8002258:	687b      	ldr	r3, [r7, #4]
  __HAL_RCC_GPIOB_CLK_ENABLE();
 800225a:	4b43      	ldr	r3, [pc, #268]	; (8002368 <MX_GPIO_Init+0x15c>)
 800225c:	695a      	ldr	r2, [r3, #20]
 800225e:	4b42      	ldr	r3, [pc, #264]	; (8002368 <MX_GPIO_Init+0x15c>)
 8002260:	2180      	movs	r1, #128	; 0x80
 8002262:	02c9      	lsls	r1, r1, #11
 8002264:	430a      	orrs	r2, r1
 8002266:	615a      	str	r2, [r3, #20]
 8002268:	4b3f      	ldr	r3, [pc, #252]	; (8002368 <MX_GPIO_Init+0x15c>)
 800226a:	695a      	ldr	r2, [r3, #20]
 800226c:	2380      	movs	r3, #128	; 0x80
 800226e:	02db      	lsls	r3, r3, #11
 8002270:	4013      	ands	r3, r2
 8002272:	603b      	str	r3, [r7, #0]
 8002274:	683b      	ldr	r3, [r7, #0]

  /*Configure GPIO pin Output Level */
  HAL_GPIO_WritePin(GPIOA, CAN_STB_Pin|AMS_CS_Pin, GPIO_PIN_RESET);
 8002276:	2390      	movs	r3, #144	; 0x90
 8002278:	05db      	lsls	r3, r3, #23
 800227a:	2200      	movs	r2, #0
 800227c:	2114      	movs	r1, #20
 800227e:	0018      	movs	r0, r3
 8002280:	f001 fce0 	bl	8003c44 <HAL_GPIO_WritePin>
  HAL_GPIO_WritePin(GPIOA,DRV_ENN_Pin,1);// set DRV enable High so it is not active
 8002284:	2380      	movs	r3, #128	; 0x80
 8002286:	0059      	lsls	r1, r3, #1
 8002288:	2390      	movs	r3, #144	; 0x90
 800228a:	05db      	lsls	r3, r3, #23
 800228c:	2201      	movs	r2, #1
 800228e:	0018      	movs	r0, r3
 8002290:	f001 fcd8 	bl	8003c44 <HAL_GPIO_WritePin>

  /*Configure GPIO pin Output Level */
  HAL_GPIO_WritePin(GPIOB, TMC_CS_Pin|EXT_OUT_1_Pin|EXT_OUT_2_Pin, GPIO_PIN_RESET);
 8002294:	4935      	ldr	r1, [pc, #212]	; (800236c <MX_GPIO_Init+0x160>)
 8002296:	4b36      	ldr	r3, [pc, #216]	; (8002370 <MX_GPIO_Init+0x164>)
 8002298:	2200      	movs	r2, #0
 800229a:	0018      	movs	r0, r3
 800229c:	f001 fcd2 	bl	8003c44 <HAL_GPIO_WritePin>

  /*Configure GPIO pins : CAN_STB_Pin AMS_CS_Pin DRV_ENN_Pin */
  GPIO_InitStruct.Pin = CAN_STB_Pin|AMS_CS_Pin|DRV_ENN_Pin;
 80022a0:	193b      	adds	r3, r7, r4
 80022a2:	228a      	movs	r2, #138	; 0x8a
 80022a4:	0052      	lsls	r2, r2, #1
 80022a6:	601a      	str	r2, [r3, #0]
  GPIO_InitStruct.Mode = GPIO_MODE_OUTPUT_PP;
 80022a8:	193b      	adds	r3, r7, r4
 80022aa:	2201      	movs	r2, #1
 80022ac:	605a      	str	r2, [r3, #4]
  GPIO_InitStruct.Pull = GPIO_NOPULL;
 80022ae:	193b      	adds	r3, r7, r4
 80022b0:	2200      	movs	r2, #0
 80022b2:	609a      	str	r2, [r3, #8]
  GPIO_InitStruct.Speed = GPIO_SPEED_FREQ_LOW;
 80022b4:	193b      	adds	r3, r7, r4
 80022b6:	2200      	movs	r2, #0
 80022b8:	60da      	str	r2, [r3, #12]
  HAL_GPIO_Init(GPIOA, &GPIO_InitStruct);
 80022ba:	193a      	adds	r2, r7, r4
 80022bc:	2390      	movs	r3, #144	; 0x90
 80022be:	05db      	lsls	r3, r3, #23
 80022c0:	0011      	movs	r1, r2
 80022c2:	0018      	movs	r0, r3
 80022c4:	f001 fb46 	bl	8003954 <HAL_GPIO_Init>

  /*Configure GPIO pin : AMS_INT_Pin */
  GPIO_InitStruct.Pin = AMS_INT_Pin;
 80022c8:	0021      	movs	r1, r4
 80022ca:	187b      	adds	r3, r7, r1
 80022cc:	2201      	movs	r2, #1
 80022ce:	601a      	str	r2, [r3, #0]
  GPIO_InitStruct.Mode = GPIO_MODE_IT_RISING;
 80022d0:	187b      	adds	r3, r7, r1
 80022d2:	2288      	movs	r2, #136	; 0x88
 80022d4:	0352      	lsls	r2, r2, #13
 80022d6:	605a      	str	r2, [r3, #4]
  GPIO_InitStruct.Pull = GPIO_NOPULL;
 80022d8:	000c      	movs	r4, r1
 80022da:	193b      	adds	r3, r7, r4
 80022dc:	2200      	movs	r2, #0
 80022de:	609a      	str	r2, [r3, #8]
  HAL_GPIO_Init(AMS_INT_GPIO_Port, &GPIO_InitStruct);
 80022e0:	193b      	adds	r3, r7, r4
 80022e2:	4a23      	ldr	r2, [pc, #140]	; (8002370 <MX_GPIO_Init+0x164>)
 80022e4:	0019      	movs	r1, r3
 80022e6:	0010      	movs	r0, r2
 80022e8:	f001 fb34 	bl	8003954 <HAL_GPIO_Init>

  /*Configure GPIO pins : TMC_CS_Pin EXT_OUT_1_Pin EXT_OUT_2_Pin */
  GPIO_InitStruct.Pin = TMC_CS_Pin|EXT_OUT_1_Pin|EXT_OUT_2_Pin;
 80022ec:	193b      	adds	r3, r7, r4
 80022ee:	4a1f      	ldr	r2, [pc, #124]	; (800236c <MX_GPIO_Init+0x160>)
 80022f0:	601a      	str	r2, [r3, #0]
  GPIO_InitStruct.Mode = GPIO_MODE_OUTPUT_PP;
 80022f2:	193b      	adds	r3, r7, r4
 80022f4:	2201      	movs	r2, #1
 80022f6:	605a      	str	r2, [r3, #4]
  GPIO_InitStruct.Pull = GPIO_NOPULL;
 80022f8:	193b      	adds	r3, r7, r4
 80022fa:	2200      	movs	r2, #0
 80022fc:	609a      	str	r2, [r3, #8]
  GPIO_InitStruct.Speed = GPIO_SPEED_FREQ_LOW;
 80022fe:	193b      	adds	r3, r7, r4
 8002300:	2200      	movs	r2, #0
 8002302:	60da      	str	r2, [r3, #12]
  HAL_GPIO_Init(GPIOB, &GPIO_InitStruct);
 8002304:	193b      	adds	r3, r7, r4
 8002306:	4a1a      	ldr	r2, [pc, #104]	; (8002370 <MX_GPIO_Init+0x164>)
 8002308:	0019      	movs	r1, r3
 800230a:	0010      	movs	r0, r2
 800230c:	f001 fb22 	bl	8003954 <HAL_GPIO_Init>

  /*Configure GPIO pin : REFL_UC_Pin */
  GPIO_InitStruct.Pin = REFL_UC_Pin;
 8002310:	193b      	adds	r3, r7, r4
 8002312:	2240      	movs	r2, #64	; 0x40
 8002314:	601a      	str	r2, [r3, #0]
  GPIO_InitStruct.Mode = GPIO_MODE_INPUT;
 8002316:	193b      	adds	r3, r7, r4
 8002318:	2200      	movs	r2, #0
 800231a:	605a      	str	r2, [r3, #4]
  GPIO_InitStruct.Pull = GPIO_PULLUP;
 800231c:	193b      	adds	r3, r7, r4
 800231e:	2201      	movs	r2, #1
 8002320:	609a      	str	r2, [r3, #8]
  HAL_GPIO_Init(REFL_UC_GPIO_Port, &GPIO_InitStruct);
 8002322:	193b      	adds	r3, r7, r4
 8002324:	4a12      	ldr	r2, [pc, #72]	; (8002370 <MX_GPIO_Init+0x164>)
 8002326:	0019      	movs	r1, r3
 8002328:	0010      	movs	r0, r2
 800232a:	f001 fb13 	bl	8003954 <HAL_GPIO_Init>

  /*Configure GPIO pin : REFR_UC_Pin */
  GPIO_InitStruct.Pin = REFR_UC_Pin;
 800232e:	0021      	movs	r1, r4
 8002330:	187b      	adds	r3, r7, r1
 8002332:	2280      	movs	r2, #128	; 0x80
 8002334:	601a      	str	r2, [r3, #0]
  GPIO_InitStruct.Mode = GPIO_MODE_INPUT;
 8002336:	187b      	adds	r3, r7, r1
 8002338:	2200      	movs	r2, #0
 800233a:	605a      	str	r2, [r3, #4]
  GPIO_InitStruct.Pull = GPIO_NOPULL;
 800233c:	187b      	adds	r3, r7, r1
 800233e:	2200      	movs	r2, #0
 8002340:	609a      	str	r2, [r3, #8]
  HAL_GPIO_Init(REFR_UC_GPIO_Port, &GPIO_InitStruct);
 8002342:	187b      	adds	r3, r7, r1
 8002344:	4a0a      	ldr	r2, [pc, #40]	; (8002370 <MX_GPIO_Init+0x164>)
 8002346:	0019      	movs	r1, r3
 8002348:	0010      	movs	r0, r2
 800234a:	f001 fb03 	bl	8003954 <HAL_GPIO_Init>

  /* EXTI interrupt init*/
  HAL_NVIC_SetPriority(EXTI0_1_IRQn, 0, 0);
 800234e:	2200      	movs	r2, #0
 8002350:	2100      	movs	r1, #0
 8002352:	2005      	movs	r0, #5
 8002354:	f001 facc 	bl	80038f0 <HAL_NVIC_SetPriority>
  HAL_NVIC_EnableIRQ(EXTI0_1_IRQn);
 8002358:	2005      	movs	r0, #5
 800235a:	f001 fade 	bl	800391a <HAL_NVIC_EnableIRQ>

}
 800235e:	46c0      	nop			; (mov r8, r8)
 8002360:	46bd      	mov	sp, r7
 8002362:	b009      	add	sp, #36	; 0x24
 8002364:	bd90      	pop	{r4, r7, pc}
 8002366:	46c0      	nop			; (mov r8, r8)
 8002368:	40021000 	.word	0x40021000
 800236c:	00001030 	.word	0x00001030
 8002370:	48000400 	.word	0x48000400

08002374 <Error_Handler>:
/**
  * @brief  This function is executed in case of error occurrence.
  * @retval None
  */
void Error_Handler(void)
{
 8002374:	b580      	push	{r7, lr}
 8002376:	af00      	add	r7, sp, #0
  \details Disables IRQ interrupts by setting the I-bit in the CPSR.
           Can only be executed in Privileged modes.
 */
__STATIC_FORCEINLINE void __disable_irq(void)
{
  __ASM volatile ("cpsid i" : : : "memory");
 8002378:	b672      	cpsid	i
}
 800237a:	46c0      	nop			; (mov r8, r8)
  /* USER CODE BEGIN Error_Handler_Debug */
  /* User can add his own implementation to report the HAL error return state */
  __disable_irq();
  while (1)
 800237c:	e7fe      	b.n	800237c <Error_Handler+0x8>
	...

08002380 <HAL_MspInit>:
/* USER CODE END 0 */
/**
  * Initializes the Global MSP.
  */
void HAL_MspInit(void)
{
 8002380:	b580      	push	{r7, lr}
 8002382:	b082      	sub	sp, #8
 8002384:	af00      	add	r7, sp, #0
  /* USER CODE BEGIN MspInit 0 */

  /* USER CODE END MspInit 0 */

  __HAL_RCC_SYSCFG_CLK_ENABLE();
 8002386:	4b0f      	ldr	r3, [pc, #60]	; (80023c4 <HAL_MspInit+0x44>)
 8002388:	699a      	ldr	r2, [r3, #24]
 800238a:	4b0e      	ldr	r3, [pc, #56]	; (80023c4 <HAL_MspInit+0x44>)
 800238c:	2101      	movs	r1, #1
 800238e:	430a      	orrs	r2, r1
 8002390:	619a      	str	r2, [r3, #24]
 8002392:	4b0c      	ldr	r3, [pc, #48]	; (80023c4 <HAL_MspInit+0x44>)
 8002394:	699b      	ldr	r3, [r3, #24]
 8002396:	2201      	movs	r2, #1
 8002398:	4013      	ands	r3, r2
 800239a:	607b      	str	r3, [r7, #4]
 800239c:	687b      	ldr	r3, [r7, #4]
  __HAL_RCC_PWR_CLK_ENABLE();
 800239e:	4b09      	ldr	r3, [pc, #36]	; (80023c4 <HAL_MspInit+0x44>)
 80023a0:	69da      	ldr	r2, [r3, #28]
 80023a2:	4b08      	ldr	r3, [pc, #32]	; (80023c4 <HAL_MspInit+0x44>)
 80023a4:	2180      	movs	r1, #128	; 0x80
 80023a6:	0549      	lsls	r1, r1, #21
 80023a8:	430a      	orrs	r2, r1
 80023aa:	61da      	str	r2, [r3, #28]
 80023ac:	4b05      	ldr	r3, [pc, #20]	; (80023c4 <HAL_MspInit+0x44>)
 80023ae:	69da      	ldr	r2, [r3, #28]
 80023b0:	2380      	movs	r3, #128	; 0x80
 80023b2:	055b      	lsls	r3, r3, #21
 80023b4:	4013      	ands	r3, r2
 80023b6:	603b      	str	r3, [r7, #0]
 80023b8:	683b      	ldr	r3, [r7, #0]
  /* System interrupt init*/

  /* USER CODE BEGIN MspInit 1 */

  /* USER CODE END MspInit 1 */
}
 80023ba:	46c0      	nop			; (mov r8, r8)
 80023bc:	46bd      	mov	sp, r7
 80023be:	b002      	add	sp, #8
 80023c0:	bd80      	pop	{r7, pc}
 80023c2:	46c0      	nop			; (mov r8, r8)
 80023c4:	40021000 	.word	0x40021000

080023c8 <HAL_ADC_MspInit>:
* This function configures the hardware resources used in this example
* @param hadc: ADC handle pointer
* @retval None
*/
void HAL_ADC_MspInit(ADC_HandleTypeDef* hadc)
{
 80023c8:	b590      	push	{r4, r7, lr}
 80023ca:	b08b      	sub	sp, #44	; 0x2c
 80023cc:	af00      	add	r7, sp, #0
 80023ce:	6078      	str	r0, [r7, #4]
  GPIO_InitTypeDef GPIO_InitStruct = {0};
 80023d0:	2414      	movs	r4, #20
 80023d2:	193b      	adds	r3, r7, r4
 80023d4:	0018      	movs	r0, r3
 80023d6:	2314      	movs	r3, #20
 80023d8:	001a      	movs	r2, r3
 80023da:	2100      	movs	r1, #0
 80023dc:	f002 fd4e 	bl	8004e7c <memset>
  if(hadc->Instance==ADC1)
 80023e0:	687b      	ldr	r3, [r7, #4]
 80023e2:	681b      	ldr	r3, [r3, #0]
 80023e4:	4a19      	ldr	r2, [pc, #100]	; (800244c <HAL_ADC_MspInit+0x84>)
 80023e6:	4293      	cmp	r3, r2
 80023e8:	d12b      	bne.n	8002442 <HAL_ADC_MspInit+0x7a>
  {
  /* USER CODE BEGIN ADC1_MspInit 0 */

  /* USER CODE END ADC1_MspInit 0 */
    /* Peripheral clock enable */
    __HAL_RCC_ADC1_CLK_ENABLE();
 80023ea:	4b19      	ldr	r3, [pc, #100]	; (8002450 <HAL_ADC_MspInit+0x88>)
 80023ec:	699a      	ldr	r2, [r3, #24]
 80023ee:	4b18      	ldr	r3, [pc, #96]	; (8002450 <HAL_ADC_MspInit+0x88>)
 80023f0:	2180      	movs	r1, #128	; 0x80
 80023f2:	0089      	lsls	r1, r1, #2
 80023f4:	430a      	orrs	r2, r1
 80023f6:	619a      	str	r2, [r3, #24]
 80023f8:	4b15      	ldr	r3, [pc, #84]	; (8002450 <HAL_ADC_MspInit+0x88>)
 80023fa:	699a      	ldr	r2, [r3, #24]
 80023fc:	2380      	movs	r3, #128	; 0x80
 80023fe:	009b      	lsls	r3, r3, #2
 8002400:	4013      	ands	r3, r2
 8002402:	613b      	str	r3, [r7, #16]
 8002404:	693b      	ldr	r3, [r7, #16]

    __HAL_RCC_GPIOA_CLK_ENABLE();
 8002406:	4b12      	ldr	r3, [pc, #72]	; (8002450 <HAL_ADC_MspInit+0x88>)
 8002408:	695a      	ldr	r2, [r3, #20]
 800240a:	4b11      	ldr	r3, [pc, #68]	; (8002450 <HAL_ADC_MspInit+0x88>)
 800240c:	2180      	movs	r1, #128	; 0x80
 800240e:	0289      	lsls	r1, r1, #10
 8002410:	430a      	orrs	r2, r1
 8002412:	615a      	str	r2, [r3, #20]
 8002414:	4b0e      	ldr	r3, [pc, #56]	; (8002450 <HAL_ADC_MspInit+0x88>)
 8002416:	695a      	ldr	r2, [r3, #20]
 8002418:	2380      	movs	r3, #128	; 0x80
 800241a:	029b      	lsls	r3, r3, #10
 800241c:	4013      	ands	r3, r2
 800241e:	60fb      	str	r3, [r7, #12]
 8002420:	68fb      	ldr	r3, [r7, #12]
    /**ADC GPIO Configuration
    PA0     ------> ADC_IN0
    */
    GPIO_InitStruct.Pin = AIN_MCU_Pin;
 8002422:	193b      	adds	r3, r7, r4
 8002424:	2201      	movs	r2, #1
 8002426:	601a      	str	r2, [r3, #0]
    GPIO_InitStruct.Mode = GPIO_MODE_ANALOG;
 8002428:	193b      	adds	r3, r7, r4
 800242a:	2203      	movs	r2, #3
 800242c:	605a      	str	r2, [r3, #4]
    GPIO_InitStruct.Pull = GPIO_NOPULL;
 800242e:	193b      	adds	r3, r7, r4
 8002430:	2200      	movs	r2, #0
 8002432:	609a      	str	r2, [r3, #8]
    HAL_GPIO_Init(AIN_MCU_GPIO_Port, &GPIO_InitStruct);
 8002434:	193a      	adds	r2, r7, r4
 8002436:	2390      	movs	r3, #144	; 0x90
 8002438:	05db      	lsls	r3, r3, #23
 800243a:	0011      	movs	r1, r2
 800243c:	0018      	movs	r0, r3
 800243e:	f001 fa89 	bl	8003954 <HAL_GPIO_Init>
  /* USER CODE BEGIN ADC1_MspInit 1 */

  /* USER CODE END ADC1_MspInit 1 */
  }

}
 8002442:	46c0      	nop			; (mov r8, r8)
 8002444:	46bd      	mov	sp, r7
 8002446:	b00b      	add	sp, #44	; 0x2c
 8002448:	bd90      	pop	{r4, r7, pc}
 800244a:	46c0      	nop			; (mov r8, r8)
 800244c:	40012400 	.word	0x40012400
 8002450:	40021000 	.word	0x40021000

08002454 <HAL_CAN_MspInit>:
* This function configures the hardware resources used in this example
* @param hcan: CAN handle pointer
* @retval None
*/
void HAL_CAN_MspInit(CAN_HandleTypeDef* hcan)
{
 8002454:	b590      	push	{r4, r7, lr}
 8002456:	b08b      	sub	sp, #44	; 0x2c
 8002458:	af00      	add	r7, sp, #0
 800245a:	6078      	str	r0, [r7, #4]
  GPIO_InitTypeDef GPIO_InitStruct = {0};
 800245c:	2414      	movs	r4, #20
 800245e:	193b      	adds	r3, r7, r4
 8002460:	0018      	movs	r0, r3
 8002462:	2314      	movs	r3, #20
 8002464:	001a      	movs	r2, r3
 8002466:	2100      	movs	r1, #0
 8002468:	f002 fd08 	bl	8004e7c <memset>
  if(hcan->Instance==CAN)
 800246c:	687b      	ldr	r3, [r7, #4]
 800246e:	681b      	ldr	r3, [r3, #0]
 8002470:	4a20      	ldr	r2, [pc, #128]	; (80024f4 <HAL_CAN_MspInit+0xa0>)
 8002472:	4293      	cmp	r3, r2
 8002474:	d13a      	bne.n	80024ec <HAL_CAN_MspInit+0x98>
  {
  /* USER CODE BEGIN CAN_MspInit 0 */

  /* USER CODE END CAN_MspInit 0 */
    /* Peripheral clock enable */
    __HAL_RCC_CAN1_CLK_ENABLE();
 8002476:	4b20      	ldr	r3, [pc, #128]	; (80024f8 <HAL_CAN_MspInit+0xa4>)
 8002478:	69da      	ldr	r2, [r3, #28]
 800247a:	4b1f      	ldr	r3, [pc, #124]	; (80024f8 <HAL_CAN_MspInit+0xa4>)
 800247c:	2180      	movs	r1, #128	; 0x80
 800247e:	0489      	lsls	r1, r1, #18
 8002480:	430a      	orrs	r2, r1
 8002482:	61da      	str	r2, [r3, #28]
 8002484:	4b1c      	ldr	r3, [pc, #112]	; (80024f8 <HAL_CAN_MspInit+0xa4>)
 8002486:	69da      	ldr	r2, [r3, #28]
 8002488:	2380      	movs	r3, #128	; 0x80
 800248a:	049b      	lsls	r3, r3, #18
 800248c:	4013      	ands	r3, r2
 800248e:	613b      	str	r3, [r7, #16]
 8002490:	693b      	ldr	r3, [r7, #16]

    __HAL_RCC_GPIOB_CLK_ENABLE();
 8002492:	4b19      	ldr	r3, [pc, #100]	; (80024f8 <HAL_CAN_MspInit+0xa4>)
 8002494:	695a      	ldr	r2, [r3, #20]
 8002496:	4b18      	ldr	r3, [pc, #96]	; (80024f8 <HAL_CAN_MspInit+0xa4>)
 8002498:	2180      	movs	r1, #128	; 0x80
 800249a:	02c9      	lsls	r1, r1, #11
 800249c:	430a      	orrs	r2, r1
 800249e:	615a      	str	r2, [r3, #20]
 80024a0:	4b15      	ldr	r3, [pc, #84]	; (80024f8 <HAL_CAN_MspInit+0xa4>)
 80024a2:	695a      	ldr	r2, [r3, #20]
 80024a4:	2380      	movs	r3, #128	; 0x80
 80024a6:	02db      	lsls	r3, r3, #11
 80024a8:	4013      	ands	r3, r2
 80024aa:	60fb      	str	r3, [r7, #12]
 80024ac:	68fb      	ldr	r3, [r7, #12]
    /**CAN GPIO Configuration
    PB8     ------> CAN_RX
    PB9     ------> CAN_TX
    */
    GPIO_InitStruct.Pin = GPIO_PIN_8|GPIO_PIN_9;
 80024ae:	193b      	adds	r3, r7, r4
 80024b0:	22c0      	movs	r2, #192	; 0xc0
 80024b2:	0092      	lsls	r2, r2, #2
 80024b4:	601a      	str	r2, [r3, #0]
    GPIO_InitStruct.Mode = GPIO_MODE_AF_PP;
 80024b6:	0021      	movs	r1, r4
 80024b8:	187b      	adds	r3, r7, r1
 80024ba:	2202      	movs	r2, #2
 80024bc:	605a      	str	r2, [r3, #4]
    GPIO_InitStruct.Pull = GPIO_NOPULL;
 80024be:	187b      	adds	r3, r7, r1
 80024c0:	2200      	movs	r2, #0
 80024c2:	609a      	str	r2, [r3, #8]
    GPIO_InitStruct.Speed = GPIO_SPEED_FREQ_HIGH;
 80024c4:	187b      	adds	r3, r7, r1
 80024c6:	2203      	movs	r2, #3
 80024c8:	60da      	str	r2, [r3, #12]
    GPIO_InitStruct.Alternate = GPIO_AF4_CAN;
 80024ca:	187b      	adds	r3, r7, r1
 80024cc:	2204      	movs	r2, #4
 80024ce:	611a      	str	r2, [r3, #16]
    HAL_GPIO_Init(GPIOB, &GPIO_InitStruct);
 80024d0:	187b      	adds	r3, r7, r1
 80024d2:	4a0a      	ldr	r2, [pc, #40]	; (80024fc <HAL_CAN_MspInit+0xa8>)
 80024d4:	0019      	movs	r1, r3
 80024d6:	0010      	movs	r0, r2
 80024d8:	f001 fa3c 	bl	8003954 <HAL_GPIO_Init>

    /* CAN interrupt Init */
    HAL_NVIC_SetPriority(CEC_CAN_IRQn, 0, 0);
 80024dc:	2200      	movs	r2, #0
 80024de:	2100      	movs	r1, #0
 80024e0:	201e      	movs	r0, #30
 80024e2:	f001 fa05 	bl	80038f0 <HAL_NVIC_SetPriority>
    HAL_NVIC_EnableIRQ(CEC_CAN_IRQn);
 80024e6:	201e      	movs	r0, #30
 80024e8:	f001 fa17 	bl	800391a <HAL_NVIC_EnableIRQ>
  /* USER CODE BEGIN CAN_MspInit 1 */

  /* USER CODE END CAN_MspInit 1 */
  }

}
 80024ec:	46c0      	nop			; (mov r8, r8)
 80024ee:	46bd      	mov	sp, r7
 80024f0:	b00b      	add	sp, #44	; 0x2c
 80024f2:	bd90      	pop	{r4, r7, pc}
 80024f4:	40006400 	.word	0x40006400
 80024f8:	40021000 	.word	0x40021000
 80024fc:	48000400 	.word	0x48000400

08002500 <HAL_SPI_MspInit>:
* This function configures the hardware resources used in this example
* @param hspi: SPI handle pointer
* @retval None
*/
void HAL_SPI_MspInit(SPI_HandleTypeDef* hspi)
{
 8002500:	b590      	push	{r4, r7, lr}
 8002502:	b08d      	sub	sp, #52	; 0x34
 8002504:	af00      	add	r7, sp, #0
 8002506:	6078      	str	r0, [r7, #4]
  GPIO_InitTypeDef GPIO_InitStruct = {0};
 8002508:	241c      	movs	r4, #28
 800250a:	193b      	adds	r3, r7, r4
 800250c:	0018      	movs	r0, r3
 800250e:	2314      	movs	r3, #20
 8002510:	001a      	movs	r2, r3
 8002512:	2100      	movs	r1, #0
 8002514:	f002 fcb2 	bl	8004e7c <memset>
  if(hspi->Instance==SPI1)
 8002518:	687b      	ldr	r3, [r7, #4]
 800251a:	681b      	ldr	r3, [r3, #0]
 800251c:	4a39      	ldr	r2, [pc, #228]	; (8002604 <HAL_SPI_MspInit+0x104>)
 800251e:	4293      	cmp	r3, r2
 8002520:	d133      	bne.n	800258a <HAL_SPI_MspInit+0x8a>
  {
  /* USER CODE BEGIN SPI1_MspInit 0 */

  /* USER CODE END SPI1_MspInit 0 */
    /* Peripheral clock enable */
    __HAL_RCC_SPI1_CLK_ENABLE();
 8002522:	4b39      	ldr	r3, [pc, #228]	; (8002608 <HAL_SPI_MspInit+0x108>)
 8002524:	699a      	ldr	r2, [r3, #24]
 8002526:	4b38      	ldr	r3, [pc, #224]	; (8002608 <HAL_SPI_MspInit+0x108>)
 8002528:	2180      	movs	r1, #128	; 0x80
 800252a:	0149      	lsls	r1, r1, #5
 800252c:	430a      	orrs	r2, r1
 800252e:	619a      	str	r2, [r3, #24]
 8002530:	4b35      	ldr	r3, [pc, #212]	; (8002608 <HAL_SPI_MspInit+0x108>)
 8002532:	699a      	ldr	r2, [r3, #24]
 8002534:	2380      	movs	r3, #128	; 0x80
 8002536:	015b      	lsls	r3, r3, #5
 8002538:	4013      	ands	r3, r2
 800253a:	61bb      	str	r3, [r7, #24]
 800253c:	69bb      	ldr	r3, [r7, #24]

    __HAL_RCC_GPIOA_CLK_ENABLE();
 800253e:	4b32      	ldr	r3, [pc, #200]	; (8002608 <HAL_SPI_MspInit+0x108>)
 8002540:	695a      	ldr	r2, [r3, #20]
 8002542:	4b31      	ldr	r3, [pc, #196]	; (8002608 <HAL_SPI_MspInit+0x108>)
 8002544:	2180      	movs	r1, #128	; 0x80
 8002546:	0289      	lsls	r1, r1, #10
 8002548:	430a      	orrs	r2, r1
 800254a:	615a      	str	r2, [r3, #20]
 800254c:	4b2e      	ldr	r3, [pc, #184]	; (8002608 <HAL_SPI_MspInit+0x108>)
 800254e:	695a      	ldr	r2, [r3, #20]
 8002550:	2380      	movs	r3, #128	; 0x80
 8002552:	029b      	lsls	r3, r3, #10
 8002554:	4013      	ands	r3, r2
 8002556:	617b      	str	r3, [r7, #20]
 8002558:	697b      	ldr	r3, [r7, #20]
    /**SPI1 GPIO Configuration
    PA5     ------> SPI1_SCK
    PA6     ------> SPI1_MISO
    PA7     ------> SPI1_MOSI
    */
    GPIO_InitStruct.Pin = AMS_SCK_Pin|AMS_MISO_Pin|AMS_MOSI_Pin;
 800255a:	0021      	movs	r1, r4
 800255c:	187b      	adds	r3, r7, r1
 800255e:	22e0      	movs	r2, #224	; 0xe0
 8002560:	601a      	str	r2, [r3, #0]
    GPIO_InitStruct.Mode = GPIO_MODE_AF_PP;
 8002562:	187b      	adds	r3, r7, r1
 8002564:	2202      	movs	r2, #2
 8002566:	605a      	str	r2, [r3, #4]
    GPIO_InitStruct.Pull = GPIO_NOPULL;
 8002568:	187b      	adds	r3, r7, r1
 800256a:	2200      	movs	r2, #0
 800256c:	609a      	str	r2, [r3, #8]
    GPIO_InitStruct.Speed = GPIO_SPEED_FREQ_HIGH;
 800256e:	187b      	adds	r3, r7, r1
 8002570:	2203      	movs	r2, #3
 8002572:	60da      	str	r2, [r3, #12]
    GPIO_InitStruct.Alternate = GPIO_AF0_SPI1;
 8002574:	187b      	adds	r3, r7, r1
 8002576:	2200      	movs	r2, #0
 8002578:	611a      	str	r2, [r3, #16]
    HAL_GPIO_Init(GPIOA, &GPIO_InitStruct);
 800257a:	187a      	adds	r2, r7, r1
 800257c:	2390      	movs	r3, #144	; 0x90
 800257e:	05db      	lsls	r3, r3, #23
 8002580:	0011      	movs	r1, r2
 8002582:	0018      	movs	r0, r3
 8002584:	f001 f9e6 	bl	8003954 <HAL_GPIO_Init>
  /* USER CODE BEGIN SPI2_MspInit 1 */

  /* USER CODE END SPI2_MspInit 1 */
  }

}
 8002588:	e037      	b.n	80025fa <HAL_SPI_MspInit+0xfa>
  else if(hspi->Instance==SPI2)
 800258a:	687b      	ldr	r3, [r7, #4]
 800258c:	681b      	ldr	r3, [r3, #0]
 800258e:	4a1f      	ldr	r2, [pc, #124]	; (800260c <HAL_SPI_MspInit+0x10c>)
 8002590:	4293      	cmp	r3, r2
 8002592:	d132      	bne.n	80025fa <HAL_SPI_MspInit+0xfa>
    __HAL_RCC_SPI2_CLK_ENABLE();
 8002594:	4b1c      	ldr	r3, [pc, #112]	; (8002608 <HAL_SPI_MspInit+0x108>)
 8002596:	69da      	ldr	r2, [r3, #28]
 8002598:	4b1b      	ldr	r3, [pc, #108]	; (8002608 <HAL_SPI_MspInit+0x108>)
 800259a:	2180      	movs	r1, #128	; 0x80
 800259c:	01c9      	lsls	r1, r1, #7
 800259e:	430a      	orrs	r2, r1
 80025a0:	61da      	str	r2, [r3, #28]
 80025a2:	4b19      	ldr	r3, [pc, #100]	; (8002608 <HAL_SPI_MspInit+0x108>)
 80025a4:	69da      	ldr	r2, [r3, #28]
 80025a6:	2380      	movs	r3, #128	; 0x80
 80025a8:	01db      	lsls	r3, r3, #7
 80025aa:	4013      	ands	r3, r2
 80025ac:	613b      	str	r3, [r7, #16]
 80025ae:	693b      	ldr	r3, [r7, #16]
    __HAL_RCC_GPIOB_CLK_ENABLE();
 80025b0:	4b15      	ldr	r3, [pc, #84]	; (8002608 <HAL_SPI_MspInit+0x108>)
 80025b2:	695a      	ldr	r2, [r3, #20]
 80025b4:	4b14      	ldr	r3, [pc, #80]	; (8002608 <HAL_SPI_MspInit+0x108>)
 80025b6:	2180      	movs	r1, #128	; 0x80
 80025b8:	02c9      	lsls	r1, r1, #11
 80025ba:	430a      	orrs	r2, r1
 80025bc:	615a      	str	r2, [r3, #20]
 80025be:	4b12      	ldr	r3, [pc, #72]	; (8002608 <HAL_SPI_MspInit+0x108>)
 80025c0:	695a      	ldr	r2, [r3, #20]
 80025c2:	2380      	movs	r3, #128	; 0x80
 80025c4:	02db      	lsls	r3, r3, #11
 80025c6:	4013      	ands	r3, r2
 80025c8:	60fb      	str	r3, [r7, #12]
 80025ca:	68fb      	ldr	r3, [r7, #12]
    GPIO_InitStruct.Pin = TMC_SCK_Pin|TMC_MISO_Pin|TMC_MOSI_Pin;
 80025cc:	211c      	movs	r1, #28
 80025ce:	187b      	adds	r3, r7, r1
 80025d0:	22e0      	movs	r2, #224	; 0xe0
 80025d2:	0212      	lsls	r2, r2, #8
 80025d4:	601a      	str	r2, [r3, #0]
    GPIO_InitStruct.Mode = GPIO_MODE_AF_PP;
 80025d6:	187b      	adds	r3, r7, r1
 80025d8:	2202      	movs	r2, #2
 80025da:	605a      	str	r2, [r3, #4]
    GPIO_InitStruct.Pull = GPIO_NOPULL;
 80025dc:	187b      	adds	r3, r7, r1
 80025de:	2200      	movs	r2, #0
 80025e0:	609a      	str	r2, [r3, #8]
    GPIO_InitStruct.Speed = GPIO_SPEED_FREQ_HIGH;
 80025e2:	187b      	adds	r3, r7, r1
 80025e4:	2203      	movs	r2, #3
 80025e6:	60da      	str	r2, [r3, #12]
    GPIO_InitStruct.Alternate = GPIO_AF0_SPI2;
 80025e8:	187b      	adds	r3, r7, r1
 80025ea:	2200      	movs	r2, #0
 80025ec:	611a      	str	r2, [r3, #16]
    HAL_GPIO_Init(GPIOB, &GPIO_InitStruct);
 80025ee:	187b      	adds	r3, r7, r1
 80025f0:	4a07      	ldr	r2, [pc, #28]	; (8002610 <HAL_SPI_MspInit+0x110>)
 80025f2:	0019      	movs	r1, r3
 80025f4:	0010      	movs	r0, r2
 80025f6:	f001 f9ad 	bl	8003954 <HAL_GPIO_Init>
}
 80025fa:	46c0      	nop			; (mov r8, r8)
 80025fc:	46bd      	mov	sp, r7
 80025fe:	b00d      	add	sp, #52	; 0x34
 8002600:	bd90      	pop	{r4, r7, pc}
 8002602:	46c0      	nop			; (mov r8, r8)
 8002604:	40013000 	.word	0x40013000
 8002608:	40021000 	.word	0x40021000
 800260c:	40003800 	.word	0x40003800
 8002610:	48000400 	.word	0x48000400

08002614 <NMI_Handler>:
/******************************************************************************/
/**
  * @brief This function handles Non maskable interrupt.
  */
void NMI_Handler(void)
{
 8002614:	b580      	push	{r7, lr}
 8002616:	af00      	add	r7, sp, #0
  /* USER CODE BEGIN NonMaskableInt_IRQn 0 */

  /* USER CODE END NonMaskableInt_IRQn 0 */
  /* USER CODE BEGIN NonMaskableInt_IRQn 1 */
  while (1)
 8002618:	e7fe      	b.n	8002618 <NMI_Handler+0x4>

0800261a <HardFault_Handler>:

/**
  * @brief This function handles Hard fault interrupt.
  */
void HardFault_Handler(void)
{
 800261a:	b580      	push	{r7, lr}
 800261c:	af00      	add	r7, sp, #0
  /* USER CODE BEGIN HardFault_IRQn 0 */

  /* USER CODE END HardFault_IRQn 0 */
  while (1)
 800261e:	e7fe      	b.n	800261e <HardFault_Handler+0x4>

08002620 <SVC_Handler>:

/**
  * @brief This function handles System service call via SWI instruction.
  */
void SVC_Handler(void)
{
 8002620:	b580      	push	{r7, lr}
 8002622:	af00      	add	r7, sp, #0

  /* USER CODE END SVC_IRQn 0 */
  /* USER CODE BEGIN SVC_IRQn 1 */

  /* USER CODE END SVC_IRQn 1 */
}
 8002624:	46c0      	nop			; (mov r8, r8)
 8002626:	46bd      	mov	sp, r7
 8002628:	bd80      	pop	{r7, pc}

0800262a <PendSV_Handler>:

/**
  * @brief This function handles Pendable request for system service.
  */
void PendSV_Handler(void)
{
 800262a:	b580      	push	{r7, lr}
 800262c:	af00      	add	r7, sp, #0

  /* USER CODE END PendSV_IRQn 0 */
  /* USER CODE BEGIN PendSV_IRQn 1 */

  /* USER CODE END PendSV_IRQn 1 */
}
 800262e:	46c0      	nop			; (mov r8, r8)
 8002630:	46bd      	mov	sp, r7
 8002632:	bd80      	pop	{r7, pc}

08002634 <SysTick_Handler>:

/**
  * @brief This function handles System tick timer.
  */
void SysTick_Handler(void)
{
 8002634:	b580      	push	{r7, lr}
 8002636:	af00      	add	r7, sp, #0
  /* USER CODE BEGIN SysTick_IRQn 0 */

  /* USER CODE END SysTick_IRQn 0 */
  HAL_IncTick();
 8002638:	f000 f890 	bl	800275c <HAL_IncTick>
  /* USER CODE BEGIN SysTick_IRQn 1 */

  /* USER CODE END SysTick_IRQn 1 */
}
 800263c:	46c0      	nop			; (mov r8, r8)
 800263e:	46bd      	mov	sp, r7
 8002640:	bd80      	pop	{r7, pc}

08002642 <EXTI0_1_IRQHandler>:

/**
  * @brief This function handles EXTI line 0 and 1 interrupts.
  */
void EXTI0_1_IRQHandler(void)
{
 8002642:	b580      	push	{r7, lr}
 8002644:	af00      	add	r7, sp, #0
  /* USER CODE BEGIN EXTI0_1_IRQn 0 */

  /* USER CODE END EXTI0_1_IRQn 0 */
  HAL_GPIO_EXTI_IRQHandler(AMS_INT_Pin);
 8002646:	2001      	movs	r0, #1
 8002648:	f001 fb1a 	bl	8003c80 <HAL_GPIO_EXTI_IRQHandler>
  /* USER CODE BEGIN EXTI0_1_IRQn 1 */

  /* USER CODE END EXTI0_1_IRQn 1 */
}
 800264c:	46c0      	nop			; (mov r8, r8)
 800264e:	46bd      	mov	sp, r7
 8002650:	bd80      	pop	{r7, pc}
	...

08002654 <CEC_CAN_IRQHandler>:

/**
  * @brief This function handles HDMI-CEC and CAN global interrupts / HDMI-CEC wake-up interrupt through EXTI line 27.
  */
void CEC_CAN_IRQHandler(void)
{
 8002654:	b580      	push	{r7, lr}
 8002656:	af00      	add	r7, sp, #0
  /* USER CODE BEGIN CEC_CAN_IRQn 0 */

  /* USER CODE END CEC_CAN_IRQn 0 */
  HAL_CAN_IRQHandler(&hcan);
 8002658:	4b03      	ldr	r3, [pc, #12]	; (8002668 <CEC_CAN_IRQHandler+0x14>)
 800265a:	0018      	movs	r0, r3
 800265c:	f000 fe88 	bl	8003370 <HAL_CAN_IRQHandler>
  /* USER CODE BEGIN CEC_CAN_IRQn 1 */

  /* USER CODE END CEC_CAN_IRQn 1 */
}
 8002660:	46c0      	nop			; (mov r8, r8)
 8002662:	46bd      	mov	sp, r7
 8002664:	bd80      	pop	{r7, pc}
 8002666:	46c0      	nop			; (mov r8, r8)
 8002668:	20001018 	.word	0x20001018

0800266c <SystemInit>:
  * @brief  Setup the microcontroller system
  * @param  None
  * @retval None
  */
void SystemInit(void)
{
 800266c:	b580      	push	{r7, lr}
 800266e:	af00      	add	r7, sp, #0
                         before branch to main program. This call is made inside
                         the "startup_stm32f0xx.s" file.
                         User can setups the default system clock (System clock source, PLL Multiplier
                         and Divider factors, AHB/APBx prescalers and Flash settings).
   */
}
 8002670:	46c0      	nop			; (mov r8, r8)
 8002672:	46bd      	mov	sp, r7
 8002674:	bd80      	pop	{r7, pc}
	...

08002678 <Reset_Handler>:

  .section .text.Reset_Handler
  .weak Reset_Handler
  .type Reset_Handler, %function
Reset_Handler:
  ldr   r0, =_estack
 8002678:	480d      	ldr	r0, [pc, #52]	; (80026b0 <LoopForever+0x2>)
  mov   sp, r0          /* set stack pointer */
 800267a:	4685      	mov	sp, r0

/* Copy the data segment initializers from flash to SRAM */
  ldr r0, =_sdata
 800267c:	480d      	ldr	r0, [pc, #52]	; (80026b4 <LoopForever+0x6>)
  ldr r1, =_edata
 800267e:	490e      	ldr	r1, [pc, #56]	; (80026b8 <LoopForever+0xa>)
  ldr r2, =_sidata
 8002680:	4a0e      	ldr	r2, [pc, #56]	; (80026bc <LoopForever+0xe>)
  movs r3, #0
 8002682:	2300      	movs	r3, #0
  b LoopCopyDataInit
 8002684:	e002      	b.n	800268c <LoopCopyDataInit>

08002686 <CopyDataInit>:

CopyDataInit:
  ldr r4, [r2, r3]
 8002686:	58d4      	ldr	r4, [r2, r3]
  str r4, [r0, r3]
 8002688:	50c4      	str	r4, [r0, r3]
  adds r3, r3, #4
 800268a:	3304      	adds	r3, #4

0800268c <LoopCopyDataInit>:

LoopCopyDataInit:
  adds r4, r0, r3
 800268c:	18c4      	adds	r4, r0, r3
  cmp r4, r1
 800268e:	428c      	cmp	r4, r1
  bcc CopyDataInit
 8002690:	d3f9      	bcc.n	8002686 <CopyDataInit>
  
/* Zero fill the bss segment. */
  ldr r2, =_sbss
 8002692:	4a0b      	ldr	r2, [pc, #44]	; (80026c0 <LoopForever+0x12>)
  ldr r4, =_ebss
 8002694:	4c0b      	ldr	r4, [pc, #44]	; (80026c4 <LoopForever+0x16>)
  movs r3, #0
 8002696:	2300      	movs	r3, #0
  b LoopFillZerobss
 8002698:	e001      	b.n	800269e <LoopFillZerobss>

0800269a <FillZerobss>:

FillZerobss:
  str  r3, [r2]
 800269a:	6013      	str	r3, [r2, #0]
  adds r2, r2, #4
 800269c:	3204      	adds	r2, #4

0800269e <LoopFillZerobss>:

LoopFillZerobss:
  cmp r2, r4
 800269e:	42a2      	cmp	r2, r4
  bcc FillZerobss
 80026a0:	d3fb      	bcc.n	800269a <FillZerobss>

/* Call the clock system intitialization function.*/
  bl  SystemInit
 80026a2:	f7ff ffe3 	bl	800266c <SystemInit>
/* Call static constructors */
  bl __libc_init_array
 80026a6:	f002 fbf1 	bl	8004e8c <__libc_init_array>
/* Call the application's entry point.*/
  bl main
 80026aa:	f7ff fb81 	bl	8001db0 <main>

080026ae <LoopForever>:

LoopForever:
    b LoopForever
 80026ae:	e7fe      	b.n	80026ae <LoopForever>
  ldr   r0, =_estack
 80026b0:	20008000 	.word	0x20008000
  ldr r0, =_sdata
 80026b4:	20000000 	.word	0x20000000
  ldr r1, =_edata
 80026b8:	2000000c 	.word	0x2000000c
  ldr r2, =_sidata
 80026bc:	08004f24 	.word	0x08004f24
  ldr r2, =_sbss
 80026c0:	2000000c 	.word	0x2000000c
  ldr r4, =_ebss
 80026c4:	200011a8 	.word	0x200011a8

080026c8 <ADC1_COMP_IRQHandler>:
 * @retval : None
*/
    .section .text.Default_Handler,"ax",%progbits
Default_Handler:
Infinite_Loop:
  b Infinite_Loop
 80026c8:	e7fe      	b.n	80026c8 <ADC1_COMP_IRQHandler>
	...

080026cc <HAL_Init>:
  *       In the default implementation,Systick is used as source of time base.
  *       The tick variable is incremented each 1ms in its ISR.
  * @retval HAL status
  */
HAL_StatusTypeDef HAL_Init(void)
{
 80026cc:	b580      	push	{r7, lr}
 80026ce:	af00      	add	r7, sp, #0
  /* Configure Flash prefetch */ 
#if (PREFETCH_ENABLE != 0)
  __HAL_FLASH_PREFETCH_BUFFER_ENABLE();
 80026d0:	4b07      	ldr	r3, [pc, #28]	; (80026f0 <HAL_Init+0x24>)
 80026d2:	681a      	ldr	r2, [r3, #0]
 80026d4:	4b06      	ldr	r3, [pc, #24]	; (80026f0 <HAL_Init+0x24>)
 80026d6:	2110      	movs	r1, #16
 80026d8:	430a      	orrs	r2, r1
 80026da:	601a      	str	r2, [r3, #0]
#endif /* PREFETCH_ENABLE */

  /* Use systick as time base source and configure 1ms tick (default clock after Reset is HSI) */

  HAL_InitTick(TICK_INT_PRIORITY);
 80026dc:	2003      	movs	r0, #3
 80026de:	f000 f809 	bl	80026f4 <HAL_InitTick>

  /* Init the low level hardware */
  HAL_MspInit();
 80026e2:	f7ff fe4d 	bl	8002380 <HAL_MspInit>

  /* Return function status */
  return HAL_OK;
 80026e6:	2300      	movs	r3, #0
}
 80026e8:	0018      	movs	r0, r3
 80026ea:	46bd      	mov	sp, r7
 80026ec:	bd80      	pop	{r7, pc}
 80026ee:	46c0      	nop			; (mov r8, r8)
 80026f0:	40022000 	.word	0x40022000

080026f4 <HAL_InitTick>:
  *       implementation  in user file.
  * @param TickPriority Tick interrupt priority.
  * @retval HAL status
  */
__weak HAL_StatusTypeDef HAL_InitTick(uint32_t TickPriority)
{
 80026f4:	b590      	push	{r4, r7, lr}
 80026f6:	b083      	sub	sp, #12
 80026f8:	af00      	add	r7, sp, #0
 80026fa:	6078      	str	r0, [r7, #4]
  /*Configure the SysTick to have interrupt in 1ms time basis*/
  if (HAL_SYSTICK_Config(SystemCoreClock / (1000U / uwTickFreq)) > 0U)
 80026fc:	4b14      	ldr	r3, [pc, #80]	; (8002750 <HAL_InitTick+0x5c>)
 80026fe:	681c      	ldr	r4, [r3, #0]
 8002700:	4b14      	ldr	r3, [pc, #80]	; (8002754 <HAL_InitTick+0x60>)
 8002702:	781b      	ldrb	r3, [r3, #0]
 8002704:	0019      	movs	r1, r3
 8002706:	23fa      	movs	r3, #250	; 0xfa
 8002708:	0098      	lsls	r0, r3, #2
 800270a:	f7fd fcfb 	bl	8000104 <__udivsi3>
 800270e:	0003      	movs	r3, r0
 8002710:	0019      	movs	r1, r3
 8002712:	0020      	movs	r0, r4
 8002714:	f7fd fcf6 	bl	8000104 <__udivsi3>
 8002718:	0003      	movs	r3, r0
 800271a:	0018      	movs	r0, r3
 800271c:	f001 f90d 	bl	800393a <HAL_SYSTICK_Config>
 8002720:	1e03      	subs	r3, r0, #0
 8002722:	d001      	beq.n	8002728 <HAL_InitTick+0x34>
  {
    return HAL_ERROR;
 8002724:	2301      	movs	r3, #1
 8002726:	e00f      	b.n	8002748 <HAL_InitTick+0x54>
  }

  /* Configure the SysTick IRQ priority */
  if (TickPriority < (1UL << __NVIC_PRIO_BITS))
 8002728:	687b      	ldr	r3, [r7, #4]
 800272a:	2b03      	cmp	r3, #3
 800272c:	d80b      	bhi.n	8002746 <HAL_InitTick+0x52>
  {
    HAL_NVIC_SetPriority(SysTick_IRQn, TickPriority, 0U);
 800272e:	6879      	ldr	r1, [r7, #4]
 8002730:	2301      	movs	r3, #1
 8002732:	425b      	negs	r3, r3
 8002734:	2200      	movs	r2, #0
 8002736:	0018      	movs	r0, r3
 8002738:	f001 f8da 	bl	80038f0 <HAL_NVIC_SetPriority>
    uwTickPrio = TickPriority;
 800273c:	4b06      	ldr	r3, [pc, #24]	; (8002758 <HAL_InitTick+0x64>)
 800273e:	687a      	ldr	r2, [r7, #4]
 8002740:	601a      	str	r2, [r3, #0]
  {
    return HAL_ERROR;
  }

   /* Return function status */
  return HAL_OK;
 8002742:	2300      	movs	r3, #0
 8002744:	e000      	b.n	8002748 <HAL_InitTick+0x54>
    return HAL_ERROR;
 8002746:	2301      	movs	r3, #1
}
 8002748:	0018      	movs	r0, r3
 800274a:	46bd      	mov	sp, r7
 800274c:	b003      	add	sp, #12
 800274e:	bd90      	pop	{r4, r7, pc}
 8002750:	20000000 	.word	0x20000000
 8002754:	20000008 	.word	0x20000008
 8002758:	20000004 	.word	0x20000004

0800275c <HAL_IncTick>:
  * @note This function is declared as __weak to be overwritten in case of other 
  *       implementations in user file.
  * @retval None
  */
__weak void HAL_IncTick(void)
{
 800275c:	b580      	push	{r7, lr}
 800275e:	af00      	add	r7, sp, #0
  uwTick += uwTickFreq;
 8002760:	4b05      	ldr	r3, [pc, #20]	; (8002778 <HAL_IncTick+0x1c>)
 8002762:	781b      	ldrb	r3, [r3, #0]
 8002764:	001a      	movs	r2, r3
 8002766:	4b05      	ldr	r3, [pc, #20]	; (800277c <HAL_IncTick+0x20>)
 8002768:	681b      	ldr	r3, [r3, #0]
 800276a:	18d2      	adds	r2, r2, r3
 800276c:	4b03      	ldr	r3, [pc, #12]	; (800277c <HAL_IncTick+0x20>)
 800276e:	601a      	str	r2, [r3, #0]
}
 8002770:	46c0      	nop			; (mov r8, r8)
 8002772:	46bd      	mov	sp, r7
 8002774:	bd80      	pop	{r7, pc}
 8002776:	46c0      	nop			; (mov r8, r8)
 8002778:	20000008 	.word	0x20000008
 800277c:	200011a4 	.word	0x200011a4

08002780 <HAL_GetTick>:
  * @note   This function is declared as __weak  to be overwritten  in case of other 
  *       implementations in user file.
  * @retval tick value
  */
__weak uint32_t HAL_GetTick(void)
{
 8002780:	b580      	push	{r7, lr}
 8002782:	af00      	add	r7, sp, #0
  return uwTick;
 8002784:	4b02      	ldr	r3, [pc, #8]	; (8002790 <HAL_GetTick+0x10>)
 8002786:	681b      	ldr	r3, [r3, #0]
}
 8002788:	0018      	movs	r0, r3
 800278a:	46bd      	mov	sp, r7
 800278c:	bd80      	pop	{r7, pc}
 800278e:	46c0      	nop			; (mov r8, r8)
 8002790:	200011a4 	.word	0x200011a4

08002794 <HAL_Delay>:
  *       implementations in user file.
  * @param Delay specifies the delay time length, in milliseconds.
  * @retval None
  */
__weak void HAL_Delay(uint32_t Delay)
{
 8002794:	b580      	push	{r7, lr}
 8002796:	b084      	sub	sp, #16
 8002798:	af00      	add	r7, sp, #0
 800279a:	6078      	str	r0, [r7, #4]
  uint32_t tickstart = HAL_GetTick();
 800279c:	f7ff fff0 	bl	8002780 <HAL_GetTick>
 80027a0:	0003      	movs	r3, r0
 80027a2:	60bb      	str	r3, [r7, #8]
  uint32_t wait = Delay;
 80027a4:	687b      	ldr	r3, [r7, #4]
 80027a6:	60fb      	str	r3, [r7, #12]
  
  /* Add a freq to guarantee minimum wait */
  if (wait < HAL_MAX_DELAY)
 80027a8:	68fb      	ldr	r3, [r7, #12]
 80027aa:	3301      	adds	r3, #1
 80027ac:	d005      	beq.n	80027ba <HAL_Delay+0x26>
  {
    wait += (uint32_t)(uwTickFreq);
 80027ae:	4b0a      	ldr	r3, [pc, #40]	; (80027d8 <HAL_Delay+0x44>)
 80027b0:	781b      	ldrb	r3, [r3, #0]
 80027b2:	001a      	movs	r2, r3
 80027b4:	68fb      	ldr	r3, [r7, #12]
 80027b6:	189b      	adds	r3, r3, r2
 80027b8:	60fb      	str	r3, [r7, #12]
  }
  
  while((HAL_GetTick() - tickstart) < wait)
 80027ba:	46c0      	nop			; (mov r8, r8)
 80027bc:	f7ff ffe0 	bl	8002780 <HAL_GetTick>
 80027c0:	0002      	movs	r2, r0
 80027c2:	68bb      	ldr	r3, [r7, #8]
 80027c4:	1ad3      	subs	r3, r2, r3
 80027c6:	68fa      	ldr	r2, [r7, #12]
 80027c8:	429a      	cmp	r2, r3
 80027ca:	d8f7      	bhi.n	80027bc <HAL_Delay+0x28>
  {
  }
}
 80027cc:	46c0      	nop			; (mov r8, r8)
 80027ce:	46c0      	nop			; (mov r8, r8)
 80027d0:	46bd      	mov	sp, r7
 80027d2:	b004      	add	sp, #16
 80027d4:	bd80      	pop	{r7, pc}
 80027d6:	46c0      	nop			; (mov r8, r8)
 80027d8:	20000008 	.word	0x20000008

080027dc <HAL_ADC_Init>:
  *         of structure "ADC_InitTypeDef".
  * @param  hadc ADC handle
  * @retval HAL status
  */
HAL_StatusTypeDef HAL_ADC_Init(ADC_HandleTypeDef* hadc)
{
 80027dc:	b580      	push	{r7, lr}
 80027de:	b084      	sub	sp, #16
 80027e0:	af00      	add	r7, sp, #0
 80027e2:	6078      	str	r0, [r7, #4]
  HAL_StatusTypeDef tmp_hal_status = HAL_OK;
 80027e4:	230f      	movs	r3, #15
 80027e6:	18fb      	adds	r3, r7, r3
 80027e8:	2200      	movs	r2, #0
 80027ea:	701a      	strb	r2, [r3, #0]
  uint32_t tmpCFGR1 = 0U;
 80027ec:	2300      	movs	r3, #0
 80027ee:	60bb      	str	r3, [r7, #8]

  /* Check ADC handle */
  if(hadc == NULL)
 80027f0:	687b      	ldr	r3, [r7, #4]
 80027f2:	2b00      	cmp	r3, #0
 80027f4:	d101      	bne.n	80027fa <HAL_ADC_Init+0x1e>
  {
    return HAL_ERROR;
 80027f6:	2301      	movs	r3, #1
 80027f8:	e125      	b.n	8002a46 <HAL_ADC_Init+0x26a>
  /* Refer to header of this file for more details on clock enabling procedure*/
  
  /* Actions performed only if ADC is coming from state reset:                */
  /* - Initialization of ADC MSP                                              */
  /* - ADC voltage regulator enable                                           */
  if (hadc->State == HAL_ADC_STATE_RESET)
 80027fa:	687b      	ldr	r3, [r7, #4]
 80027fc:	6b9b      	ldr	r3, [r3, #56]	; 0x38
 80027fe:	2b00      	cmp	r3, #0
 8002800:	d10a      	bne.n	8002818 <HAL_ADC_Init+0x3c>
  {
    /* Initialize ADC error code */
    ADC_CLEAR_ERRORCODE(hadc);
 8002802:	687b      	ldr	r3, [r7, #4]
 8002804:	2200      	movs	r2, #0
 8002806:	63da      	str	r2, [r3, #60]	; 0x3c
    
    /* Allocate lock resource and initialize it */
    hadc->Lock = HAL_UNLOCKED;
 8002808:	687b      	ldr	r3, [r7, #4]
 800280a:	2234      	movs	r2, #52	; 0x34
 800280c:	2100      	movs	r1, #0
 800280e:	5499      	strb	r1, [r3, r2]
    
    /* Init the low level hardware */
    hadc->MspInitCallback(hadc);
#else
    /* Init the low level hardware */
    HAL_ADC_MspInit(hadc);
 8002810:	687b      	ldr	r3, [r7, #4]
 8002812:	0018      	movs	r0, r3
 8002814:	f7ff fdd8 	bl	80023c8 <HAL_ADC_MspInit>
  /* Configuration of ADC parameters if previous preliminary actions are      */ 
  /* correctly completed.                                                     */
  /* and if there is no conversion on going on regular group (ADC can be      */ 
  /* enabled anyway, in case of call of this function to update a parameter   */
  /* on the fly).                                                             */
  if (HAL_IS_BIT_CLR(hadc->State, HAL_ADC_STATE_ERROR_INTERNAL) &&
 8002818:	687b      	ldr	r3, [r7, #4]
 800281a:	6b9b      	ldr	r3, [r3, #56]	; 0x38
 800281c:	2210      	movs	r2, #16
 800281e:	4013      	ands	r3, r2
 8002820:	d000      	beq.n	8002824 <HAL_ADC_Init+0x48>
 8002822:	e103      	b.n	8002a2c <HAL_ADC_Init+0x250>
 8002824:	230f      	movs	r3, #15
 8002826:	18fb      	adds	r3, r7, r3
 8002828:	781b      	ldrb	r3, [r3, #0]
 800282a:	2b00      	cmp	r3, #0
 800282c:	d000      	beq.n	8002830 <HAL_ADC_Init+0x54>
 800282e:	e0fd      	b.n	8002a2c <HAL_ADC_Init+0x250>
      (tmp_hal_status == HAL_OK)                                &&
      (ADC_IS_CONVERSION_ONGOING_REGULAR(hadc) == RESET)          )
 8002830:	687b      	ldr	r3, [r7, #4]
 8002832:	681b      	ldr	r3, [r3, #0]
 8002834:	689b      	ldr	r3, [r3, #8]
 8002836:	2204      	movs	r2, #4
 8002838:	4013      	ands	r3, r2
      (tmp_hal_status == HAL_OK)                                &&
 800283a:	d000      	beq.n	800283e <HAL_ADC_Init+0x62>
 800283c:	e0f6      	b.n	8002a2c <HAL_ADC_Init+0x250>
  {
    /* Set ADC state */
    ADC_STATE_CLR_SET(hadc->State,
 800283e:	687b      	ldr	r3, [r7, #4]
 8002840:	6b9b      	ldr	r3, [r3, #56]	; 0x38
 8002842:	4a83      	ldr	r2, [pc, #524]	; (8002a50 <HAL_ADC_Init+0x274>)
 8002844:	4013      	ands	r3, r2
 8002846:	2202      	movs	r2, #2
 8002848:	431a      	orrs	r2, r3
 800284a:	687b      	ldr	r3, [r7, #4]
 800284c:	639a      	str	r2, [r3, #56]	; 0x38
    /* Parameters update conditioned to ADC state:                            */
    /* Parameters that can be updated only when ADC is disabled:              */
    /*  - ADC clock mode                                                      */
    /*  - ADC clock prescaler                                                 */
    /*  - ADC resolution                                                      */
    if (ADC_IS_ENABLE(hadc) == RESET)
 800284e:	687b      	ldr	r3, [r7, #4]
 8002850:	681b      	ldr	r3, [r3, #0]
 8002852:	689b      	ldr	r3, [r3, #8]
 8002854:	2203      	movs	r2, #3
 8002856:	4013      	ands	r3, r2
 8002858:	2b01      	cmp	r3, #1
 800285a:	d112      	bne.n	8002882 <HAL_ADC_Init+0xa6>
 800285c:	687b      	ldr	r3, [r7, #4]
 800285e:	681b      	ldr	r3, [r3, #0]
 8002860:	681b      	ldr	r3, [r3, #0]
 8002862:	2201      	movs	r2, #1
 8002864:	4013      	ands	r3, r2
 8002866:	2b01      	cmp	r3, #1
 8002868:	d009      	beq.n	800287e <HAL_ADC_Init+0xa2>
 800286a:	687b      	ldr	r3, [r7, #4]
 800286c:	681b      	ldr	r3, [r3, #0]
 800286e:	68da      	ldr	r2, [r3, #12]
 8002870:	2380      	movs	r3, #128	; 0x80
 8002872:	021b      	lsls	r3, r3, #8
 8002874:	401a      	ands	r2, r3
 8002876:	2380      	movs	r3, #128	; 0x80
 8002878:	021b      	lsls	r3, r3, #8
 800287a:	429a      	cmp	r2, r3
 800287c:	d101      	bne.n	8002882 <HAL_ADC_Init+0xa6>
 800287e:	2301      	movs	r3, #1
 8002880:	e000      	b.n	8002884 <HAL_ADC_Init+0xa8>
 8002882:	2300      	movs	r3, #0
 8002884:	2b00      	cmp	r3, #0
 8002886:	d116      	bne.n	80028b6 <HAL_ADC_Init+0xda>
      /* parameters):                                                         */
      /*   - internal measurement paths: Vbat, temperature sensor, Vref       */
      /*     (set into HAL_ADC_ConfigChannel() )                              */
     
      /* Configuration of ADC resolution                                      */
      MODIFY_REG(hadc->Instance->CFGR1,
 8002888:	687b      	ldr	r3, [r7, #4]
 800288a:	681b      	ldr	r3, [r3, #0]
 800288c:	68db      	ldr	r3, [r3, #12]
 800288e:	2218      	movs	r2, #24
 8002890:	4393      	bics	r3, r2
 8002892:	0019      	movs	r1, r3
 8002894:	687b      	ldr	r3, [r7, #4]
 8002896:	689a      	ldr	r2, [r3, #8]
 8002898:	687b      	ldr	r3, [r7, #4]
 800289a:	681b      	ldr	r3, [r3, #0]
 800289c:	430a      	orrs	r2, r1
 800289e:	60da      	str	r2, [r3, #12]
                 ADC_CFGR1_RES        ,
                 hadc->Init.Resolution );
      
      /* Configuration of ADC clock mode: clock source AHB or HSI with        */
      /* selectable prescaler                                                 */
      MODIFY_REG(hadc->Instance->CFGR2    ,
 80028a0:	687b      	ldr	r3, [r7, #4]
 80028a2:	681b      	ldr	r3, [r3, #0]
 80028a4:	691b      	ldr	r3, [r3, #16]
 80028a6:	009b      	lsls	r3, r3, #2
 80028a8:	0899      	lsrs	r1, r3, #2
 80028aa:	687b      	ldr	r3, [r7, #4]
 80028ac:	685a      	ldr	r2, [r3, #4]
 80028ae:	687b      	ldr	r3, [r7, #4]
 80028b0:	681b      	ldr	r3, [r3, #0]
 80028b2:	430a      	orrs	r2, r1
 80028b4:	611a      	str	r2, [r3, #16]
    /*  - external trigger polarity                                           */
    /*  - data alignment                                                      */
    /*  - resolution                                                          */
    /*  - scan direction                                                      */
    /*  - DMA continuous request                                              */
    hadc->Instance->CFGR1 &= ~( ADC_CFGR1_DISCEN  |
 80028b6:	687b      	ldr	r3, [r7, #4]
 80028b8:	681b      	ldr	r3, [r3, #0]
 80028ba:	68da      	ldr	r2, [r3, #12]
 80028bc:	687b      	ldr	r3, [r7, #4]
 80028be:	681b      	ldr	r3, [r3, #0]
 80028c0:	4964      	ldr	r1, [pc, #400]	; (8002a54 <HAL_ADC_Init+0x278>)
 80028c2:	400a      	ands	r2, r1
 80028c4:	60da      	str	r2, [r3, #12]
                                ADC_CFGR1_EXTEN   |
                                ADC_CFGR1_ALIGN   |
                                ADC_CFGR1_SCANDIR |
                                ADC_CFGR1_DMACFG   );

    tmpCFGR1 |= (ADC_CFGR1_AUTOWAIT((uint32_t)hadc->Init.LowPowerAutoWait)        |
 80028c6:	687b      	ldr	r3, [r7, #4]
 80028c8:	7e1b      	ldrb	r3, [r3, #24]
 80028ca:	039a      	lsls	r2, r3, #14
                 ADC_CFGR1_AUTOOFF((uint32_t)hadc->Init.LowPowerAutoPowerOff)     |
 80028cc:	687b      	ldr	r3, [r7, #4]
 80028ce:	7e5b      	ldrb	r3, [r3, #25]
 80028d0:	03db      	lsls	r3, r3, #15
    tmpCFGR1 |= (ADC_CFGR1_AUTOWAIT((uint32_t)hadc->Init.LowPowerAutoWait)        |
 80028d2:	431a      	orrs	r2, r3
                 ADC_CFGR1_CONTINUOUS((uint32_t)hadc->Init.ContinuousConvMode)    |
 80028d4:	687b      	ldr	r3, [r7, #4]
 80028d6:	7e9b      	ldrb	r3, [r3, #26]
 80028d8:	035b      	lsls	r3, r3, #13
                 ADC_CFGR1_AUTOOFF((uint32_t)hadc->Init.LowPowerAutoPowerOff)     |
 80028da:	431a      	orrs	r2, r3
                 ADC_CFGR1_OVERRUN(hadc->Init.Overrun)                            |
 80028dc:	687b      	ldr	r3, [r7, #4]
 80028de:	6a9b      	ldr	r3, [r3, #40]	; 0x28
 80028e0:	2b01      	cmp	r3, #1
 80028e2:	d002      	beq.n	80028ea <HAL_ADC_Init+0x10e>
 80028e4:	2380      	movs	r3, #128	; 0x80
 80028e6:	015b      	lsls	r3, r3, #5
 80028e8:	e000      	b.n	80028ec <HAL_ADC_Init+0x110>
 80028ea:	2300      	movs	r3, #0
                 ADC_CFGR1_CONTINUOUS((uint32_t)hadc->Init.ContinuousConvMode)    |
 80028ec:	431a      	orrs	r2, r3
                 hadc->Init.DataAlign                                             |
 80028ee:	687b      	ldr	r3, [r7, #4]
 80028f0:	68db      	ldr	r3, [r3, #12]
                 ADC_CFGR1_OVERRUN(hadc->Init.Overrun)                            |
 80028f2:	431a      	orrs	r2, r3
                 ADC_SCANDIR(hadc->Init.ScanConvMode)                             |
 80028f4:	687b      	ldr	r3, [r7, #4]
 80028f6:	691b      	ldr	r3, [r3, #16]
 80028f8:	2b02      	cmp	r3, #2
 80028fa:	d101      	bne.n	8002900 <HAL_ADC_Init+0x124>
 80028fc:	2304      	movs	r3, #4
 80028fe:	e000      	b.n	8002902 <HAL_ADC_Init+0x126>
 8002900:	2300      	movs	r3, #0
                 hadc->Init.DataAlign                                             |
 8002902:	431a      	orrs	r2, r3
                 ADC_CFGR1_DMACONTREQ((uint32_t)hadc->Init.DMAContinuousRequests)  );
 8002904:	687b      	ldr	r3, [r7, #4]
 8002906:	2124      	movs	r1, #36	; 0x24
 8002908:	5c5b      	ldrb	r3, [r3, r1]
 800290a:	005b      	lsls	r3, r3, #1
                 ADC_SCANDIR(hadc->Init.ScanConvMode)                             |
 800290c:	4313      	orrs	r3, r2
    tmpCFGR1 |= (ADC_CFGR1_AUTOWAIT((uint32_t)hadc->Init.LowPowerAutoWait)        |
 800290e:	68ba      	ldr	r2, [r7, #8]
 8002910:	4313      	orrs	r3, r2
 8002912:	60bb      	str	r3, [r7, #8]
    
    /* Enable discontinuous mode only if continuous mode is disabled */
    if (hadc->Init.DiscontinuousConvMode == ENABLE)
 8002914:	687b      	ldr	r3, [r7, #4]
 8002916:	7edb      	ldrb	r3, [r3, #27]
 8002918:	2b01      	cmp	r3, #1
 800291a:	d115      	bne.n	8002948 <HAL_ADC_Init+0x16c>
    {
      if (hadc->Init.ContinuousConvMode == DISABLE)
 800291c:	687b      	ldr	r3, [r7, #4]
 800291e:	7e9b      	ldrb	r3, [r3, #26]
 8002920:	2b00      	cmp	r3, #0
 8002922:	d105      	bne.n	8002930 <HAL_ADC_Init+0x154>
      {
        /* Enable the selected ADC group regular discontinuous mode */
        tmpCFGR1 |= ADC_CFGR1_DISCEN;
 8002924:	68bb      	ldr	r3, [r7, #8]
 8002926:	2280      	movs	r2, #128	; 0x80
 8002928:	0252      	lsls	r2, r2, #9
 800292a:	4313      	orrs	r3, r2
 800292c:	60bb      	str	r3, [r7, #8]
 800292e:	e00b      	b.n	8002948 <HAL_ADC_Init+0x16c>
        /* ADC regular group discontinuous was intended to be enabled,        */
        /* but ADC regular group modes continuous and sequencer discontinuous */
        /* cannot be enabled simultaneously.                                  */
        
        /* Update ADC state machine to error */
        SET_BIT(hadc->State, HAL_ADC_STATE_ERROR_CONFIG);
 8002930:	687b      	ldr	r3, [r7, #4]
 8002932:	6b9b      	ldr	r3, [r3, #56]	; 0x38
 8002934:	2220      	movs	r2, #32
 8002936:	431a      	orrs	r2, r3
 8002938:	687b      	ldr	r3, [r7, #4]
 800293a:	639a      	str	r2, [r3, #56]	; 0x38
        
        /* Set ADC error code to ADC IP internal error */
        SET_BIT(hadc->ErrorCode, HAL_ADC_ERROR_INTERNAL);
 800293c:	687b      	ldr	r3, [r7, #4]
 800293e:	6bdb      	ldr	r3, [r3, #60]	; 0x3c
 8002940:	2201      	movs	r2, #1
 8002942:	431a      	orrs	r2, r3
 8002944:	687b      	ldr	r3, [r7, #4]
 8002946:	63da      	str	r2, [r3, #60]	; 0x3c
    /* Enable external trigger if trigger selection is different of software  */
    /* start.                                                                 */
    /* Note: This configuration keeps the hardware feature of parameter       */
    /*       ExternalTrigConvEdge "trigger edge none" equivalent to           */
    /*       software start.                                                  */
    if (hadc->Init.ExternalTrigConv != ADC_SOFTWARE_START)
 8002948:	687b      	ldr	r3, [r7, #4]
 800294a:	69da      	ldr	r2, [r3, #28]
 800294c:	23c2      	movs	r3, #194	; 0xc2
 800294e:	33ff      	adds	r3, #255	; 0xff
 8002950:	429a      	cmp	r2, r3
 8002952:	d007      	beq.n	8002964 <HAL_ADC_Init+0x188>
    {
      tmpCFGR1 |= ( hadc->Init.ExternalTrigConv    |
 8002954:	687b      	ldr	r3, [r7, #4]
 8002956:	69da      	ldr	r2, [r3, #28]
                    hadc->Init.ExternalTrigConvEdge );
 8002958:	687b      	ldr	r3, [r7, #4]
 800295a:	6a1b      	ldr	r3, [r3, #32]
      tmpCFGR1 |= ( hadc->Init.ExternalTrigConv    |
 800295c:	4313      	orrs	r3, r2
 800295e:	68ba      	ldr	r2, [r7, #8]
 8002960:	4313      	orrs	r3, r2
 8002962:	60bb      	str	r3, [r7, #8]
    }
    
    /* Update ADC configuration register with previous settings */
    hadc->Instance->CFGR1 |= tmpCFGR1;
 8002964:	687b      	ldr	r3, [r7, #4]
 8002966:	681b      	ldr	r3, [r3, #0]
 8002968:	68d9      	ldr	r1, [r3, #12]
 800296a:	687b      	ldr	r3, [r7, #4]
 800296c:	681b      	ldr	r3, [r3, #0]
 800296e:	68ba      	ldr	r2, [r7, #8]
 8002970:	430a      	orrs	r2, r1
 8002972:	60da      	str	r2, [r3, #12]
    /* Management of parameters "SamplingTimeCommon" and "SamplingTime"       */
    /* (obsolete): sampling time set in this function if parameter            */
    /*  "SamplingTimeCommon" has been set to a valid sampling time.           */
    /* Otherwise, sampling time is set into ADC channel initialization        */
    /* structure with parameter "SamplingTime" (obsolete).                    */
    if (IS_ADC_SAMPLE_TIME(hadc->Init.SamplingTimeCommon))
 8002974:	687b      	ldr	r3, [r7, #4]
 8002976:	6ada      	ldr	r2, [r3, #44]	; 0x2c
 8002978:	2380      	movs	r3, #128	; 0x80
 800297a:	055b      	lsls	r3, r3, #21
 800297c:	429a      	cmp	r2, r3
 800297e:	d01b      	beq.n	80029b8 <HAL_ADC_Init+0x1dc>
 8002980:	687b      	ldr	r3, [r7, #4]
 8002982:	6adb      	ldr	r3, [r3, #44]	; 0x2c
 8002984:	2b01      	cmp	r3, #1
 8002986:	d017      	beq.n	80029b8 <HAL_ADC_Init+0x1dc>
 8002988:	687b      	ldr	r3, [r7, #4]
 800298a:	6adb      	ldr	r3, [r3, #44]	; 0x2c
 800298c:	2b02      	cmp	r3, #2
 800298e:	d013      	beq.n	80029b8 <HAL_ADC_Init+0x1dc>
 8002990:	687b      	ldr	r3, [r7, #4]
 8002992:	6adb      	ldr	r3, [r3, #44]	; 0x2c
 8002994:	2b03      	cmp	r3, #3
 8002996:	d00f      	beq.n	80029b8 <HAL_ADC_Init+0x1dc>
 8002998:	687b      	ldr	r3, [r7, #4]
 800299a:	6adb      	ldr	r3, [r3, #44]	; 0x2c
 800299c:	2b04      	cmp	r3, #4
 800299e:	d00b      	beq.n	80029b8 <HAL_ADC_Init+0x1dc>
 80029a0:	687b      	ldr	r3, [r7, #4]
 80029a2:	6adb      	ldr	r3, [r3, #44]	; 0x2c
 80029a4:	2b05      	cmp	r3, #5
 80029a6:	d007      	beq.n	80029b8 <HAL_ADC_Init+0x1dc>
 80029a8:	687b      	ldr	r3, [r7, #4]
 80029aa:	6adb      	ldr	r3, [r3, #44]	; 0x2c
 80029ac:	2b06      	cmp	r3, #6
 80029ae:	d003      	beq.n	80029b8 <HAL_ADC_Init+0x1dc>
 80029b0:	687b      	ldr	r3, [r7, #4]
 80029b2:	6adb      	ldr	r3, [r3, #44]	; 0x2c
 80029b4:	2b07      	cmp	r3, #7
 80029b6:	d112      	bne.n	80029de <HAL_ADC_Init+0x202>
    {
      /* Channel sampling time configuration */
      /* Clear the old sample time */
      hadc->Instance->SMPR &= ~(ADC_SMPR_SMP);
 80029b8:	687b      	ldr	r3, [r7, #4]
 80029ba:	681b      	ldr	r3, [r3, #0]
 80029bc:	695a      	ldr	r2, [r3, #20]
 80029be:	687b      	ldr	r3, [r7, #4]
 80029c0:	681b      	ldr	r3, [r3, #0]
 80029c2:	2107      	movs	r1, #7
 80029c4:	438a      	bics	r2, r1
 80029c6:	615a      	str	r2, [r3, #20]
      
      /* Set the new sample time */
      hadc->Instance->SMPR |= ADC_SMPR_SET(hadc->Init.SamplingTimeCommon);
 80029c8:	687b      	ldr	r3, [r7, #4]
 80029ca:	681b      	ldr	r3, [r3, #0]
 80029cc:	6959      	ldr	r1, [r3, #20]
 80029ce:	687b      	ldr	r3, [r7, #4]
 80029d0:	6adb      	ldr	r3, [r3, #44]	; 0x2c
 80029d2:	2207      	movs	r2, #7
 80029d4:	401a      	ands	r2, r3
 80029d6:	687b      	ldr	r3, [r7, #4]
 80029d8:	681b      	ldr	r3, [r3, #0]
 80029da:	430a      	orrs	r2, r1
 80029dc:	615a      	str	r2, [r3, #20]
    /* Check back that ADC registers have effectively been configured to      */
    /* ensure of no potential problem of ADC core IP clocking.                */
    /* Check through register CFGR1 (excluding analog watchdog configuration: */
    /* set into separate dedicated function, and bits of ADC resolution set   */
    /* out of temporary variable 'tmpCFGR1').                                 */
    if ((hadc->Instance->CFGR1 & ~(ADC_CFGR1_AWDCH | ADC_CFGR1_AWDEN | ADC_CFGR1_AWDSGL | ADC_CFGR1_RES))
 80029de:	687b      	ldr	r3, [r7, #4]
 80029e0:	681b      	ldr	r3, [r3, #0]
 80029e2:	68db      	ldr	r3, [r3, #12]
 80029e4:	4a1c      	ldr	r2, [pc, #112]	; (8002a58 <HAL_ADC_Init+0x27c>)
 80029e6:	4013      	ands	r3, r2
 80029e8:	68ba      	ldr	r2, [r7, #8]
 80029ea:	429a      	cmp	r2, r3
 80029ec:	d10b      	bne.n	8002a06 <HAL_ADC_Init+0x22a>
         == tmpCFGR1)
    {
      /* Set ADC error code to none */
      ADC_CLEAR_ERRORCODE(hadc);
 80029ee:	687b      	ldr	r3, [r7, #4]
 80029f0:	2200      	movs	r2, #0
 80029f2:	63da      	str	r2, [r3, #60]	; 0x3c
      
      /* Set the ADC state */
      ADC_STATE_CLR_SET(hadc->State,
 80029f4:	687b      	ldr	r3, [r7, #4]
 80029f6:	6b9b      	ldr	r3, [r3, #56]	; 0x38
 80029f8:	2203      	movs	r2, #3
 80029fa:	4393      	bics	r3, r2
 80029fc:	2201      	movs	r2, #1
 80029fe:	431a      	orrs	r2, r3
 8002a00:	687b      	ldr	r3, [r7, #4]
 8002a02:	639a      	str	r2, [r3, #56]	; 0x38
    if ((hadc->Instance->CFGR1 & ~(ADC_CFGR1_AWDCH | ADC_CFGR1_AWDEN | ADC_CFGR1_AWDSGL | ADC_CFGR1_RES))
 8002a04:	e01c      	b.n	8002a40 <HAL_ADC_Init+0x264>
                        HAL_ADC_STATE_READY);
    }
    else
    {
      /* Update ADC state machine to error */
      ADC_STATE_CLR_SET(hadc->State,
 8002a06:	687b      	ldr	r3, [r7, #4]
 8002a08:	6b9b      	ldr	r3, [r3, #56]	; 0x38
 8002a0a:	2212      	movs	r2, #18
 8002a0c:	4393      	bics	r3, r2
 8002a0e:	2210      	movs	r2, #16
 8002a10:	431a      	orrs	r2, r3
 8002a12:	687b      	ldr	r3, [r7, #4]
 8002a14:	639a      	str	r2, [r3, #56]	; 0x38
                        HAL_ADC_STATE_BUSY_INTERNAL,
                        HAL_ADC_STATE_ERROR_INTERNAL);
      
      /* Set ADC error code to ADC IP internal error */
      SET_BIT(hadc->ErrorCode, HAL_ADC_ERROR_INTERNAL);
 8002a16:	687b      	ldr	r3, [r7, #4]
 8002a18:	6bdb      	ldr	r3, [r3, #60]	; 0x3c
 8002a1a:	2201      	movs	r2, #1
 8002a1c:	431a      	orrs	r2, r3
 8002a1e:	687b      	ldr	r3, [r7, #4]
 8002a20:	63da      	str	r2, [r3, #60]	; 0x3c
      
      tmp_hal_status = HAL_ERROR;
 8002a22:	230f      	movs	r3, #15
 8002a24:	18fb      	adds	r3, r7, r3
 8002a26:	2201      	movs	r2, #1
 8002a28:	701a      	strb	r2, [r3, #0]
    if ((hadc->Instance->CFGR1 & ~(ADC_CFGR1_AWDCH | ADC_CFGR1_AWDEN | ADC_CFGR1_AWDSGL | ADC_CFGR1_RES))
 8002a2a:	e009      	b.n	8002a40 <HAL_ADC_Init+0x264>
  
  }
  else
  {
    /* Update ADC state machine to error */
    SET_BIT(hadc->State, HAL_ADC_STATE_ERROR_INTERNAL);
 8002a2c:	687b      	ldr	r3, [r7, #4]
 8002a2e:	6b9b      	ldr	r3, [r3, #56]	; 0x38
 8002a30:	2210      	movs	r2, #16
 8002a32:	431a      	orrs	r2, r3
 8002a34:	687b      	ldr	r3, [r7, #4]
 8002a36:	639a      	str	r2, [r3, #56]	; 0x38
        
    tmp_hal_status = HAL_ERROR;
 8002a38:	230f      	movs	r3, #15
 8002a3a:	18fb      	adds	r3, r7, r3
 8002a3c:	2201      	movs	r2, #1
 8002a3e:	701a      	strb	r2, [r3, #0]
  }
  
  /* Return function status */
  return tmp_hal_status;
 8002a40:	230f      	movs	r3, #15
 8002a42:	18fb      	adds	r3, r7, r3
 8002a44:	781b      	ldrb	r3, [r3, #0]
}
 8002a46:	0018      	movs	r0, r3
 8002a48:	46bd      	mov	sp, r7
 8002a4a:	b004      	add	sp, #16
 8002a4c:	bd80      	pop	{r7, pc}
 8002a4e:	46c0      	nop			; (mov r8, r8)
 8002a50:	fffffefd 	.word	0xfffffefd
 8002a54:	fffe0219 	.word	0xfffe0219
 8002a58:	833fffe7 	.word	0x833fffe7

08002a5c <HAL_ADC_ConfigChannel>:
  * @param  hadc ADC handle
  * @param  sConfig Structure of ADC channel for regular group.
  * @retval HAL status
  */
HAL_StatusTypeDef HAL_ADC_ConfigChannel(ADC_HandleTypeDef* hadc, ADC_ChannelConfTypeDef* sConfig)
{
 8002a5c:	b580      	push	{r7, lr}
 8002a5e:	b084      	sub	sp, #16
 8002a60:	af00      	add	r7, sp, #0
 8002a62:	6078      	str	r0, [r7, #4]
 8002a64:	6039      	str	r1, [r7, #0]
  HAL_StatusTypeDef tmp_hal_status = HAL_OK;
 8002a66:	230f      	movs	r3, #15
 8002a68:	18fb      	adds	r3, r7, r3
 8002a6a:	2200      	movs	r2, #0
 8002a6c:	701a      	strb	r2, [r3, #0]
  __IO uint32_t wait_loop_index = 0U;
 8002a6e:	2300      	movs	r3, #0
 8002a70:	60bb      	str	r3, [r7, #8]
  /* Check the parameters */
  assert_param(IS_ADC_ALL_INSTANCE(hadc->Instance));
  assert_param(IS_ADC_CHANNEL(sConfig->Channel));
  assert_param(IS_ADC_RANK(sConfig->Rank));
  
  if (! IS_ADC_SAMPLE_TIME(hadc->Init.SamplingTimeCommon))
 8002a72:	687b      	ldr	r3, [r7, #4]
 8002a74:	6ada      	ldr	r2, [r3, #44]	; 0x2c
 8002a76:	2380      	movs	r3, #128	; 0x80
 8002a78:	055b      	lsls	r3, r3, #21
 8002a7a:	429a      	cmp	r2, r3
 8002a7c:	d011      	beq.n	8002aa2 <HAL_ADC_ConfigChannel+0x46>
 8002a7e:	687b      	ldr	r3, [r7, #4]
 8002a80:	6adb      	ldr	r3, [r3, #44]	; 0x2c
 8002a82:	2b01      	cmp	r3, #1
 8002a84:	d00d      	beq.n	8002aa2 <HAL_ADC_ConfigChannel+0x46>
 8002a86:	687b      	ldr	r3, [r7, #4]
 8002a88:	6adb      	ldr	r3, [r3, #44]	; 0x2c
 8002a8a:	2b02      	cmp	r3, #2
 8002a8c:	d009      	beq.n	8002aa2 <HAL_ADC_ConfigChannel+0x46>
 8002a8e:	687b      	ldr	r3, [r7, #4]
 8002a90:	6adb      	ldr	r3, [r3, #44]	; 0x2c
 8002a92:	2b03      	cmp	r3, #3
 8002a94:	d005      	beq.n	8002aa2 <HAL_ADC_ConfigChannel+0x46>
 8002a96:	687b      	ldr	r3, [r7, #4]
 8002a98:	6adb      	ldr	r3, [r3, #44]	; 0x2c
 8002a9a:	2b04      	cmp	r3, #4
 8002a9c:	d001      	beq.n	8002aa2 <HAL_ADC_ConfigChannel+0x46>
 8002a9e:	687b      	ldr	r3, [r7, #4]
 8002aa0:	6adb      	ldr	r3, [r3, #44]	; 0x2c
  {
    assert_param(IS_ADC_SAMPLE_TIME(sConfig->SamplingTime));
  }
  
  /* Process locked */
  __HAL_LOCK(hadc);
 8002aa2:	687b      	ldr	r3, [r7, #4]
 8002aa4:	2234      	movs	r2, #52	; 0x34
 8002aa6:	5c9b      	ldrb	r3, [r3, r2]
 8002aa8:	2b01      	cmp	r3, #1
 8002aaa:	d101      	bne.n	8002ab0 <HAL_ADC_ConfigChannel+0x54>
 8002aac:	2302      	movs	r3, #2
 8002aae:	e0d0      	b.n	8002c52 <HAL_ADC_ConfigChannel+0x1f6>
 8002ab0:	687b      	ldr	r3, [r7, #4]
 8002ab2:	2234      	movs	r2, #52	; 0x34
 8002ab4:	2101      	movs	r1, #1
 8002ab6:	5499      	strb	r1, [r3, r2]
  /* Parameters that can be updated when ADC is disabled or enabled without   */
  /* conversion on going on regular group:                                    */
  /*  - Channel number                                                        */
  /*  - Channel sampling time                                                 */
  /*  - Management of internal measurement channels: VrefInt/TempSensor/Vbat  */
  if (ADC_IS_CONVERSION_ONGOING_REGULAR(hadc) == RESET)
 8002ab8:	687b      	ldr	r3, [r7, #4]
 8002aba:	681b      	ldr	r3, [r3, #0]
 8002abc:	689b      	ldr	r3, [r3, #8]
 8002abe:	2204      	movs	r2, #4
 8002ac0:	4013      	ands	r3, r2
 8002ac2:	d000      	beq.n	8002ac6 <HAL_ADC_ConfigChannel+0x6a>
 8002ac4:	e0b4      	b.n	8002c30 <HAL_ADC_ConfigChannel+0x1d4>
  {
    /* Configure channel: depending on rank setting, add it or remove it from */
    /* ADC conversion sequencer.                                              */
    if (sConfig->Rank != ADC_RANK_NONE)
 8002ac6:	683b      	ldr	r3, [r7, #0]
 8002ac8:	685b      	ldr	r3, [r3, #4]
 8002aca:	4a64      	ldr	r2, [pc, #400]	; (8002c5c <HAL_ADC_ConfigChannel+0x200>)
 8002acc:	4293      	cmp	r3, r2
 8002ace:	d100      	bne.n	8002ad2 <HAL_ADC_ConfigChannel+0x76>
 8002ad0:	e082      	b.n	8002bd8 <HAL_ADC_ConfigChannel+0x17c>
    {
      /* Regular sequence configuration */
      /* Set the channel selection register from the selected channel */
      hadc->Instance->CHSELR |= ADC_CHSELR_CHANNEL(sConfig->Channel);
 8002ad2:	687b      	ldr	r3, [r7, #4]
 8002ad4:	681b      	ldr	r3, [r3, #0]
 8002ad6:	6a99      	ldr	r1, [r3, #40]	; 0x28
 8002ad8:	683b      	ldr	r3, [r7, #0]
 8002ada:	681b      	ldr	r3, [r3, #0]
 8002adc:	2201      	movs	r2, #1
 8002ade:	409a      	lsls	r2, r3
 8002ae0:	687b      	ldr	r3, [r7, #4]
 8002ae2:	681b      	ldr	r3, [r3, #0]
 8002ae4:	430a      	orrs	r2, r1
 8002ae6:	629a      	str	r2, [r3, #40]	; 0x28
      /* Channel sampling time configuration */
      /* Management of parameters "SamplingTimeCommon" and "SamplingTime"     */
      /* (obsolete): sampling time set in this function with                  */
      /* parameter "SamplingTime" (obsolete) only if not already set into     */
      /* ADC initialization structure with parameter "SamplingTimeCommon".    */
      if (! IS_ADC_SAMPLE_TIME(hadc->Init.SamplingTimeCommon))
 8002ae8:	687b      	ldr	r3, [r7, #4]
 8002aea:	6ada      	ldr	r2, [r3, #44]	; 0x2c
 8002aec:	2380      	movs	r3, #128	; 0x80
 8002aee:	055b      	lsls	r3, r3, #21
 8002af0:	429a      	cmp	r2, r3
 8002af2:	d037      	beq.n	8002b64 <HAL_ADC_ConfigChannel+0x108>
 8002af4:	687b      	ldr	r3, [r7, #4]
 8002af6:	6adb      	ldr	r3, [r3, #44]	; 0x2c
 8002af8:	2b01      	cmp	r3, #1
 8002afa:	d033      	beq.n	8002b64 <HAL_ADC_ConfigChannel+0x108>
 8002afc:	687b      	ldr	r3, [r7, #4]
 8002afe:	6adb      	ldr	r3, [r3, #44]	; 0x2c
 8002b00:	2b02      	cmp	r3, #2
 8002b02:	d02f      	beq.n	8002b64 <HAL_ADC_ConfigChannel+0x108>
 8002b04:	687b      	ldr	r3, [r7, #4]
 8002b06:	6adb      	ldr	r3, [r3, #44]	; 0x2c
 8002b08:	2b03      	cmp	r3, #3
 8002b0a:	d02b      	beq.n	8002b64 <HAL_ADC_ConfigChannel+0x108>
 8002b0c:	687b      	ldr	r3, [r7, #4]
 8002b0e:	6adb      	ldr	r3, [r3, #44]	; 0x2c
 8002b10:	2b04      	cmp	r3, #4
 8002b12:	d027      	beq.n	8002b64 <HAL_ADC_ConfigChannel+0x108>
 8002b14:	687b      	ldr	r3, [r7, #4]
 8002b16:	6adb      	ldr	r3, [r3, #44]	; 0x2c
 8002b18:	2b05      	cmp	r3, #5
 8002b1a:	d023      	beq.n	8002b64 <HAL_ADC_ConfigChannel+0x108>
 8002b1c:	687b      	ldr	r3, [r7, #4]
 8002b1e:	6adb      	ldr	r3, [r3, #44]	; 0x2c
 8002b20:	2b06      	cmp	r3, #6
 8002b22:	d01f      	beq.n	8002b64 <HAL_ADC_ConfigChannel+0x108>
 8002b24:	687b      	ldr	r3, [r7, #4]
 8002b26:	6adb      	ldr	r3, [r3, #44]	; 0x2c
 8002b28:	2b07      	cmp	r3, #7
 8002b2a:	d01b      	beq.n	8002b64 <HAL_ADC_ConfigChannel+0x108>
      {
        /* Modify sampling time if needed (not needed in case of reoccurrence */
        /* for several channels programmed consecutively into the sequencer)  */
        if (sConfig->SamplingTime != ADC_GET_SAMPLINGTIME(hadc))
 8002b2c:	683b      	ldr	r3, [r7, #0]
 8002b2e:	689a      	ldr	r2, [r3, #8]
 8002b30:	687b      	ldr	r3, [r7, #4]
 8002b32:	681b      	ldr	r3, [r3, #0]
 8002b34:	695b      	ldr	r3, [r3, #20]
 8002b36:	2107      	movs	r1, #7
 8002b38:	400b      	ands	r3, r1
 8002b3a:	429a      	cmp	r2, r3
 8002b3c:	d012      	beq.n	8002b64 <HAL_ADC_ConfigChannel+0x108>
        {
          /* Channel sampling time configuration */
          /* Clear the old sample time */
          hadc->Instance->SMPR &= ~(ADC_SMPR_SMP);
 8002b3e:	687b      	ldr	r3, [r7, #4]
 8002b40:	681b      	ldr	r3, [r3, #0]
 8002b42:	695a      	ldr	r2, [r3, #20]
 8002b44:	687b      	ldr	r3, [r7, #4]
 8002b46:	681b      	ldr	r3, [r3, #0]
 8002b48:	2107      	movs	r1, #7
 8002b4a:	438a      	bics	r2, r1
 8002b4c:	615a      	str	r2, [r3, #20]
          
          /* Set the new sample time */
          hadc->Instance->SMPR |= ADC_SMPR_SET(sConfig->SamplingTime);
 8002b4e:	687b      	ldr	r3, [r7, #4]
 8002b50:	681b      	ldr	r3, [r3, #0]
 8002b52:	6959      	ldr	r1, [r3, #20]
 8002b54:	683b      	ldr	r3, [r7, #0]
 8002b56:	689b      	ldr	r3, [r3, #8]
 8002b58:	2207      	movs	r2, #7
 8002b5a:	401a      	ands	r2, r3
 8002b5c:	687b      	ldr	r3, [r7, #4]
 8002b5e:	681b      	ldr	r3, [r3, #0]
 8002b60:	430a      	orrs	r2, r1
 8002b62:	615a      	str	r2, [r3, #20]
      /* internal measurement paths enable: If internal channel selected,     */
      /* enable dedicated internal buffers and path.                          */
      /* Note: these internal measurement paths can be disabled using         */
      /*       HAL_ADC_DeInit() or removing the channel from sequencer with   */
      /*       channel configuration parameter "Rank".                        */
      if(ADC_IS_CHANNEL_INTERNAL(sConfig->Channel))
 8002b64:	683b      	ldr	r3, [r7, #0]
 8002b66:	681b      	ldr	r3, [r3, #0]
 8002b68:	2b10      	cmp	r3, #16
 8002b6a:	d007      	beq.n	8002b7c <HAL_ADC_ConfigChannel+0x120>
 8002b6c:	683b      	ldr	r3, [r7, #0]
 8002b6e:	681b      	ldr	r3, [r3, #0]
 8002b70:	2b11      	cmp	r3, #17
 8002b72:	d003      	beq.n	8002b7c <HAL_ADC_ConfigChannel+0x120>
 8002b74:	683b      	ldr	r3, [r7, #0]
 8002b76:	681b      	ldr	r3, [r3, #0]
 8002b78:	2b12      	cmp	r3, #18
 8002b7a:	d163      	bne.n	8002c44 <HAL_ADC_ConfigChannel+0x1e8>
      {
        /* If Channel_16 is selected, enable Temp. sensor measurement path. */
        /* If Channel_17 is selected, enable VREFINT measurement path. */
        /* If Channel_18 is selected, enable VBAT measurement path. */
        ADC->CCR |= ADC_CHANNEL_INTERNAL_PATH(sConfig->Channel);
 8002b7c:	4b38      	ldr	r3, [pc, #224]	; (8002c60 <HAL_ADC_ConfigChannel+0x204>)
 8002b7e:	6819      	ldr	r1, [r3, #0]
 8002b80:	683b      	ldr	r3, [r7, #0]
 8002b82:	681b      	ldr	r3, [r3, #0]
 8002b84:	2b10      	cmp	r3, #16
 8002b86:	d009      	beq.n	8002b9c <HAL_ADC_ConfigChannel+0x140>
 8002b88:	683b      	ldr	r3, [r7, #0]
 8002b8a:	681b      	ldr	r3, [r3, #0]
 8002b8c:	2b11      	cmp	r3, #17
 8002b8e:	d102      	bne.n	8002b96 <HAL_ADC_ConfigChannel+0x13a>
 8002b90:	2380      	movs	r3, #128	; 0x80
 8002b92:	03db      	lsls	r3, r3, #15
 8002b94:	e004      	b.n	8002ba0 <HAL_ADC_ConfigChannel+0x144>
 8002b96:	2380      	movs	r3, #128	; 0x80
 8002b98:	045b      	lsls	r3, r3, #17
 8002b9a:	e001      	b.n	8002ba0 <HAL_ADC_ConfigChannel+0x144>
 8002b9c:	2380      	movs	r3, #128	; 0x80
 8002b9e:	041b      	lsls	r3, r3, #16
 8002ba0:	4a2f      	ldr	r2, [pc, #188]	; (8002c60 <HAL_ADC_ConfigChannel+0x204>)
 8002ba2:	430b      	orrs	r3, r1
 8002ba4:	6013      	str	r3, [r2, #0]
        
        /* If Temp. sensor is selected, wait for stabilization delay */
        if (sConfig->Channel == ADC_CHANNEL_TEMPSENSOR)
 8002ba6:	683b      	ldr	r3, [r7, #0]
 8002ba8:	681b      	ldr	r3, [r3, #0]
 8002baa:	2b10      	cmp	r3, #16
 8002bac:	d14a      	bne.n	8002c44 <HAL_ADC_ConfigChannel+0x1e8>
        {
          /* Delay for temperature sensor stabilization time */
          /* Compute number of CPU cycles to wait for */
          wait_loop_index = (ADC_TEMPSENSOR_DELAY_US * (SystemCoreClock / 1000000U));
 8002bae:	4b2d      	ldr	r3, [pc, #180]	; (8002c64 <HAL_ADC_ConfigChannel+0x208>)
 8002bb0:	681b      	ldr	r3, [r3, #0]
 8002bb2:	492d      	ldr	r1, [pc, #180]	; (8002c68 <HAL_ADC_ConfigChannel+0x20c>)
 8002bb4:	0018      	movs	r0, r3
 8002bb6:	f7fd faa5 	bl	8000104 <__udivsi3>
 8002bba:	0003      	movs	r3, r0
 8002bbc:	001a      	movs	r2, r3
 8002bbe:	0013      	movs	r3, r2
 8002bc0:	009b      	lsls	r3, r3, #2
 8002bc2:	189b      	adds	r3, r3, r2
 8002bc4:	005b      	lsls	r3, r3, #1
 8002bc6:	60bb      	str	r3, [r7, #8]
          while(wait_loop_index != 0U)
 8002bc8:	e002      	b.n	8002bd0 <HAL_ADC_ConfigChannel+0x174>
          {
            wait_loop_index--;
 8002bca:	68bb      	ldr	r3, [r7, #8]
 8002bcc:	3b01      	subs	r3, #1
 8002bce:	60bb      	str	r3, [r7, #8]
          while(wait_loop_index != 0U)
 8002bd0:	68bb      	ldr	r3, [r7, #8]
 8002bd2:	2b00      	cmp	r3, #0
 8002bd4:	d1f9      	bne.n	8002bca <HAL_ADC_ConfigChannel+0x16e>
 8002bd6:	e035      	b.n	8002c44 <HAL_ADC_ConfigChannel+0x1e8>
    }
    else
    {
      /* Regular sequence configuration */
      /* Reset the channel selection register from the selected channel */
      hadc->Instance->CHSELR &= ~ADC_CHSELR_CHANNEL(sConfig->Channel);
 8002bd8:	687b      	ldr	r3, [r7, #4]
 8002bda:	681b      	ldr	r3, [r3, #0]
 8002bdc:	6a9a      	ldr	r2, [r3, #40]	; 0x28
 8002bde:	683b      	ldr	r3, [r7, #0]
 8002be0:	681b      	ldr	r3, [r3, #0]
 8002be2:	2101      	movs	r1, #1
 8002be4:	4099      	lsls	r1, r3
 8002be6:	000b      	movs	r3, r1
 8002be8:	43d9      	mvns	r1, r3
 8002bea:	687b      	ldr	r3, [r7, #4]
 8002bec:	681b      	ldr	r3, [r3, #0]
 8002bee:	400a      	ands	r2, r1
 8002bf0:	629a      	str	r2, [r3, #40]	; 0x28
      
      /* Management of internal measurement channels: VrefInt/TempSensor/Vbat */
      /* internal measurement paths disable: If internal channel selected,    */
      /* disable dedicated internal buffers and path.                         */
      if(ADC_IS_CHANNEL_INTERNAL(sConfig->Channel))
 8002bf2:	683b      	ldr	r3, [r7, #0]
 8002bf4:	681b      	ldr	r3, [r3, #0]
 8002bf6:	2b10      	cmp	r3, #16
 8002bf8:	d007      	beq.n	8002c0a <HAL_ADC_ConfigChannel+0x1ae>
 8002bfa:	683b      	ldr	r3, [r7, #0]
 8002bfc:	681b      	ldr	r3, [r3, #0]
 8002bfe:	2b11      	cmp	r3, #17
 8002c00:	d003      	beq.n	8002c0a <HAL_ADC_ConfigChannel+0x1ae>
 8002c02:	683b      	ldr	r3, [r7, #0]
 8002c04:	681b      	ldr	r3, [r3, #0]
 8002c06:	2b12      	cmp	r3, #18
 8002c08:	d11c      	bne.n	8002c44 <HAL_ADC_ConfigChannel+0x1e8>
      {
        /* If Channel_16 is selected, disable Temp. sensor measurement path. */
        /* If Channel_17 is selected, disable VREFINT measurement path. */
        /* If Channel_18 is selected, disable VBAT measurement path. */
        ADC->CCR &= ~ADC_CHANNEL_INTERNAL_PATH(sConfig->Channel);
 8002c0a:	4b15      	ldr	r3, [pc, #84]	; (8002c60 <HAL_ADC_ConfigChannel+0x204>)
 8002c0c:	6819      	ldr	r1, [r3, #0]
 8002c0e:	683b      	ldr	r3, [r7, #0]
 8002c10:	681b      	ldr	r3, [r3, #0]
 8002c12:	2b10      	cmp	r3, #16
 8002c14:	d007      	beq.n	8002c26 <HAL_ADC_ConfigChannel+0x1ca>
 8002c16:	683b      	ldr	r3, [r7, #0]
 8002c18:	681b      	ldr	r3, [r3, #0]
 8002c1a:	2b11      	cmp	r3, #17
 8002c1c:	d101      	bne.n	8002c22 <HAL_ADC_ConfigChannel+0x1c6>
 8002c1e:	4b13      	ldr	r3, [pc, #76]	; (8002c6c <HAL_ADC_ConfigChannel+0x210>)
 8002c20:	e002      	b.n	8002c28 <HAL_ADC_ConfigChannel+0x1cc>
 8002c22:	4b13      	ldr	r3, [pc, #76]	; (8002c70 <HAL_ADC_ConfigChannel+0x214>)
 8002c24:	e000      	b.n	8002c28 <HAL_ADC_ConfigChannel+0x1cc>
 8002c26:	4b13      	ldr	r3, [pc, #76]	; (8002c74 <HAL_ADC_ConfigChannel+0x218>)
 8002c28:	4a0d      	ldr	r2, [pc, #52]	; (8002c60 <HAL_ADC_ConfigChannel+0x204>)
 8002c2a:	400b      	ands	r3, r1
 8002c2c:	6013      	str	r3, [r2, #0]
 8002c2e:	e009      	b.n	8002c44 <HAL_ADC_ConfigChannel+0x1e8>
  /* channel could be done on neither of the channel configuration structure  */
  /* parameters.                                                              */
  else
  {
    /* Update ADC state machine to error */
    SET_BIT(hadc->State, HAL_ADC_STATE_ERROR_CONFIG);
 8002c30:	687b      	ldr	r3, [r7, #4]
 8002c32:	6b9b      	ldr	r3, [r3, #56]	; 0x38
 8002c34:	2220      	movs	r2, #32
 8002c36:	431a      	orrs	r2, r3
 8002c38:	687b      	ldr	r3, [r7, #4]
 8002c3a:	639a      	str	r2, [r3, #56]	; 0x38
    
    tmp_hal_status = HAL_ERROR;
 8002c3c:	230f      	movs	r3, #15
 8002c3e:	18fb      	adds	r3, r7, r3
 8002c40:	2201      	movs	r2, #1
 8002c42:	701a      	strb	r2, [r3, #0]
  }
  
  /* Process unlocked */
  __HAL_UNLOCK(hadc);
 8002c44:	687b      	ldr	r3, [r7, #4]
 8002c46:	2234      	movs	r2, #52	; 0x34
 8002c48:	2100      	movs	r1, #0
 8002c4a:	5499      	strb	r1, [r3, r2]
  
  /* Return function status */
  return tmp_hal_status;
 8002c4c:	230f      	movs	r3, #15
 8002c4e:	18fb      	adds	r3, r7, r3
 8002c50:	781b      	ldrb	r3, [r3, #0]
}
 8002c52:	0018      	movs	r0, r3
 8002c54:	46bd      	mov	sp, r7
 8002c56:	b004      	add	sp, #16
 8002c58:	bd80      	pop	{r7, pc}
 8002c5a:	46c0      	nop			; (mov r8, r8)
 8002c5c:	00001001 	.word	0x00001001
 8002c60:	40012708 	.word	0x40012708
 8002c64:	20000000 	.word	0x20000000
 8002c68:	000f4240 	.word	0x000f4240
 8002c6c:	ffbfffff 	.word	0xffbfffff
 8002c70:	feffffff 	.word	0xfeffffff
 8002c74:	ff7fffff 	.word	0xff7fffff

08002c78 <HAL_CAN_Init>:
  * @param  hcan pointer to a CAN_HandleTypeDef structure that contains
  *         the configuration information for the specified CAN.
  * @retval HAL status
  */
HAL_StatusTypeDef HAL_CAN_Init(CAN_HandleTypeDef *hcan)
{
 8002c78:	b580      	push	{r7, lr}
 8002c7a:	b084      	sub	sp, #16
 8002c7c:	af00      	add	r7, sp, #0
 8002c7e:	6078      	str	r0, [r7, #4]
  uint32_t tickstart;

  /* Check CAN handle */
  if (hcan == NULL)
 8002c80:	687b      	ldr	r3, [r7, #4]
 8002c82:	2b00      	cmp	r3, #0
 8002c84:	d101      	bne.n	8002c8a <HAL_CAN_Init+0x12>
  {
    return HAL_ERROR;
 8002c86:	2301      	movs	r3, #1
 8002c88:	e0f0      	b.n	8002e6c <HAL_CAN_Init+0x1f4>
    /* Init the low level hardware: CLOCK, NVIC */
    hcan->MspInitCallback(hcan);
  }

#else
  if (hcan->State == HAL_CAN_STATE_RESET)
 8002c8a:	687b      	ldr	r3, [r7, #4]
 8002c8c:	2220      	movs	r2, #32
 8002c8e:	5c9b      	ldrb	r3, [r3, r2]
 8002c90:	b2db      	uxtb	r3, r3
 8002c92:	2b00      	cmp	r3, #0
 8002c94:	d103      	bne.n	8002c9e <HAL_CAN_Init+0x26>
  {
    /* Init the low level hardware: CLOCK, NVIC */
    HAL_CAN_MspInit(hcan);
 8002c96:	687b      	ldr	r3, [r7, #4]
 8002c98:	0018      	movs	r0, r3
 8002c9a:	f7ff fbdb 	bl	8002454 <HAL_CAN_MspInit>
  }
#endif /* (USE_HAL_CAN_REGISTER_CALLBACKS) */

  /* Request initialisation */
  SET_BIT(hcan->Instance->MCR, CAN_MCR_INRQ);
 8002c9e:	687b      	ldr	r3, [r7, #4]
 8002ca0:	681b      	ldr	r3, [r3, #0]
 8002ca2:	681a      	ldr	r2, [r3, #0]
 8002ca4:	687b      	ldr	r3, [r7, #4]
 8002ca6:	681b      	ldr	r3, [r3, #0]
 8002ca8:	2101      	movs	r1, #1
 8002caa:	430a      	orrs	r2, r1
 8002cac:	601a      	str	r2, [r3, #0]

  /* Get tick */
  tickstart = HAL_GetTick();
 8002cae:	f7ff fd67 	bl	8002780 <HAL_GetTick>
 8002cb2:	0003      	movs	r3, r0
 8002cb4:	60fb      	str	r3, [r7, #12]

  /* Wait initialisation acknowledge */
  while ((hcan->Instance->MSR & CAN_MSR_INAK) == 0U)
 8002cb6:	e013      	b.n	8002ce0 <HAL_CAN_Init+0x68>
  {
    if ((HAL_GetTick() - tickstart) > CAN_TIMEOUT_VALUE)
 8002cb8:	f7ff fd62 	bl	8002780 <HAL_GetTick>
 8002cbc:	0002      	movs	r2, r0
 8002cbe:	68fb      	ldr	r3, [r7, #12]
 8002cc0:	1ad3      	subs	r3, r2, r3
 8002cc2:	2b0a      	cmp	r3, #10
 8002cc4:	d90c      	bls.n	8002ce0 <HAL_CAN_Init+0x68>
    {
      /* Update error code */
      hcan->ErrorCode |= HAL_CAN_ERROR_TIMEOUT;
 8002cc6:	687b      	ldr	r3, [r7, #4]
 8002cc8:	6a5b      	ldr	r3, [r3, #36]	; 0x24
 8002cca:	2280      	movs	r2, #128	; 0x80
 8002ccc:	0292      	lsls	r2, r2, #10
 8002cce:	431a      	orrs	r2, r3
 8002cd0:	687b      	ldr	r3, [r7, #4]
 8002cd2:	625a      	str	r2, [r3, #36]	; 0x24

      /* Change CAN state */
      hcan->State = HAL_CAN_STATE_ERROR;
 8002cd4:	687b      	ldr	r3, [r7, #4]
 8002cd6:	2220      	movs	r2, #32
 8002cd8:	2105      	movs	r1, #5
 8002cda:	5499      	strb	r1, [r3, r2]

      return HAL_ERROR;
 8002cdc:	2301      	movs	r3, #1
 8002cde:	e0c5      	b.n	8002e6c <HAL_CAN_Init+0x1f4>
  while ((hcan->Instance->MSR & CAN_MSR_INAK) == 0U)
 8002ce0:	687b      	ldr	r3, [r7, #4]
 8002ce2:	681b      	ldr	r3, [r3, #0]
 8002ce4:	685b      	ldr	r3, [r3, #4]
 8002ce6:	2201      	movs	r2, #1
 8002ce8:	4013      	ands	r3, r2
 8002cea:	d0e5      	beq.n	8002cb8 <HAL_CAN_Init+0x40>
    }
  }

  /* Exit from sleep mode */
  CLEAR_BIT(hcan->Instance->MCR, CAN_MCR_SLEEP);
 8002cec:	687b      	ldr	r3, [r7, #4]
 8002cee:	681b      	ldr	r3, [r3, #0]
 8002cf0:	681a      	ldr	r2, [r3, #0]
 8002cf2:	687b      	ldr	r3, [r7, #4]
 8002cf4:	681b      	ldr	r3, [r3, #0]
 8002cf6:	2102      	movs	r1, #2
 8002cf8:	438a      	bics	r2, r1
 8002cfa:	601a      	str	r2, [r3, #0]

  /* Get tick */
  tickstart = HAL_GetTick();
 8002cfc:	f7ff fd40 	bl	8002780 <HAL_GetTick>
 8002d00:	0003      	movs	r3, r0
 8002d02:	60fb      	str	r3, [r7, #12]

  /* Check Sleep mode leave acknowledge */
  while ((hcan->Instance->MSR & CAN_MSR_SLAK) != 0U)
 8002d04:	e013      	b.n	8002d2e <HAL_CAN_Init+0xb6>
  {
    if ((HAL_GetTick() - tickstart) > CAN_TIMEOUT_VALUE)
 8002d06:	f7ff fd3b 	bl	8002780 <HAL_GetTick>
 8002d0a:	0002      	movs	r2, r0
 8002d0c:	68fb      	ldr	r3, [r7, #12]
 8002d0e:	1ad3      	subs	r3, r2, r3
 8002d10:	2b0a      	cmp	r3, #10
 8002d12:	d90c      	bls.n	8002d2e <HAL_CAN_Init+0xb6>
    {
      /* Update error code */
      hcan->ErrorCode |= HAL_CAN_ERROR_TIMEOUT;
 8002d14:	687b      	ldr	r3, [r7, #4]
 8002d16:	6a5b      	ldr	r3, [r3, #36]	; 0x24
 8002d18:	2280      	movs	r2, #128	; 0x80
 8002d1a:	0292      	lsls	r2, r2, #10
 8002d1c:	431a      	orrs	r2, r3
 8002d1e:	687b      	ldr	r3, [r7, #4]
 8002d20:	625a      	str	r2, [r3, #36]	; 0x24

      /* Change CAN state */
      hcan->State = HAL_CAN_STATE_ERROR;
 8002d22:	687b      	ldr	r3, [r7, #4]
 8002d24:	2220      	movs	r2, #32
 8002d26:	2105      	movs	r1, #5
 8002d28:	5499      	strb	r1, [r3, r2]

      return HAL_ERROR;
 8002d2a:	2301      	movs	r3, #1
 8002d2c:	e09e      	b.n	8002e6c <HAL_CAN_Init+0x1f4>
  while ((hcan->Instance->MSR & CAN_MSR_SLAK) != 0U)
 8002d2e:	687b      	ldr	r3, [r7, #4]
 8002d30:	681b      	ldr	r3, [r3, #0]
 8002d32:	685b      	ldr	r3, [r3, #4]
 8002d34:	2202      	movs	r2, #2
 8002d36:	4013      	ands	r3, r2
 8002d38:	d1e5      	bne.n	8002d06 <HAL_CAN_Init+0x8e>
    }
  }

  /* Set the time triggered communication mode */
  if (hcan->Init.TimeTriggeredMode == ENABLE)
 8002d3a:	687b      	ldr	r3, [r7, #4]
 8002d3c:	7e1b      	ldrb	r3, [r3, #24]
 8002d3e:	2b01      	cmp	r3, #1
 8002d40:	d108      	bne.n	8002d54 <HAL_CAN_Init+0xdc>
  {
    SET_BIT(hcan->Instance->MCR, CAN_MCR_TTCM);
 8002d42:	687b      	ldr	r3, [r7, #4]
 8002d44:	681b      	ldr	r3, [r3, #0]
 8002d46:	681a      	ldr	r2, [r3, #0]
 8002d48:	687b      	ldr	r3, [r7, #4]
 8002d4a:	681b      	ldr	r3, [r3, #0]
 8002d4c:	2180      	movs	r1, #128	; 0x80
 8002d4e:	430a      	orrs	r2, r1
 8002d50:	601a      	str	r2, [r3, #0]
 8002d52:	e007      	b.n	8002d64 <HAL_CAN_Init+0xec>
  }
  else
  {
    CLEAR_BIT(hcan->Instance->MCR, CAN_MCR_TTCM);
 8002d54:	687b      	ldr	r3, [r7, #4]
 8002d56:	681b      	ldr	r3, [r3, #0]
 8002d58:	681a      	ldr	r2, [r3, #0]
 8002d5a:	687b      	ldr	r3, [r7, #4]
 8002d5c:	681b      	ldr	r3, [r3, #0]
 8002d5e:	2180      	movs	r1, #128	; 0x80
 8002d60:	438a      	bics	r2, r1
 8002d62:	601a      	str	r2, [r3, #0]
  }

  /* Set the automatic bus-off management */
  if (hcan->Init.AutoBusOff == ENABLE)
 8002d64:	687b      	ldr	r3, [r7, #4]
 8002d66:	7e5b      	ldrb	r3, [r3, #25]
 8002d68:	2b01      	cmp	r3, #1
 8002d6a:	d108      	bne.n	8002d7e <HAL_CAN_Init+0x106>
  {
    SET_BIT(hcan->Instance->MCR, CAN_MCR_ABOM);
 8002d6c:	687b      	ldr	r3, [r7, #4]
 8002d6e:	681b      	ldr	r3, [r3, #0]
 8002d70:	681a      	ldr	r2, [r3, #0]
 8002d72:	687b      	ldr	r3, [r7, #4]
 8002d74:	681b      	ldr	r3, [r3, #0]
 8002d76:	2140      	movs	r1, #64	; 0x40
 8002d78:	430a      	orrs	r2, r1
 8002d7a:	601a      	str	r2, [r3, #0]
 8002d7c:	e007      	b.n	8002d8e <HAL_CAN_Init+0x116>
  }
  else
  {
    CLEAR_BIT(hcan->Instance->MCR, CAN_MCR_ABOM);
 8002d7e:	687b      	ldr	r3, [r7, #4]
 8002d80:	681b      	ldr	r3, [r3, #0]
 8002d82:	681a      	ldr	r2, [r3, #0]
 8002d84:	687b      	ldr	r3, [r7, #4]
 8002d86:	681b      	ldr	r3, [r3, #0]
 8002d88:	2140      	movs	r1, #64	; 0x40
 8002d8a:	438a      	bics	r2, r1
 8002d8c:	601a      	str	r2, [r3, #0]
  }

  /* Set the automatic wake-up mode */
  if (hcan->Init.AutoWakeUp == ENABLE)
 8002d8e:	687b      	ldr	r3, [r7, #4]
 8002d90:	7e9b      	ldrb	r3, [r3, #26]
 8002d92:	2b01      	cmp	r3, #1
 8002d94:	d108      	bne.n	8002da8 <HAL_CAN_Init+0x130>
  {
    SET_BIT(hcan->Instance->MCR, CAN_MCR_AWUM);
 8002d96:	687b      	ldr	r3, [r7, #4]
 8002d98:	681b      	ldr	r3, [r3, #0]
 8002d9a:	681a      	ldr	r2, [r3, #0]
 8002d9c:	687b      	ldr	r3, [r7, #4]
 8002d9e:	681b      	ldr	r3, [r3, #0]
 8002da0:	2120      	movs	r1, #32
 8002da2:	430a      	orrs	r2, r1
 8002da4:	601a      	str	r2, [r3, #0]
 8002da6:	e007      	b.n	8002db8 <HAL_CAN_Init+0x140>
  }
  else
  {
    CLEAR_BIT(hcan->Instance->MCR, CAN_MCR_AWUM);
 8002da8:	687b      	ldr	r3, [r7, #4]
 8002daa:	681b      	ldr	r3, [r3, #0]
 8002dac:	681a      	ldr	r2, [r3, #0]
 8002dae:	687b      	ldr	r3, [r7, #4]
 8002db0:	681b      	ldr	r3, [r3, #0]
 8002db2:	2120      	movs	r1, #32
 8002db4:	438a      	bics	r2, r1
 8002db6:	601a      	str	r2, [r3, #0]
  }

  /* Set the automatic retransmission */
  if (hcan->Init.AutoRetransmission == ENABLE)
 8002db8:	687b      	ldr	r3, [r7, #4]
 8002dba:	7edb      	ldrb	r3, [r3, #27]
 8002dbc:	2b01      	cmp	r3, #1
 8002dbe:	d108      	bne.n	8002dd2 <HAL_CAN_Init+0x15a>
  {
    CLEAR_BIT(hcan->Instance->MCR, CAN_MCR_NART);
 8002dc0:	687b      	ldr	r3, [r7, #4]
 8002dc2:	681b      	ldr	r3, [r3, #0]
 8002dc4:	681a      	ldr	r2, [r3, #0]
 8002dc6:	687b      	ldr	r3, [r7, #4]
 8002dc8:	681b      	ldr	r3, [r3, #0]
 8002dca:	2110      	movs	r1, #16
 8002dcc:	438a      	bics	r2, r1
 8002dce:	601a      	str	r2, [r3, #0]
 8002dd0:	e007      	b.n	8002de2 <HAL_CAN_Init+0x16a>
  }
  else
  {
    SET_BIT(hcan->Instance->MCR, CAN_MCR_NART);
 8002dd2:	687b      	ldr	r3, [r7, #4]
 8002dd4:	681b      	ldr	r3, [r3, #0]
 8002dd6:	681a      	ldr	r2, [r3, #0]
 8002dd8:	687b      	ldr	r3, [r7, #4]
 8002dda:	681b      	ldr	r3, [r3, #0]
 8002ddc:	2110      	movs	r1, #16
 8002dde:	430a      	orrs	r2, r1
 8002de0:	601a      	str	r2, [r3, #0]
  }

  /* Set the receive FIFO locked mode */
  if (hcan->Init.ReceiveFifoLocked == ENABLE)
 8002de2:	687b      	ldr	r3, [r7, #4]
 8002de4:	7f1b      	ldrb	r3, [r3, #28]
 8002de6:	2b01      	cmp	r3, #1
 8002de8:	d108      	bne.n	8002dfc <HAL_CAN_Init+0x184>
  {
    SET_BIT(hcan->Instance->MCR, CAN_MCR_RFLM);
 8002dea:	687b      	ldr	r3, [r7, #4]
 8002dec:	681b      	ldr	r3, [r3, #0]
 8002dee:	681a      	ldr	r2, [r3, #0]
 8002df0:	687b      	ldr	r3, [r7, #4]
 8002df2:	681b      	ldr	r3, [r3, #0]
 8002df4:	2108      	movs	r1, #8
 8002df6:	430a      	orrs	r2, r1
 8002df8:	601a      	str	r2, [r3, #0]
 8002dfa:	e007      	b.n	8002e0c <HAL_CAN_Init+0x194>
  }
  else
  {
    CLEAR_BIT(hcan->Instance->MCR, CAN_MCR_RFLM);
 8002dfc:	687b      	ldr	r3, [r7, #4]
 8002dfe:	681b      	ldr	r3, [r3, #0]
 8002e00:	681a      	ldr	r2, [r3, #0]
 8002e02:	687b      	ldr	r3, [r7, #4]
 8002e04:	681b      	ldr	r3, [r3, #0]
 8002e06:	2108      	movs	r1, #8
 8002e08:	438a      	bics	r2, r1
 8002e0a:	601a      	str	r2, [r3, #0]
  }

  /* Set the transmit FIFO priority */
  if (hcan->Init.TransmitFifoPriority == ENABLE)
 8002e0c:	687b      	ldr	r3, [r7, #4]
 8002e0e:	7f5b      	ldrb	r3, [r3, #29]
 8002e10:	2b01      	cmp	r3, #1
 8002e12:	d108      	bne.n	8002e26 <HAL_CAN_Init+0x1ae>
  {
    SET_BIT(hcan->Instance->MCR, CAN_MCR_TXFP);
 8002e14:	687b      	ldr	r3, [r7, #4]
 8002e16:	681b      	ldr	r3, [r3, #0]
 8002e18:	681a      	ldr	r2, [r3, #0]
 8002e1a:	687b      	ldr	r3, [r7, #4]
 8002e1c:	681b      	ldr	r3, [r3, #0]
 8002e1e:	2104      	movs	r1, #4
 8002e20:	430a      	orrs	r2, r1
 8002e22:	601a      	str	r2, [r3, #0]
 8002e24:	e007      	b.n	8002e36 <HAL_CAN_Init+0x1be>
  }
  else
  {
    CLEAR_BIT(hcan->Instance->MCR, CAN_MCR_TXFP);
 8002e26:	687b      	ldr	r3, [r7, #4]
 8002e28:	681b      	ldr	r3, [r3, #0]
 8002e2a:	681a      	ldr	r2, [r3, #0]
 8002e2c:	687b      	ldr	r3, [r7, #4]
 8002e2e:	681b      	ldr	r3, [r3, #0]
 8002e30:	2104      	movs	r1, #4
 8002e32:	438a      	bics	r2, r1
 8002e34:	601a      	str	r2, [r3, #0]
  }

  /* Set the bit timing register */
  WRITE_REG(hcan->Instance->BTR, (uint32_t)(hcan->Init.Mode           |
 8002e36:	687b      	ldr	r3, [r7, #4]
 8002e38:	689a      	ldr	r2, [r3, #8]
 8002e3a:	687b      	ldr	r3, [r7, #4]
 8002e3c:	68db      	ldr	r3, [r3, #12]
 8002e3e:	431a      	orrs	r2, r3
 8002e40:	687b      	ldr	r3, [r7, #4]
 8002e42:	691b      	ldr	r3, [r3, #16]
 8002e44:	431a      	orrs	r2, r3
 8002e46:	687b      	ldr	r3, [r7, #4]
 8002e48:	695b      	ldr	r3, [r3, #20]
 8002e4a:	431a      	orrs	r2, r3
 8002e4c:	0011      	movs	r1, r2
 8002e4e:	687b      	ldr	r3, [r7, #4]
 8002e50:	685b      	ldr	r3, [r3, #4]
 8002e52:	1e5a      	subs	r2, r3, #1
 8002e54:	687b      	ldr	r3, [r7, #4]
 8002e56:	681b      	ldr	r3, [r3, #0]
 8002e58:	430a      	orrs	r2, r1
 8002e5a:	61da      	str	r2, [r3, #28]
                                            hcan->Init.TimeSeg1       |
                                            hcan->Init.TimeSeg2       |
                                            (hcan->Init.Prescaler - 1U)));

  /* Initialize the error code */
  hcan->ErrorCode = HAL_CAN_ERROR_NONE;
 8002e5c:	687b      	ldr	r3, [r7, #4]
 8002e5e:	2200      	movs	r2, #0
 8002e60:	625a      	str	r2, [r3, #36]	; 0x24

  /* Initialize the CAN state */
  hcan->State = HAL_CAN_STATE_READY;
 8002e62:	687b      	ldr	r3, [r7, #4]
 8002e64:	2220      	movs	r2, #32
 8002e66:	2101      	movs	r1, #1
 8002e68:	5499      	strb	r1, [r3, r2]

  /* Return function status */
  return HAL_OK;
 8002e6a:	2300      	movs	r3, #0
}
 8002e6c:	0018      	movs	r0, r3
 8002e6e:	46bd      	mov	sp, r7
 8002e70:	b004      	add	sp, #16
 8002e72:	bd80      	pop	{r7, pc}

08002e74 <HAL_CAN_ConfigFilter>:
  * @param  sFilterConfig pointer to a CAN_FilterTypeDef structure that
  *         contains the filter configuration information.
  * @retval None
  */
HAL_StatusTypeDef HAL_CAN_ConfigFilter(CAN_HandleTypeDef *hcan, CAN_FilterTypeDef *sFilterConfig)
{
 8002e74:	b580      	push	{r7, lr}
 8002e76:	b086      	sub	sp, #24
 8002e78:	af00      	add	r7, sp, #0
 8002e7a:	6078      	str	r0, [r7, #4]
 8002e7c:	6039      	str	r1, [r7, #0]
  uint32_t filternbrbitpos;
  CAN_TypeDef *can_ip = hcan->Instance;
 8002e7e:	687b      	ldr	r3, [r7, #4]
 8002e80:	681b      	ldr	r3, [r3, #0]
 8002e82:	617b      	str	r3, [r7, #20]
  HAL_CAN_StateTypeDef state = hcan->State;
 8002e84:	2013      	movs	r0, #19
 8002e86:	183b      	adds	r3, r7, r0
 8002e88:	687a      	ldr	r2, [r7, #4]
 8002e8a:	2120      	movs	r1, #32
 8002e8c:	5c52      	ldrb	r2, [r2, r1]
 8002e8e:	701a      	strb	r2, [r3, #0]

  if ((state == HAL_CAN_STATE_READY) ||
 8002e90:	0002      	movs	r2, r0
 8002e92:	18bb      	adds	r3, r7, r2
 8002e94:	781b      	ldrb	r3, [r3, #0]
 8002e96:	2b01      	cmp	r3, #1
 8002e98:	d004      	beq.n	8002ea4 <HAL_CAN_ConfigFilter+0x30>
 8002e9a:	18bb      	adds	r3, r7, r2
 8002e9c:	781b      	ldrb	r3, [r3, #0]
 8002e9e:	2b02      	cmp	r3, #2
 8002ea0:	d000      	beq.n	8002ea4 <HAL_CAN_ConfigFilter+0x30>
 8002ea2:	e0cd      	b.n	8003040 <HAL_CAN_ConfigFilter+0x1cc>

    /* Check the parameters */
    assert_param(IS_CAN_FILTER_BANK_SINGLE(sFilterConfig->FilterBank));

    /* Initialisation mode for the filter */
    SET_BIT(can_ip->FMR, CAN_FMR_FINIT);
 8002ea4:	697a      	ldr	r2, [r7, #20]
 8002ea6:	2380      	movs	r3, #128	; 0x80
 8002ea8:	009b      	lsls	r3, r3, #2
 8002eaa:	58d3      	ldr	r3, [r2, r3]
 8002eac:	2201      	movs	r2, #1
 8002eae:	431a      	orrs	r2, r3
 8002eb0:	0011      	movs	r1, r2
 8002eb2:	697a      	ldr	r2, [r7, #20]
 8002eb4:	2380      	movs	r3, #128	; 0x80
 8002eb6:	009b      	lsls	r3, r3, #2
 8002eb8:	50d1      	str	r1, [r2, r3]

    /* Convert filter number into bit position */
    filternbrbitpos = (uint32_t)1 << (sFilterConfig->FilterBank & 0x1FU);
 8002eba:	683b      	ldr	r3, [r7, #0]
 8002ebc:	695b      	ldr	r3, [r3, #20]
 8002ebe:	221f      	movs	r2, #31
 8002ec0:	4013      	ands	r3, r2
 8002ec2:	2201      	movs	r2, #1
 8002ec4:	409a      	lsls	r2, r3
 8002ec6:	0013      	movs	r3, r2
 8002ec8:	60fb      	str	r3, [r7, #12]

    /* Filter Deactivation */
    CLEAR_BIT(can_ip->FA1R, filternbrbitpos);
 8002eca:	697a      	ldr	r2, [r7, #20]
 8002ecc:	2387      	movs	r3, #135	; 0x87
 8002ece:	009b      	lsls	r3, r3, #2
 8002ed0:	58d3      	ldr	r3, [r2, r3]
 8002ed2:	68fa      	ldr	r2, [r7, #12]
 8002ed4:	43d2      	mvns	r2, r2
 8002ed6:	401a      	ands	r2, r3
 8002ed8:	0011      	movs	r1, r2
 8002eda:	697a      	ldr	r2, [r7, #20]
 8002edc:	2387      	movs	r3, #135	; 0x87
 8002ede:	009b      	lsls	r3, r3, #2
 8002ee0:	50d1      	str	r1, [r2, r3]

    /* Filter Scale */
    if (sFilterConfig->FilterScale == CAN_FILTERSCALE_16BIT)
 8002ee2:	683b      	ldr	r3, [r7, #0]
 8002ee4:	69db      	ldr	r3, [r3, #28]
 8002ee6:	2b00      	cmp	r3, #0
 8002ee8:	d129      	bne.n	8002f3e <HAL_CAN_ConfigFilter+0xca>
    {
      /* 16-bit scale for the filter */
      CLEAR_BIT(can_ip->FS1R, filternbrbitpos);
 8002eea:	697a      	ldr	r2, [r7, #20]
 8002eec:	2383      	movs	r3, #131	; 0x83
 8002eee:	009b      	lsls	r3, r3, #2
 8002ef0:	58d3      	ldr	r3, [r2, r3]
 8002ef2:	68fa      	ldr	r2, [r7, #12]
 8002ef4:	43d2      	mvns	r2, r2
 8002ef6:	401a      	ands	r2, r3
 8002ef8:	0011      	movs	r1, r2
 8002efa:	697a      	ldr	r2, [r7, #20]
 8002efc:	2383      	movs	r3, #131	; 0x83
 8002efe:	009b      	lsls	r3, r3, #2
 8002f00:	50d1      	str	r1, [r2, r3]

      /* First 16-bit identifier and First 16-bit mask */
      /* Or First 16-bit identifier and Second 16-bit identifier */
      can_ip->sFilterRegister[sFilterConfig->FilterBank].FR1 =
        ((0x0000FFFFU & (uint32_t)sFilterConfig->FilterMaskIdLow) << 16U) |
 8002f02:	683b      	ldr	r3, [r7, #0]
 8002f04:	68db      	ldr	r3, [r3, #12]
 8002f06:	0418      	lsls	r0, r3, #16
        (0x0000FFFFU & (uint32_t)sFilterConfig->FilterIdLow);
 8002f08:	683b      	ldr	r3, [r7, #0]
 8002f0a:	685b      	ldr	r3, [r3, #4]
 8002f0c:	041b      	lsls	r3, r3, #16
 8002f0e:	0c19      	lsrs	r1, r3, #16
      can_ip->sFilterRegister[sFilterConfig->FilterBank].FR1 =
 8002f10:	683b      	ldr	r3, [r7, #0]
 8002f12:	695a      	ldr	r2, [r3, #20]
        ((0x0000FFFFU & (uint32_t)sFilterConfig->FilterMaskIdLow) << 16U) |
 8002f14:	4301      	orrs	r1, r0
      can_ip->sFilterRegister[sFilterConfig->FilterBank].FR1 =
 8002f16:	697b      	ldr	r3, [r7, #20]
 8002f18:	3248      	adds	r2, #72	; 0x48
 8002f1a:	00d2      	lsls	r2, r2, #3
 8002f1c:	50d1      	str	r1, [r2, r3]

      /* Second 16-bit identifier and Second 16-bit mask */
      /* Or Third 16-bit identifier and Fourth 16-bit identifier */
      can_ip->sFilterRegister[sFilterConfig->FilterBank].FR2 =
        ((0x0000FFFFU & (uint32_t)sFilterConfig->FilterMaskIdHigh) << 16U) |
 8002f1e:	683b      	ldr	r3, [r7, #0]
 8002f20:	689b      	ldr	r3, [r3, #8]
 8002f22:	0419      	lsls	r1, r3, #16
        (0x0000FFFFU & (uint32_t)sFilterConfig->FilterIdHigh);
 8002f24:	683b      	ldr	r3, [r7, #0]
 8002f26:	681b      	ldr	r3, [r3, #0]
 8002f28:	041b      	lsls	r3, r3, #16
 8002f2a:	0c1a      	lsrs	r2, r3, #16
      can_ip->sFilterRegister[sFilterConfig->FilterBank].FR2 =
 8002f2c:	683b      	ldr	r3, [r7, #0]
 8002f2e:	695b      	ldr	r3, [r3, #20]
        ((0x0000FFFFU & (uint32_t)sFilterConfig->FilterMaskIdHigh) << 16U) |
 8002f30:	430a      	orrs	r2, r1
      can_ip->sFilterRegister[sFilterConfig->FilterBank].FR2 =
 8002f32:	6979      	ldr	r1, [r7, #20]
 8002f34:	3348      	adds	r3, #72	; 0x48
 8002f36:	00db      	lsls	r3, r3, #3
 8002f38:	18cb      	adds	r3, r1, r3
 8002f3a:	3304      	adds	r3, #4
 8002f3c:	601a      	str	r2, [r3, #0]
    }

    if (sFilterConfig->FilterScale == CAN_FILTERSCALE_32BIT)
 8002f3e:	683b      	ldr	r3, [r7, #0]
 8002f40:	69db      	ldr	r3, [r3, #28]
 8002f42:	2b01      	cmp	r3, #1
 8002f44:	d128      	bne.n	8002f98 <HAL_CAN_ConfigFilter+0x124>
    {
      /* 32-bit scale for the filter */
      SET_BIT(can_ip->FS1R, filternbrbitpos);
 8002f46:	697a      	ldr	r2, [r7, #20]
 8002f48:	2383      	movs	r3, #131	; 0x83
 8002f4a:	009b      	lsls	r3, r3, #2
 8002f4c:	58d2      	ldr	r2, [r2, r3]
 8002f4e:	68fb      	ldr	r3, [r7, #12]
 8002f50:	431a      	orrs	r2, r3
 8002f52:	0011      	movs	r1, r2
 8002f54:	697a      	ldr	r2, [r7, #20]
 8002f56:	2383      	movs	r3, #131	; 0x83
 8002f58:	009b      	lsls	r3, r3, #2
 8002f5a:	50d1      	str	r1, [r2, r3]

      /* 32-bit identifier or First 32-bit identifier */
      can_ip->sFilterRegister[sFilterConfig->FilterBank].FR1 =
        ((0x0000FFFFU & (uint32_t)sFilterConfig->FilterIdHigh) << 16U) |
 8002f5c:	683b      	ldr	r3, [r7, #0]
 8002f5e:	681b      	ldr	r3, [r3, #0]
 8002f60:	0418      	lsls	r0, r3, #16
        (0x0000FFFFU & (uint32_t)sFilterConfig->FilterIdLow);
 8002f62:	683b      	ldr	r3, [r7, #0]
 8002f64:	685b      	ldr	r3, [r3, #4]
 8002f66:	041b      	lsls	r3, r3, #16
 8002f68:	0c19      	lsrs	r1, r3, #16
      can_ip->sFilterRegister[sFilterConfig->FilterBank].FR1 =
 8002f6a:	683b      	ldr	r3, [r7, #0]
 8002f6c:	695a      	ldr	r2, [r3, #20]
        ((0x0000FFFFU & (uint32_t)sFilterConfig->FilterIdHigh) << 16U) |
 8002f6e:	4301      	orrs	r1, r0
      can_ip->sFilterRegister[sFilterConfig->FilterBank].FR1 =
 8002f70:	697b      	ldr	r3, [r7, #20]
 8002f72:	3248      	adds	r2, #72	; 0x48
 8002f74:	00d2      	lsls	r2, r2, #3
 8002f76:	50d1      	str	r1, [r2, r3]

      /* 32-bit mask or Second 32-bit identifier */
      can_ip->sFilterRegister[sFilterConfig->FilterBank].FR2 =
        ((0x0000FFFFU & (uint32_t)sFilterConfig->FilterMaskIdHigh) << 16U) |
 8002f78:	683b      	ldr	r3, [r7, #0]
 8002f7a:	689b      	ldr	r3, [r3, #8]
 8002f7c:	0419      	lsls	r1, r3, #16
        (0x0000FFFFU & (uint32_t)sFilterConfig->FilterMaskIdLow);
 8002f7e:	683b      	ldr	r3, [r7, #0]
 8002f80:	68db      	ldr	r3, [r3, #12]
 8002f82:	041b      	lsls	r3, r3, #16
 8002f84:	0c1a      	lsrs	r2, r3, #16
      can_ip->sFilterRegister[sFilterConfig->FilterBank].FR2 =
 8002f86:	683b      	ldr	r3, [r7, #0]
 8002f88:	695b      	ldr	r3, [r3, #20]
        ((0x0000FFFFU & (uint32_t)sFilterConfig->FilterMaskIdHigh) << 16U) |
 8002f8a:	430a      	orrs	r2, r1
      can_ip->sFilterRegister[sFilterConfig->FilterBank].FR2 =
 8002f8c:	6979      	ldr	r1, [r7, #20]
 8002f8e:	3348      	adds	r3, #72	; 0x48
 8002f90:	00db      	lsls	r3, r3, #3
 8002f92:	18cb      	adds	r3, r1, r3
 8002f94:	3304      	adds	r3, #4
 8002f96:	601a      	str	r2, [r3, #0]
    }

    /* Filter Mode */
    if (sFilterConfig->FilterMode == CAN_FILTERMODE_IDMASK)
 8002f98:	683b      	ldr	r3, [r7, #0]
 8002f9a:	699b      	ldr	r3, [r3, #24]
 8002f9c:	2b00      	cmp	r3, #0
 8002f9e:	d10c      	bne.n	8002fba <HAL_CAN_ConfigFilter+0x146>
    {
      /* Id/Mask mode for the filter*/
      CLEAR_BIT(can_ip->FM1R, filternbrbitpos);
 8002fa0:	697a      	ldr	r2, [r7, #20]
 8002fa2:	2381      	movs	r3, #129	; 0x81
 8002fa4:	009b      	lsls	r3, r3, #2
 8002fa6:	58d3      	ldr	r3, [r2, r3]
 8002fa8:	68fa      	ldr	r2, [r7, #12]
 8002faa:	43d2      	mvns	r2, r2
 8002fac:	401a      	ands	r2, r3
 8002fae:	0011      	movs	r1, r2
 8002fb0:	697a      	ldr	r2, [r7, #20]
 8002fb2:	2381      	movs	r3, #129	; 0x81
 8002fb4:	009b      	lsls	r3, r3, #2
 8002fb6:	50d1      	str	r1, [r2, r3]
 8002fb8:	e00a      	b.n	8002fd0 <HAL_CAN_ConfigFilter+0x15c>
    }
    else /* CAN_FilterInitStruct->CAN_FilterMode == CAN_FilterMode_IdList */
    {
      /* Identifier list mode for the filter*/
      SET_BIT(can_ip->FM1R, filternbrbitpos);
 8002fba:	697a      	ldr	r2, [r7, #20]
 8002fbc:	2381      	movs	r3, #129	; 0x81
 8002fbe:	009b      	lsls	r3, r3, #2
 8002fc0:	58d2      	ldr	r2, [r2, r3]
 8002fc2:	68fb      	ldr	r3, [r7, #12]
 8002fc4:	431a      	orrs	r2, r3
 8002fc6:	0011      	movs	r1, r2
 8002fc8:	697a      	ldr	r2, [r7, #20]
 8002fca:	2381      	movs	r3, #129	; 0x81
 8002fcc:	009b      	lsls	r3, r3, #2
 8002fce:	50d1      	str	r1, [r2, r3]
    }

    /* Filter FIFO assignment */
    if (sFilterConfig->FilterFIFOAssignment == CAN_FILTER_FIFO0)
 8002fd0:	683b      	ldr	r3, [r7, #0]
 8002fd2:	691b      	ldr	r3, [r3, #16]
 8002fd4:	2b00      	cmp	r3, #0
 8002fd6:	d10c      	bne.n	8002ff2 <HAL_CAN_ConfigFilter+0x17e>
    {
      /* FIFO 0 assignation for the filter */
      CLEAR_BIT(can_ip->FFA1R, filternbrbitpos);
 8002fd8:	697a      	ldr	r2, [r7, #20]
 8002fda:	2385      	movs	r3, #133	; 0x85
 8002fdc:	009b      	lsls	r3, r3, #2
 8002fde:	58d3      	ldr	r3, [r2, r3]
 8002fe0:	68fa      	ldr	r2, [r7, #12]
 8002fe2:	43d2      	mvns	r2, r2
 8002fe4:	401a      	ands	r2, r3
 8002fe6:	0011      	movs	r1, r2
 8002fe8:	697a      	ldr	r2, [r7, #20]
 8002fea:	2385      	movs	r3, #133	; 0x85
 8002fec:	009b      	lsls	r3, r3, #2
 8002fee:	50d1      	str	r1, [r2, r3]
 8002ff0:	e00a      	b.n	8003008 <HAL_CAN_ConfigFilter+0x194>
    }
    else
    {
      /* FIFO 1 assignation for the filter */
      SET_BIT(can_ip->FFA1R, filternbrbitpos);
 8002ff2:	697a      	ldr	r2, [r7, #20]
 8002ff4:	2385      	movs	r3, #133	; 0x85
 8002ff6:	009b      	lsls	r3, r3, #2
 8002ff8:	58d2      	ldr	r2, [r2, r3]
 8002ffa:	68fb      	ldr	r3, [r7, #12]
 8002ffc:	431a      	orrs	r2, r3
 8002ffe:	0011      	movs	r1, r2
 8003000:	697a      	ldr	r2, [r7, #20]
 8003002:	2385      	movs	r3, #133	; 0x85
 8003004:	009b      	lsls	r3, r3, #2
 8003006:	50d1      	str	r1, [r2, r3]
    }

    /* Filter activation */
    if (sFilterConfig->FilterActivation == CAN_FILTER_ENABLE)
 8003008:	683b      	ldr	r3, [r7, #0]
 800300a:	6a1b      	ldr	r3, [r3, #32]
 800300c:	2b01      	cmp	r3, #1
 800300e:	d10a      	bne.n	8003026 <HAL_CAN_ConfigFilter+0x1b2>
    {
      SET_BIT(can_ip->FA1R, filternbrbitpos);
 8003010:	697a      	ldr	r2, [r7, #20]
 8003012:	2387      	movs	r3, #135	; 0x87
 8003014:	009b      	lsls	r3, r3, #2
 8003016:	58d2      	ldr	r2, [r2, r3]
 8003018:	68fb      	ldr	r3, [r7, #12]
 800301a:	431a      	orrs	r2, r3
 800301c:	0011      	movs	r1, r2
 800301e:	697a      	ldr	r2, [r7, #20]
 8003020:	2387      	movs	r3, #135	; 0x87
 8003022:	009b      	lsls	r3, r3, #2
 8003024:	50d1      	str	r1, [r2, r3]
    }

    /* Leave the initialisation mode for the filter */
    CLEAR_BIT(can_ip->FMR, CAN_FMR_FINIT);
 8003026:	697a      	ldr	r2, [r7, #20]
 8003028:	2380      	movs	r3, #128	; 0x80
 800302a:	009b      	lsls	r3, r3, #2
 800302c:	58d3      	ldr	r3, [r2, r3]
 800302e:	2201      	movs	r2, #1
 8003030:	4393      	bics	r3, r2
 8003032:	0019      	movs	r1, r3
 8003034:	697a      	ldr	r2, [r7, #20]
 8003036:	2380      	movs	r3, #128	; 0x80
 8003038:	009b      	lsls	r3, r3, #2
 800303a:	50d1      	str	r1, [r2, r3]

    /* Return function status */
    return HAL_OK;
 800303c:	2300      	movs	r3, #0
 800303e:	e007      	b.n	8003050 <HAL_CAN_ConfigFilter+0x1dc>
  }
  else
  {
    /* Update error code */
    hcan->ErrorCode |= HAL_CAN_ERROR_NOT_INITIALIZED;
 8003040:	687b      	ldr	r3, [r7, #4]
 8003042:	6a5b      	ldr	r3, [r3, #36]	; 0x24
 8003044:	2280      	movs	r2, #128	; 0x80
 8003046:	02d2      	lsls	r2, r2, #11
 8003048:	431a      	orrs	r2, r3
 800304a:	687b      	ldr	r3, [r7, #4]
 800304c:	625a      	str	r2, [r3, #36]	; 0x24

    return HAL_ERROR;
 800304e:	2301      	movs	r3, #1
  }
}
 8003050:	0018      	movs	r0, r3
 8003052:	46bd      	mov	sp, r7
 8003054:	b006      	add	sp, #24
 8003056:	bd80      	pop	{r7, pc}

08003058 <HAL_CAN_Start>:
  * @param  hcan pointer to an CAN_HandleTypeDef structure that contains
  *         the configuration information for the specified CAN.
  * @retval HAL status
  */
HAL_StatusTypeDef HAL_CAN_Start(CAN_HandleTypeDef *hcan)
{
 8003058:	b580      	push	{r7, lr}
 800305a:	b084      	sub	sp, #16
 800305c:	af00      	add	r7, sp, #0
 800305e:	6078      	str	r0, [r7, #4]
  uint32_t tickstart;

  if (hcan->State == HAL_CAN_STATE_READY)
 8003060:	687b      	ldr	r3, [r7, #4]
 8003062:	2220      	movs	r2, #32
 8003064:	5c9b      	ldrb	r3, [r3, r2]
 8003066:	b2db      	uxtb	r3, r3
 8003068:	2b01      	cmp	r3, #1
 800306a:	d12f      	bne.n	80030cc <HAL_CAN_Start+0x74>
  {
    /* Change CAN peripheral state */
    hcan->State = HAL_CAN_STATE_LISTENING;
 800306c:	687b      	ldr	r3, [r7, #4]
 800306e:	2220      	movs	r2, #32
 8003070:	2102      	movs	r1, #2
 8003072:	5499      	strb	r1, [r3, r2]

    /* Request leave initialisation */
    CLEAR_BIT(hcan->Instance->MCR, CAN_MCR_INRQ);
 8003074:	687b      	ldr	r3, [r7, #4]
 8003076:	681b      	ldr	r3, [r3, #0]
 8003078:	681a      	ldr	r2, [r3, #0]
 800307a:	687b      	ldr	r3, [r7, #4]
 800307c:	681b      	ldr	r3, [r3, #0]
 800307e:	2101      	movs	r1, #1
 8003080:	438a      	bics	r2, r1
 8003082:	601a      	str	r2, [r3, #0]

    /* Get tick */
    tickstart = HAL_GetTick();
 8003084:	f7ff fb7c 	bl	8002780 <HAL_GetTick>
 8003088:	0003      	movs	r3, r0
 800308a:	60fb      	str	r3, [r7, #12]

    /* Wait the acknowledge */
    while ((hcan->Instance->MSR & CAN_MSR_INAK) != 0U)
 800308c:	e013      	b.n	80030b6 <HAL_CAN_Start+0x5e>
    {
      /* Check for the Timeout */
      if ((HAL_GetTick() - tickstart) > CAN_TIMEOUT_VALUE)
 800308e:	f7ff fb77 	bl	8002780 <HAL_GetTick>
 8003092:	0002      	movs	r2, r0
 8003094:	68fb      	ldr	r3, [r7, #12]
 8003096:	1ad3      	subs	r3, r2, r3
 8003098:	2b0a      	cmp	r3, #10
 800309a:	d90c      	bls.n	80030b6 <HAL_CAN_Start+0x5e>
      {
        /* Update error code */
        hcan->ErrorCode |= HAL_CAN_ERROR_TIMEOUT;
 800309c:	687b      	ldr	r3, [r7, #4]
 800309e:	6a5b      	ldr	r3, [r3, #36]	; 0x24
 80030a0:	2280      	movs	r2, #128	; 0x80
 80030a2:	0292      	lsls	r2, r2, #10
 80030a4:	431a      	orrs	r2, r3
 80030a6:	687b      	ldr	r3, [r7, #4]
 80030a8:	625a      	str	r2, [r3, #36]	; 0x24

        /* Change CAN state */
        hcan->State = HAL_CAN_STATE_ERROR;
 80030aa:	687b      	ldr	r3, [r7, #4]
 80030ac:	2220      	movs	r2, #32
 80030ae:	2105      	movs	r1, #5
 80030b0:	5499      	strb	r1, [r3, r2]

        return HAL_ERROR;
 80030b2:	2301      	movs	r3, #1
 80030b4:	e012      	b.n	80030dc <HAL_CAN_Start+0x84>
    while ((hcan->Instance->MSR & CAN_MSR_INAK) != 0U)
 80030b6:	687b      	ldr	r3, [r7, #4]
 80030b8:	681b      	ldr	r3, [r3, #0]
 80030ba:	685b      	ldr	r3, [r3, #4]
 80030bc:	2201      	movs	r2, #1
 80030be:	4013      	ands	r3, r2
 80030c0:	d1e5      	bne.n	800308e <HAL_CAN_Start+0x36>
      }
    }

    /* Reset the CAN ErrorCode */
    hcan->ErrorCode = HAL_CAN_ERROR_NONE;
 80030c2:	687b      	ldr	r3, [r7, #4]
 80030c4:	2200      	movs	r2, #0
 80030c6:	625a      	str	r2, [r3, #36]	; 0x24

    /* Return function status */
    return HAL_OK;
 80030c8:	2300      	movs	r3, #0
 80030ca:	e007      	b.n	80030dc <HAL_CAN_Start+0x84>
  }
  else
  {
    /* Update error code */
    hcan->ErrorCode |= HAL_CAN_ERROR_NOT_READY;
 80030cc:	687b      	ldr	r3, [r7, #4]
 80030ce:	6a5b      	ldr	r3, [r3, #36]	; 0x24
 80030d0:	2280      	movs	r2, #128	; 0x80
 80030d2:	0312      	lsls	r2, r2, #12
 80030d4:	431a      	orrs	r2, r3
 80030d6:	687b      	ldr	r3, [r7, #4]
 80030d8:	625a      	str	r2, [r3, #36]	; 0x24

    return HAL_ERROR;
 80030da:	2301      	movs	r3, #1
  }
}
 80030dc:	0018      	movs	r0, r3
 80030de:	46bd      	mov	sp, r7
 80030e0:	b004      	add	sp, #16
 80030e2:	bd80      	pop	{r7, pc}

080030e4 <HAL_CAN_GetRxMessage>:
  *         of the Rx frame will be stored.
  * @param  aData array where the payload of the Rx frame will be stored.
  * @retval HAL status
  */
HAL_StatusTypeDef HAL_CAN_GetRxMessage(CAN_HandleTypeDef *hcan, uint32_t RxFifo, CAN_RxHeaderTypeDef *pHeader, uint8_t aData[])
{
 80030e4:	b580      	push	{r7, lr}
 80030e6:	b086      	sub	sp, #24
 80030e8:	af00      	add	r7, sp, #0
 80030ea:	60f8      	str	r0, [r7, #12]
 80030ec:	60b9      	str	r1, [r7, #8]
 80030ee:	607a      	str	r2, [r7, #4]
 80030f0:	603b      	str	r3, [r7, #0]
  HAL_CAN_StateTypeDef state = hcan->State;
 80030f2:	2017      	movs	r0, #23
 80030f4:	183b      	adds	r3, r7, r0
 80030f6:	68fa      	ldr	r2, [r7, #12]
 80030f8:	2120      	movs	r1, #32
 80030fa:	5c52      	ldrb	r2, [r2, r1]
 80030fc:	701a      	strb	r2, [r3, #0]

  assert_param(IS_CAN_RX_FIFO(RxFifo));

  if ((state == HAL_CAN_STATE_READY) ||
 80030fe:	0002      	movs	r2, r0
 8003100:	18bb      	adds	r3, r7, r2
 8003102:	781b      	ldrb	r3, [r3, #0]
 8003104:	2b01      	cmp	r3, #1
 8003106:	d004      	beq.n	8003112 <HAL_CAN_GetRxMessage+0x2e>
 8003108:	18bb      	adds	r3, r7, r2
 800310a:	781b      	ldrb	r3, [r3, #0]
 800310c:	2b02      	cmp	r3, #2
 800310e:	d000      	beq.n	8003112 <HAL_CAN_GetRxMessage+0x2e>
 8003110:	e0f8      	b.n	8003304 <HAL_CAN_GetRxMessage+0x220>
      (state == HAL_CAN_STATE_LISTENING))
  {
    /* Check the Rx FIFO */
    if (RxFifo == CAN_RX_FIFO0) /* Rx element is assigned to Rx FIFO 0 */
 8003112:	68bb      	ldr	r3, [r7, #8]
 8003114:	2b00      	cmp	r3, #0
 8003116:	d10e      	bne.n	8003136 <HAL_CAN_GetRxMessage+0x52>
    {
      /* Check that the Rx FIFO 0 is not empty */
      if ((hcan->Instance->RF0R & CAN_RF0R_FMP0) == 0U)
 8003118:	68fb      	ldr	r3, [r7, #12]
 800311a:	681b      	ldr	r3, [r3, #0]
 800311c:	68db      	ldr	r3, [r3, #12]
 800311e:	2203      	movs	r2, #3
 8003120:	4013      	ands	r3, r2
 8003122:	d117      	bne.n	8003154 <HAL_CAN_GetRxMessage+0x70>
      {
        /* Update error code */
        hcan->ErrorCode |= HAL_CAN_ERROR_PARAM;
 8003124:	68fb      	ldr	r3, [r7, #12]
 8003126:	6a5b      	ldr	r3, [r3, #36]	; 0x24
 8003128:	2280      	movs	r2, #128	; 0x80
 800312a:	0392      	lsls	r2, r2, #14
 800312c:	431a      	orrs	r2, r3
 800312e:	68fb      	ldr	r3, [r7, #12]
 8003130:	625a      	str	r2, [r3, #36]	; 0x24

        return HAL_ERROR;
 8003132:	2301      	movs	r3, #1
 8003134:	e0ee      	b.n	8003314 <HAL_CAN_GetRxMessage+0x230>
      }
    }
    else /* Rx element is assigned to Rx FIFO 1 */
    {
      /* Check that the Rx FIFO 1 is not empty */
      if ((hcan->Instance->RF1R & CAN_RF1R_FMP1) == 0U)
 8003136:	68fb      	ldr	r3, [r7, #12]
 8003138:	681b      	ldr	r3, [r3, #0]
 800313a:	691b      	ldr	r3, [r3, #16]
 800313c:	2203      	movs	r2, #3
 800313e:	4013      	ands	r3, r2
 8003140:	d108      	bne.n	8003154 <HAL_CAN_GetRxMessage+0x70>
      {
        /* Update error code */
        hcan->ErrorCode |= HAL_CAN_ERROR_PARAM;
 8003142:	68fb      	ldr	r3, [r7, #12]
 8003144:	6a5b      	ldr	r3, [r3, #36]	; 0x24
 8003146:	2280      	movs	r2, #128	; 0x80
 8003148:	0392      	lsls	r2, r2, #14
 800314a:	431a      	orrs	r2, r3
 800314c:	68fb      	ldr	r3, [r7, #12]
 800314e:	625a      	str	r2, [r3, #36]	; 0x24

        return HAL_ERROR;
 8003150:	2301      	movs	r3, #1
 8003152:	e0df      	b.n	8003314 <HAL_CAN_GetRxMessage+0x230>
      }
    }

    /* Get the header */
    pHeader->IDE = CAN_RI0R_IDE & hcan->Instance->sFIFOMailBox[RxFifo].RIR;
 8003154:	68fb      	ldr	r3, [r7, #12]
 8003156:	681b      	ldr	r3, [r3, #0]
 8003158:	68ba      	ldr	r2, [r7, #8]
 800315a:	321b      	adds	r2, #27
 800315c:	0112      	lsls	r2, r2, #4
 800315e:	58d3      	ldr	r3, [r2, r3]
 8003160:	2204      	movs	r2, #4
 8003162:	401a      	ands	r2, r3
 8003164:	687b      	ldr	r3, [r7, #4]
 8003166:	609a      	str	r2, [r3, #8]
    if (pHeader->IDE == CAN_ID_STD)
 8003168:	687b      	ldr	r3, [r7, #4]
 800316a:	689b      	ldr	r3, [r3, #8]
 800316c:	2b00      	cmp	r3, #0
 800316e:	d10b      	bne.n	8003188 <HAL_CAN_GetRxMessage+0xa4>
    {
      pHeader->StdId = (CAN_RI0R_STID & hcan->Instance->sFIFOMailBox[RxFifo].RIR) >> CAN_TI0R_STID_Pos;
 8003170:	68fb      	ldr	r3, [r7, #12]
 8003172:	681b      	ldr	r3, [r3, #0]
 8003174:	68ba      	ldr	r2, [r7, #8]
 8003176:	321b      	adds	r2, #27
 8003178:	0112      	lsls	r2, r2, #4
 800317a:	58d3      	ldr	r3, [r2, r3]
 800317c:	0d5b      	lsrs	r3, r3, #21
 800317e:	055b      	lsls	r3, r3, #21
 8003180:	0d5a      	lsrs	r2, r3, #21
 8003182:	687b      	ldr	r3, [r7, #4]
 8003184:	601a      	str	r2, [r3, #0]
 8003186:	e00a      	b.n	800319e <HAL_CAN_GetRxMessage+0xba>
    }
    else
    {
      pHeader->ExtId = ((CAN_RI0R_EXID | CAN_RI0R_STID) & hcan->Instance->sFIFOMailBox[RxFifo].RIR) >> CAN_RI0R_EXID_Pos;
 8003188:	68fb      	ldr	r3, [r7, #12]
 800318a:	681b      	ldr	r3, [r3, #0]
 800318c:	68ba      	ldr	r2, [r7, #8]
 800318e:	321b      	adds	r2, #27
 8003190:	0112      	lsls	r2, r2, #4
 8003192:	58d3      	ldr	r3, [r2, r3]
 8003194:	08db      	lsrs	r3, r3, #3
 8003196:	00db      	lsls	r3, r3, #3
 8003198:	08da      	lsrs	r2, r3, #3
 800319a:	687b      	ldr	r3, [r7, #4]
 800319c:	605a      	str	r2, [r3, #4]
    }
    pHeader->RTR = (CAN_RI0R_RTR & hcan->Instance->sFIFOMailBox[RxFifo].RIR);
 800319e:	68fb      	ldr	r3, [r7, #12]
 80031a0:	681b      	ldr	r3, [r3, #0]
 80031a2:	68ba      	ldr	r2, [r7, #8]
 80031a4:	321b      	adds	r2, #27
 80031a6:	0112      	lsls	r2, r2, #4
 80031a8:	58d3      	ldr	r3, [r2, r3]
 80031aa:	2202      	movs	r2, #2
 80031ac:	401a      	ands	r2, r3
 80031ae:	687b      	ldr	r3, [r7, #4]
 80031b0:	60da      	str	r2, [r3, #12]
    pHeader->DLC = (CAN_RDT0R_DLC & hcan->Instance->sFIFOMailBox[RxFifo].RDTR) >> CAN_RDT0R_DLC_Pos;
 80031b2:	68fb      	ldr	r3, [r7, #12]
 80031b4:	681a      	ldr	r2, [r3, #0]
 80031b6:	68bb      	ldr	r3, [r7, #8]
 80031b8:	331b      	adds	r3, #27
 80031ba:	011b      	lsls	r3, r3, #4
 80031bc:	18d3      	adds	r3, r2, r3
 80031be:	3304      	adds	r3, #4
 80031c0:	681b      	ldr	r3, [r3, #0]
 80031c2:	220f      	movs	r2, #15
 80031c4:	401a      	ands	r2, r3
 80031c6:	687b      	ldr	r3, [r7, #4]
 80031c8:	611a      	str	r2, [r3, #16]
    pHeader->FilterMatchIndex = (CAN_RDT0R_FMI & hcan->Instance->sFIFOMailBox[RxFifo].RDTR) >> CAN_RDT0R_FMI_Pos;
 80031ca:	68fb      	ldr	r3, [r7, #12]
 80031cc:	681a      	ldr	r2, [r3, #0]
 80031ce:	68bb      	ldr	r3, [r7, #8]
 80031d0:	331b      	adds	r3, #27
 80031d2:	011b      	lsls	r3, r3, #4
 80031d4:	18d3      	adds	r3, r2, r3
 80031d6:	3304      	adds	r3, #4
 80031d8:	681b      	ldr	r3, [r3, #0]
 80031da:	0a1b      	lsrs	r3, r3, #8
 80031dc:	22ff      	movs	r2, #255	; 0xff
 80031de:	401a      	ands	r2, r3
 80031e0:	687b      	ldr	r3, [r7, #4]
 80031e2:	619a      	str	r2, [r3, #24]
    pHeader->Timestamp = (CAN_RDT0R_TIME & hcan->Instance->sFIFOMailBox[RxFifo].RDTR) >> CAN_RDT0R_TIME_Pos;
 80031e4:	68fb      	ldr	r3, [r7, #12]
 80031e6:	681a      	ldr	r2, [r3, #0]
 80031e8:	68bb      	ldr	r3, [r7, #8]
 80031ea:	331b      	adds	r3, #27
 80031ec:	011b      	lsls	r3, r3, #4
 80031ee:	18d3      	adds	r3, r2, r3
 80031f0:	3304      	adds	r3, #4
 80031f2:	681b      	ldr	r3, [r3, #0]
 80031f4:	0c1b      	lsrs	r3, r3, #16
 80031f6:	041b      	lsls	r3, r3, #16
 80031f8:	0c1a      	lsrs	r2, r3, #16
 80031fa:	687b      	ldr	r3, [r7, #4]
 80031fc:	615a      	str	r2, [r3, #20]

    /* Get the data */
    aData[0] = (uint8_t)((CAN_RDL0R_DATA0 & hcan->Instance->sFIFOMailBox[RxFifo].RDLR) >> CAN_RDL0R_DATA0_Pos);
 80031fe:	68fb      	ldr	r3, [r7, #12]
 8003200:	6819      	ldr	r1, [r3, #0]
 8003202:	68ba      	ldr	r2, [r7, #8]
 8003204:	23dc      	movs	r3, #220	; 0xdc
 8003206:	005b      	lsls	r3, r3, #1
 8003208:	0112      	lsls	r2, r2, #4
 800320a:	188a      	adds	r2, r1, r2
 800320c:	18d3      	adds	r3, r2, r3
 800320e:	681b      	ldr	r3, [r3, #0]
 8003210:	b2da      	uxtb	r2, r3
 8003212:	683b      	ldr	r3, [r7, #0]
 8003214:	701a      	strb	r2, [r3, #0]
    aData[1] = (uint8_t)((CAN_RDL0R_DATA1 & hcan->Instance->sFIFOMailBox[RxFifo].RDLR) >> CAN_RDL0R_DATA1_Pos);
 8003216:	68fb      	ldr	r3, [r7, #12]
 8003218:	6819      	ldr	r1, [r3, #0]
 800321a:	68ba      	ldr	r2, [r7, #8]
 800321c:	23dc      	movs	r3, #220	; 0xdc
 800321e:	005b      	lsls	r3, r3, #1
 8003220:	0112      	lsls	r2, r2, #4
 8003222:	188a      	adds	r2, r1, r2
 8003224:	18d3      	adds	r3, r2, r3
 8003226:	681b      	ldr	r3, [r3, #0]
 8003228:	0a1a      	lsrs	r2, r3, #8
 800322a:	683b      	ldr	r3, [r7, #0]
 800322c:	3301      	adds	r3, #1
 800322e:	b2d2      	uxtb	r2, r2
 8003230:	701a      	strb	r2, [r3, #0]
    aData[2] = (uint8_t)((CAN_RDL0R_DATA2 & hcan->Instance->sFIFOMailBox[RxFifo].RDLR) >> CAN_RDL0R_DATA2_Pos);
 8003232:	68fb      	ldr	r3, [r7, #12]
 8003234:	6819      	ldr	r1, [r3, #0]
 8003236:	68ba      	ldr	r2, [r7, #8]
 8003238:	23dc      	movs	r3, #220	; 0xdc
 800323a:	005b      	lsls	r3, r3, #1
 800323c:	0112      	lsls	r2, r2, #4
 800323e:	188a      	adds	r2, r1, r2
 8003240:	18d3      	adds	r3, r2, r3
 8003242:	681b      	ldr	r3, [r3, #0]
 8003244:	0c1a      	lsrs	r2, r3, #16
 8003246:	683b      	ldr	r3, [r7, #0]
 8003248:	3302      	adds	r3, #2
 800324a:	b2d2      	uxtb	r2, r2
 800324c:	701a      	strb	r2, [r3, #0]
    aData[3] = (uint8_t)((CAN_RDL0R_DATA3 & hcan->Instance->sFIFOMailBox[RxFifo].RDLR) >> CAN_RDL0R_DATA3_Pos);
 800324e:	68fb      	ldr	r3, [r7, #12]
 8003250:	6819      	ldr	r1, [r3, #0]
 8003252:	68ba      	ldr	r2, [r7, #8]
 8003254:	23dc      	movs	r3, #220	; 0xdc
 8003256:	005b      	lsls	r3, r3, #1
 8003258:	0112      	lsls	r2, r2, #4
 800325a:	188a      	adds	r2, r1, r2
 800325c:	18d3      	adds	r3, r2, r3
 800325e:	681b      	ldr	r3, [r3, #0]
 8003260:	0e1a      	lsrs	r2, r3, #24
 8003262:	683b      	ldr	r3, [r7, #0]
 8003264:	3303      	adds	r3, #3
 8003266:	b2d2      	uxtb	r2, r2
 8003268:	701a      	strb	r2, [r3, #0]
    aData[4] = (uint8_t)((CAN_RDH0R_DATA4 & hcan->Instance->sFIFOMailBox[RxFifo].RDHR) >> CAN_RDH0R_DATA4_Pos);
 800326a:	68fb      	ldr	r3, [r7, #12]
 800326c:	6819      	ldr	r1, [r3, #0]
 800326e:	68ba      	ldr	r2, [r7, #8]
 8003270:	23de      	movs	r3, #222	; 0xde
 8003272:	005b      	lsls	r3, r3, #1
 8003274:	0112      	lsls	r2, r2, #4
 8003276:	188a      	adds	r2, r1, r2
 8003278:	18d3      	adds	r3, r2, r3
 800327a:	681a      	ldr	r2, [r3, #0]
 800327c:	683b      	ldr	r3, [r7, #0]
 800327e:	3304      	adds	r3, #4
 8003280:	b2d2      	uxtb	r2, r2
 8003282:	701a      	strb	r2, [r3, #0]
    aData[5] = (uint8_t)((CAN_RDH0R_DATA5 & hcan->Instance->sFIFOMailBox[RxFifo].RDHR) >> CAN_RDH0R_DATA5_Pos);
 8003284:	68fb      	ldr	r3, [r7, #12]
 8003286:	6819      	ldr	r1, [r3, #0]
 8003288:	68ba      	ldr	r2, [r7, #8]
 800328a:	23de      	movs	r3, #222	; 0xde
 800328c:	005b      	lsls	r3, r3, #1
 800328e:	0112      	lsls	r2, r2, #4
 8003290:	188a      	adds	r2, r1, r2
 8003292:	18d3      	adds	r3, r2, r3
 8003294:	681b      	ldr	r3, [r3, #0]
 8003296:	0a1a      	lsrs	r2, r3, #8
 8003298:	683b      	ldr	r3, [r7, #0]
 800329a:	3305      	adds	r3, #5
 800329c:	b2d2      	uxtb	r2, r2
 800329e:	701a      	strb	r2, [r3, #0]
    aData[6] = (uint8_t)((CAN_RDH0R_DATA6 & hcan->Instance->sFIFOMailBox[RxFifo].RDHR) >> CAN_RDH0R_DATA6_Pos);
 80032a0:	68fb      	ldr	r3, [r7, #12]
 80032a2:	6819      	ldr	r1, [r3, #0]
 80032a4:	68ba      	ldr	r2, [r7, #8]
 80032a6:	23de      	movs	r3, #222	; 0xde
 80032a8:	005b      	lsls	r3, r3, #1
 80032aa:	0112      	lsls	r2, r2, #4
 80032ac:	188a      	adds	r2, r1, r2
 80032ae:	18d3      	adds	r3, r2, r3
 80032b0:	681b      	ldr	r3, [r3, #0]
 80032b2:	0c1a      	lsrs	r2, r3, #16
 80032b4:	683b      	ldr	r3, [r7, #0]
 80032b6:	3306      	adds	r3, #6
 80032b8:	b2d2      	uxtb	r2, r2
 80032ba:	701a      	strb	r2, [r3, #0]
    aData[7] = (uint8_t)((CAN_RDH0R_DATA7 & hcan->Instance->sFIFOMailBox[RxFifo].RDHR) >> CAN_RDH0R_DATA7_Pos);
 80032bc:	68fb      	ldr	r3, [r7, #12]
 80032be:	6819      	ldr	r1, [r3, #0]
 80032c0:	68ba      	ldr	r2, [r7, #8]
 80032c2:	23de      	movs	r3, #222	; 0xde
 80032c4:	005b      	lsls	r3, r3, #1
 80032c6:	0112      	lsls	r2, r2, #4
 80032c8:	188a      	adds	r2, r1, r2
 80032ca:	18d3      	adds	r3, r2, r3
 80032cc:	681b      	ldr	r3, [r3, #0]
 80032ce:	0e1a      	lsrs	r2, r3, #24
 80032d0:	683b      	ldr	r3, [r7, #0]
 80032d2:	3307      	adds	r3, #7
 80032d4:	b2d2      	uxtb	r2, r2
 80032d6:	701a      	strb	r2, [r3, #0]

    /* Release the FIFO */
    if (RxFifo == CAN_RX_FIFO0) /* Rx element is assigned to Rx FIFO 0 */
 80032d8:	68bb      	ldr	r3, [r7, #8]
 80032da:	2b00      	cmp	r3, #0
 80032dc:	d108      	bne.n	80032f0 <HAL_CAN_GetRxMessage+0x20c>
    {
      /* Release RX FIFO 0 */
      SET_BIT(hcan->Instance->RF0R, CAN_RF0R_RFOM0);
 80032de:	68fb      	ldr	r3, [r7, #12]
 80032e0:	681b      	ldr	r3, [r3, #0]
 80032e2:	68da      	ldr	r2, [r3, #12]
 80032e4:	68fb      	ldr	r3, [r7, #12]
 80032e6:	681b      	ldr	r3, [r3, #0]
 80032e8:	2120      	movs	r1, #32
 80032ea:	430a      	orrs	r2, r1
 80032ec:	60da      	str	r2, [r3, #12]
 80032ee:	e007      	b.n	8003300 <HAL_CAN_GetRxMessage+0x21c>
    }
    else /* Rx element is assigned to Rx FIFO 1 */
    {
      /* Release RX FIFO 1 */
      SET_BIT(hcan->Instance->RF1R, CAN_RF1R_RFOM1);
 80032f0:	68fb      	ldr	r3, [r7, #12]
 80032f2:	681b      	ldr	r3, [r3, #0]
 80032f4:	691a      	ldr	r2, [r3, #16]
 80032f6:	68fb      	ldr	r3, [r7, #12]
 80032f8:	681b      	ldr	r3, [r3, #0]
 80032fa:	2120      	movs	r1, #32
 80032fc:	430a      	orrs	r2, r1
 80032fe:	611a      	str	r2, [r3, #16]
    }

    /* Return function status */
    return HAL_OK;
 8003300:	2300      	movs	r3, #0
 8003302:	e007      	b.n	8003314 <HAL_CAN_GetRxMessage+0x230>
  }
  else
  {
    /* Update error code */
    hcan->ErrorCode |= HAL_CAN_ERROR_NOT_INITIALIZED;
 8003304:	68fb      	ldr	r3, [r7, #12]
 8003306:	6a5b      	ldr	r3, [r3, #36]	; 0x24
 8003308:	2280      	movs	r2, #128	; 0x80
 800330a:	02d2      	lsls	r2, r2, #11
 800330c:	431a      	orrs	r2, r3
 800330e:	68fb      	ldr	r3, [r7, #12]
 8003310:	625a      	str	r2, [r3, #36]	; 0x24

    return HAL_ERROR;
 8003312:	2301      	movs	r3, #1
  }
}
 8003314:	0018      	movs	r0, r3
 8003316:	46bd      	mov	sp, r7
 8003318:	b006      	add	sp, #24
 800331a:	bd80      	pop	{r7, pc}

0800331c <HAL_CAN_ActivateNotification>:
  * @param  ActiveITs indicates which interrupts will be enabled.
  *         This parameter can be any combination of @arg CAN_Interrupts.
  * @retval HAL status
  */
HAL_StatusTypeDef HAL_CAN_ActivateNotification(CAN_HandleTypeDef *hcan, uint32_t ActiveITs)
{
 800331c:	b580      	push	{r7, lr}
 800331e:	b084      	sub	sp, #16
 8003320:	af00      	add	r7, sp, #0
 8003322:	6078      	str	r0, [r7, #4]
 8003324:	6039      	str	r1, [r7, #0]
  HAL_CAN_StateTypeDef state = hcan->State;
 8003326:	200f      	movs	r0, #15
 8003328:	183b      	adds	r3, r7, r0
 800332a:	687a      	ldr	r2, [r7, #4]
 800332c:	2120      	movs	r1, #32
 800332e:	5c52      	ldrb	r2, [r2, r1]
 8003330:	701a      	strb	r2, [r3, #0]

  /* Check function parameters */
  assert_param(IS_CAN_IT(ActiveITs));

  if ((state == HAL_CAN_STATE_READY) ||
 8003332:	0002      	movs	r2, r0
 8003334:	18bb      	adds	r3, r7, r2
 8003336:	781b      	ldrb	r3, [r3, #0]
 8003338:	2b01      	cmp	r3, #1
 800333a:	d003      	beq.n	8003344 <HAL_CAN_ActivateNotification+0x28>
 800333c:	18bb      	adds	r3, r7, r2
 800333e:	781b      	ldrb	r3, [r3, #0]
 8003340:	2b02      	cmp	r3, #2
 8003342:	d109      	bne.n	8003358 <HAL_CAN_ActivateNotification+0x3c>
      (state == HAL_CAN_STATE_LISTENING))
  {
    /* Enable the selected interrupts */
    __HAL_CAN_ENABLE_IT(hcan, ActiveITs);
 8003344:	687b      	ldr	r3, [r7, #4]
 8003346:	681b      	ldr	r3, [r3, #0]
 8003348:	6959      	ldr	r1, [r3, #20]
 800334a:	687b      	ldr	r3, [r7, #4]
 800334c:	681b      	ldr	r3, [r3, #0]
 800334e:	683a      	ldr	r2, [r7, #0]
 8003350:	430a      	orrs	r2, r1
 8003352:	615a      	str	r2, [r3, #20]

    /* Return function status */
    return HAL_OK;
 8003354:	2300      	movs	r3, #0
 8003356:	e007      	b.n	8003368 <HAL_CAN_ActivateNotification+0x4c>
  }
  else
  {
    /* Update error code */
    hcan->ErrorCode |= HAL_CAN_ERROR_NOT_INITIALIZED;
 8003358:	687b      	ldr	r3, [r7, #4]
 800335a:	6a5b      	ldr	r3, [r3, #36]	; 0x24
 800335c:	2280      	movs	r2, #128	; 0x80
 800335e:	02d2      	lsls	r2, r2, #11
 8003360:	431a      	orrs	r2, r3
 8003362:	687b      	ldr	r3, [r7, #4]
 8003364:	625a      	str	r2, [r3, #36]	; 0x24

    return HAL_ERROR;
 8003366:	2301      	movs	r3, #1
  }
}
 8003368:	0018      	movs	r0, r3
 800336a:	46bd      	mov	sp, r7
 800336c:	b004      	add	sp, #16
 800336e:	bd80      	pop	{r7, pc}

08003370 <HAL_CAN_IRQHandler>:
  * @param  hcan pointer to a CAN_HandleTypeDef structure that contains
  *         the configuration information for the specified CAN.
  * @retval None
  */
void HAL_CAN_IRQHandler(CAN_HandleTypeDef *hcan)
{
 8003370:	b580      	push	{r7, lr}
 8003372:	b08a      	sub	sp, #40	; 0x28
 8003374:	af00      	add	r7, sp, #0
 8003376:	6078      	str	r0, [r7, #4]
  uint32_t errorcode = HAL_CAN_ERROR_NONE;
 8003378:	2300      	movs	r3, #0
 800337a:	627b      	str	r3, [r7, #36]	; 0x24
  uint32_t interrupts = READ_REG(hcan->Instance->IER);
 800337c:	687b      	ldr	r3, [r7, #4]
 800337e:	681b      	ldr	r3, [r3, #0]
 8003380:	695b      	ldr	r3, [r3, #20]
 8003382:	623b      	str	r3, [r7, #32]
  uint32_t msrflags = READ_REG(hcan->Instance->MSR);
 8003384:	687b      	ldr	r3, [r7, #4]
 8003386:	681b      	ldr	r3, [r3, #0]
 8003388:	685b      	ldr	r3, [r3, #4]
 800338a:	61fb      	str	r3, [r7, #28]
  uint32_t tsrflags = READ_REG(hcan->Instance->TSR);
 800338c:	687b      	ldr	r3, [r7, #4]
 800338e:	681b      	ldr	r3, [r3, #0]
 8003390:	689b      	ldr	r3, [r3, #8]
 8003392:	61bb      	str	r3, [r7, #24]
  uint32_t rf0rflags = READ_REG(hcan->Instance->RF0R);
 8003394:	687b      	ldr	r3, [r7, #4]
 8003396:	681b      	ldr	r3, [r3, #0]
 8003398:	68db      	ldr	r3, [r3, #12]
 800339a:	617b      	str	r3, [r7, #20]
  uint32_t rf1rflags = READ_REG(hcan->Instance->RF1R);
 800339c:	687b      	ldr	r3, [r7, #4]
 800339e:	681b      	ldr	r3, [r3, #0]
 80033a0:	691b      	ldr	r3, [r3, #16]
 80033a2:	613b      	str	r3, [r7, #16]
  uint32_t esrflags = READ_REG(hcan->Instance->ESR);
 80033a4:	687b      	ldr	r3, [r7, #4]
 80033a6:	681b      	ldr	r3, [r3, #0]
 80033a8:	699b      	ldr	r3, [r3, #24]
 80033aa:	60fb      	str	r3, [r7, #12]

  /* Transmit Mailbox empty interrupt management *****************************/
  if ((interrupts & CAN_IT_TX_MAILBOX_EMPTY) != 0U)
 80033ac:	6a3b      	ldr	r3, [r7, #32]
 80033ae:	2201      	movs	r2, #1
 80033b0:	4013      	ands	r3, r2
 80033b2:	d100      	bne.n	80033b6 <HAL_CAN_IRQHandler+0x46>
 80033b4:	e084      	b.n	80034c0 <HAL_CAN_IRQHandler+0x150>
  {
    /* Transmit Mailbox 0 management *****************************************/
    if ((tsrflags & CAN_TSR_RQCP0) != 0U)
 80033b6:	69bb      	ldr	r3, [r7, #24]
 80033b8:	2201      	movs	r2, #1
 80033ba:	4013      	ands	r3, r2
 80033bc:	d024      	beq.n	8003408 <HAL_CAN_IRQHandler+0x98>
    {
      /* Clear the Transmission Complete flag (and TXOK0,ALST0,TERR0 bits) */
      __HAL_CAN_CLEAR_FLAG(hcan, CAN_FLAG_RQCP0);
 80033be:	687b      	ldr	r3, [r7, #4]
 80033c0:	681b      	ldr	r3, [r3, #0]
 80033c2:	2201      	movs	r2, #1
 80033c4:	609a      	str	r2, [r3, #8]

      if ((tsrflags & CAN_TSR_TXOK0) != 0U)
 80033c6:	69bb      	ldr	r3, [r7, #24]
 80033c8:	2202      	movs	r2, #2
 80033ca:	4013      	ands	r3, r2
 80033cc:	d004      	beq.n	80033d8 <HAL_CAN_IRQHandler+0x68>
#if USE_HAL_CAN_REGISTER_CALLBACKS == 1
        /* Call registered callback*/
        hcan->TxMailbox0CompleteCallback(hcan);
#else
        /* Call weak (surcharged) callback */
        HAL_CAN_TxMailbox0CompleteCallback(hcan);
 80033ce:	687b      	ldr	r3, [r7, #4]
 80033d0:	0018      	movs	r0, r3
 80033d2:	f000 f981 	bl	80036d8 <HAL_CAN_TxMailbox0CompleteCallback>
 80033d6:	e017      	b.n	8003408 <HAL_CAN_IRQHandler+0x98>
#endif /* USE_HAL_CAN_REGISTER_CALLBACKS */
      }
      else
      {
        if ((tsrflags & CAN_TSR_ALST0) != 0U)
 80033d8:	69bb      	ldr	r3, [r7, #24]
 80033da:	2204      	movs	r2, #4
 80033dc:	4013      	ands	r3, r2
 80033de:	d005      	beq.n	80033ec <HAL_CAN_IRQHandler+0x7c>
        {
          /* Update error code */
          errorcode |= HAL_CAN_ERROR_TX_ALST0;
 80033e0:	6a7b      	ldr	r3, [r7, #36]	; 0x24
 80033e2:	2280      	movs	r2, #128	; 0x80
 80033e4:	0112      	lsls	r2, r2, #4
 80033e6:	4313      	orrs	r3, r2
 80033e8:	627b      	str	r3, [r7, #36]	; 0x24
 80033ea:	e00d      	b.n	8003408 <HAL_CAN_IRQHandler+0x98>
        }
        else if ((tsrflags & CAN_TSR_TERR0) != 0U)
 80033ec:	69bb      	ldr	r3, [r7, #24]
 80033ee:	2208      	movs	r2, #8
 80033f0:	4013      	ands	r3, r2
 80033f2:	d005      	beq.n	8003400 <HAL_CAN_IRQHandler+0x90>
        {
          /* Update error code */
          errorcode |= HAL_CAN_ERROR_TX_TERR0;
 80033f4:	6a7b      	ldr	r3, [r7, #36]	; 0x24
 80033f6:	2280      	movs	r2, #128	; 0x80
 80033f8:	0152      	lsls	r2, r2, #5
 80033fa:	4313      	orrs	r3, r2
 80033fc:	627b      	str	r3, [r7, #36]	; 0x24
 80033fe:	e003      	b.n	8003408 <HAL_CAN_IRQHandler+0x98>
#if USE_HAL_CAN_REGISTER_CALLBACKS == 1
          /* Call registered callback*/
          hcan->TxMailbox0AbortCallback(hcan);
#else
          /* Call weak (surcharged) callback */
          HAL_CAN_TxMailbox0AbortCallback(hcan);
 8003400:	687b      	ldr	r3, [r7, #4]
 8003402:	0018      	movs	r0, r3
 8003404:	f000 f980 	bl	8003708 <HAL_CAN_TxMailbox0AbortCallback>
        }
      }
    }

    /* Transmit Mailbox 1 management *****************************************/
    if ((tsrflags & CAN_TSR_RQCP1) != 0U)
 8003408:	69ba      	ldr	r2, [r7, #24]
 800340a:	2380      	movs	r3, #128	; 0x80
 800340c:	005b      	lsls	r3, r3, #1
 800340e:	4013      	ands	r3, r2
 8003410:	d028      	beq.n	8003464 <HAL_CAN_IRQHandler+0xf4>
    {
      /* Clear the Transmission Complete flag (and TXOK1,ALST1,TERR1 bits) */
      __HAL_CAN_CLEAR_FLAG(hcan, CAN_FLAG_RQCP1);
 8003412:	687b      	ldr	r3, [r7, #4]
 8003414:	681b      	ldr	r3, [r3, #0]
 8003416:	2280      	movs	r2, #128	; 0x80
 8003418:	0052      	lsls	r2, r2, #1
 800341a:	609a      	str	r2, [r3, #8]

      if ((tsrflags & CAN_TSR_TXOK1) != 0U)
 800341c:	69ba      	ldr	r2, [r7, #24]
 800341e:	2380      	movs	r3, #128	; 0x80
 8003420:	009b      	lsls	r3, r3, #2
 8003422:	4013      	ands	r3, r2
 8003424:	d004      	beq.n	8003430 <HAL_CAN_IRQHandler+0xc0>
#if USE_HAL_CAN_REGISTER_CALLBACKS == 1
        /* Call registered callback*/
        hcan->TxMailbox1CompleteCallback(hcan);
#else
        /* Call weak (surcharged) callback */
        HAL_CAN_TxMailbox1CompleteCallback(hcan);
 8003426:	687b      	ldr	r3, [r7, #4]
 8003428:	0018      	movs	r0, r3
 800342a:	f000 f95d 	bl	80036e8 <HAL_CAN_TxMailbox1CompleteCallback>
 800342e:	e019      	b.n	8003464 <HAL_CAN_IRQHandler+0xf4>
#endif /* USE_HAL_CAN_REGISTER_CALLBACKS */
      }
      else
      {
        if ((tsrflags & CAN_TSR_ALST1) != 0U)
 8003430:	69ba      	ldr	r2, [r7, #24]
 8003432:	2380      	movs	r3, #128	; 0x80
 8003434:	00db      	lsls	r3, r3, #3
 8003436:	4013      	ands	r3, r2
 8003438:	d005      	beq.n	8003446 <HAL_CAN_IRQHandler+0xd6>
        {
          /* Update error code */
          errorcode |= HAL_CAN_ERROR_TX_ALST1;
 800343a:	6a7b      	ldr	r3, [r7, #36]	; 0x24
 800343c:	2280      	movs	r2, #128	; 0x80
 800343e:	0192      	lsls	r2, r2, #6
 8003440:	4313      	orrs	r3, r2
 8003442:	627b      	str	r3, [r7, #36]	; 0x24
 8003444:	e00e      	b.n	8003464 <HAL_CAN_IRQHandler+0xf4>
        }
        else if ((tsrflags & CAN_TSR_TERR1) != 0U)
 8003446:	69ba      	ldr	r2, [r7, #24]
 8003448:	2380      	movs	r3, #128	; 0x80
 800344a:	011b      	lsls	r3, r3, #4
 800344c:	4013      	ands	r3, r2
 800344e:	d005      	beq.n	800345c <HAL_CAN_IRQHandler+0xec>
        {
          /* Update error code */
          errorcode |= HAL_CAN_ERROR_TX_TERR1;
 8003450:	6a7b      	ldr	r3, [r7, #36]	; 0x24
 8003452:	2280      	movs	r2, #128	; 0x80
 8003454:	01d2      	lsls	r2, r2, #7
 8003456:	4313      	orrs	r3, r2
 8003458:	627b      	str	r3, [r7, #36]	; 0x24
 800345a:	e003      	b.n	8003464 <HAL_CAN_IRQHandler+0xf4>
#if USE_HAL_CAN_REGISTER_CALLBACKS == 1
          /* Call registered callback*/
          hcan->TxMailbox1AbortCallback(hcan);
#else
          /* Call weak (surcharged) callback */
          HAL_CAN_TxMailbox1AbortCallback(hcan);
 800345c:	687b      	ldr	r3, [r7, #4]
 800345e:	0018      	movs	r0, r3
 8003460:	f000 f95a 	bl	8003718 <HAL_CAN_TxMailbox1AbortCallback>
        }
      }
    }

    /* Transmit Mailbox 2 management *****************************************/
    if ((tsrflags & CAN_TSR_RQCP2) != 0U)
 8003464:	69ba      	ldr	r2, [r7, #24]
 8003466:	2380      	movs	r3, #128	; 0x80
 8003468:	025b      	lsls	r3, r3, #9
 800346a:	4013      	ands	r3, r2
 800346c:	d028      	beq.n	80034c0 <HAL_CAN_IRQHandler+0x150>
    {
      /* Clear the Transmission Complete flag (and TXOK2,ALST2,TERR2 bits) */
      __HAL_CAN_CLEAR_FLAG(hcan, CAN_FLAG_RQCP2);
 800346e:	687b      	ldr	r3, [r7, #4]
 8003470:	681b      	ldr	r3, [r3, #0]
 8003472:	2280      	movs	r2, #128	; 0x80
 8003474:	0252      	lsls	r2, r2, #9
 8003476:	609a      	str	r2, [r3, #8]

      if ((tsrflags & CAN_TSR_TXOK2) != 0U)
 8003478:	69ba      	ldr	r2, [r7, #24]
 800347a:	2380      	movs	r3, #128	; 0x80
 800347c:	029b      	lsls	r3, r3, #10
 800347e:	4013      	ands	r3, r2
 8003480:	d004      	beq.n	800348c <HAL_CAN_IRQHandler+0x11c>
#if USE_HAL_CAN_REGISTER_CALLBACKS == 1
        /* Call registered callback*/
        hcan->TxMailbox2CompleteCallback(hcan);
#else
        /* Call weak (surcharged) callback */
        HAL_CAN_TxMailbox2CompleteCallback(hcan);
 8003482:	687b      	ldr	r3, [r7, #4]
 8003484:	0018      	movs	r0, r3
 8003486:	f000 f937 	bl	80036f8 <HAL_CAN_TxMailbox2CompleteCallback>
 800348a:	e019      	b.n	80034c0 <HAL_CAN_IRQHandler+0x150>
#endif /* USE_HAL_CAN_REGISTER_CALLBACKS */
      }
      else
      {
        if ((tsrflags & CAN_TSR_ALST2) != 0U)
 800348c:	69ba      	ldr	r2, [r7, #24]
 800348e:	2380      	movs	r3, #128	; 0x80
 8003490:	02db      	lsls	r3, r3, #11
 8003492:	4013      	ands	r3, r2
 8003494:	d005      	beq.n	80034a2 <HAL_CAN_IRQHandler+0x132>
        {
          /* Update error code */
          errorcode |= HAL_CAN_ERROR_TX_ALST2;
 8003496:	6a7b      	ldr	r3, [r7, #36]	; 0x24
 8003498:	2280      	movs	r2, #128	; 0x80
 800349a:	0212      	lsls	r2, r2, #8
 800349c:	4313      	orrs	r3, r2
 800349e:	627b      	str	r3, [r7, #36]	; 0x24
 80034a0:	e00e      	b.n	80034c0 <HAL_CAN_IRQHandler+0x150>
        }
        else if ((tsrflags & CAN_TSR_TERR2) != 0U)
 80034a2:	69ba      	ldr	r2, [r7, #24]
 80034a4:	2380      	movs	r3, #128	; 0x80
 80034a6:	031b      	lsls	r3, r3, #12
 80034a8:	4013      	ands	r3, r2
 80034aa:	d005      	beq.n	80034b8 <HAL_CAN_IRQHandler+0x148>
        {
          /* Update error code */
          errorcode |= HAL_CAN_ERROR_TX_TERR2;
 80034ac:	6a7b      	ldr	r3, [r7, #36]	; 0x24
 80034ae:	2280      	movs	r2, #128	; 0x80
 80034b0:	0252      	lsls	r2, r2, #9
 80034b2:	4313      	orrs	r3, r2
 80034b4:	627b      	str	r3, [r7, #36]	; 0x24
 80034b6:	e003      	b.n	80034c0 <HAL_CAN_IRQHandler+0x150>
#if USE_HAL_CAN_REGISTER_CALLBACKS == 1
          /* Call registered callback*/
          hcan->TxMailbox2AbortCallback(hcan);
#else
          /* Call weak (surcharged) callback */
          HAL_CAN_TxMailbox2AbortCallback(hcan);
 80034b8:	687b      	ldr	r3, [r7, #4]
 80034ba:	0018      	movs	r0, r3
 80034bc:	f000 f934 	bl	8003728 <HAL_CAN_TxMailbox2AbortCallback>
      }
    }
  }

  /* Receive FIFO 0 overrun interrupt management *****************************/
  if ((interrupts & CAN_IT_RX_FIFO0_OVERRUN) != 0U)
 80034c0:	6a3b      	ldr	r3, [r7, #32]
 80034c2:	2208      	movs	r2, #8
 80034c4:	4013      	ands	r3, r2
 80034c6:	d00c      	beq.n	80034e2 <HAL_CAN_IRQHandler+0x172>
  {
    if ((rf0rflags & CAN_RF0R_FOVR0) != 0U)
 80034c8:	697b      	ldr	r3, [r7, #20]
 80034ca:	2210      	movs	r2, #16
 80034cc:	4013      	ands	r3, r2
 80034ce:	d008      	beq.n	80034e2 <HAL_CAN_IRQHandler+0x172>
    {
      /* Set CAN error code to Rx Fifo 0 overrun error */
      errorcode |= HAL_CAN_ERROR_RX_FOV0;
 80034d0:	6a7b      	ldr	r3, [r7, #36]	; 0x24
 80034d2:	2280      	movs	r2, #128	; 0x80
 80034d4:	0092      	lsls	r2, r2, #2
 80034d6:	4313      	orrs	r3, r2
 80034d8:	627b      	str	r3, [r7, #36]	; 0x24

      /* Clear FIFO0 Overrun Flag */
      __HAL_CAN_CLEAR_FLAG(hcan, CAN_FLAG_FOV0);
 80034da:	687b      	ldr	r3, [r7, #4]
 80034dc:	681b      	ldr	r3, [r3, #0]
 80034de:	2210      	movs	r2, #16
 80034e0:	60da      	str	r2, [r3, #12]
    }
  }

  /* Receive FIFO 0 full interrupt management ********************************/
  if ((interrupts & CAN_IT_RX_FIFO0_FULL) != 0U)
 80034e2:	6a3b      	ldr	r3, [r7, #32]
 80034e4:	2204      	movs	r2, #4
 80034e6:	4013      	ands	r3, r2
 80034e8:	d00b      	beq.n	8003502 <HAL_CAN_IRQHandler+0x192>
  {
    if ((rf0rflags & CAN_RF0R_FULL0) != 0U)
 80034ea:	697b      	ldr	r3, [r7, #20]
 80034ec:	2208      	movs	r2, #8
 80034ee:	4013      	ands	r3, r2
 80034f0:	d007      	beq.n	8003502 <HAL_CAN_IRQHandler+0x192>
    {
      /* Clear FIFO 0 full Flag */
      __HAL_CAN_CLEAR_FLAG(hcan, CAN_FLAG_FF0);
 80034f2:	687b      	ldr	r3, [r7, #4]
 80034f4:	681b      	ldr	r3, [r3, #0]
 80034f6:	2208      	movs	r2, #8
 80034f8:	60da      	str	r2, [r3, #12]
#if USE_HAL_CAN_REGISTER_CALLBACKS == 1
      /* Call registered callback*/
      hcan->RxFifo0FullCallback(hcan);
#else
      /* Call weak (surcharged) callback */
      HAL_CAN_RxFifo0FullCallback(hcan);
 80034fa:	687b      	ldr	r3, [r7, #4]
 80034fc:	0018      	movs	r0, r3
 80034fe:	f000 f91b 	bl	8003738 <HAL_CAN_RxFifo0FullCallback>
#endif /* USE_HAL_CAN_REGISTER_CALLBACKS */
    }
  }

  /* Receive FIFO 0 message pending interrupt management *********************/
  if ((interrupts & CAN_IT_RX_FIFO0_MSG_PENDING) != 0U)
 8003502:	6a3b      	ldr	r3, [r7, #32]
 8003504:	2202      	movs	r2, #2
 8003506:	4013      	ands	r3, r2
 8003508:	d009      	beq.n	800351e <HAL_CAN_IRQHandler+0x1ae>
  {
    /* Check if message is still pending */
    if ((hcan->Instance->RF0R & CAN_RF0R_FMP0) != 0U)
 800350a:	687b      	ldr	r3, [r7, #4]
 800350c:	681b      	ldr	r3, [r3, #0]
 800350e:	68db      	ldr	r3, [r3, #12]
 8003510:	2203      	movs	r2, #3
 8003512:	4013      	ands	r3, r2
 8003514:	d003      	beq.n	800351e <HAL_CAN_IRQHandler+0x1ae>
#if USE_HAL_CAN_REGISTER_CALLBACKS == 1
      /* Call registered callback*/
      hcan->RxFifo0MsgPendingCallback(hcan);
#else
      /* Call weak (surcharged) callback */
      HAL_CAN_RxFifo0MsgPendingCallback(hcan);
 8003516:	687b      	ldr	r3, [r7, #4]
 8003518:	0018      	movs	r0, r3
 800351a:	f7fe fc15 	bl	8001d48 <HAL_CAN_RxFifo0MsgPendingCallback>
#endif /* USE_HAL_CAN_REGISTER_CALLBACKS */
    }
  }

  /* Receive FIFO 1 overrun interrupt management *****************************/
  if ((interrupts & CAN_IT_RX_FIFO1_OVERRUN) != 0U)
 800351e:	6a3b      	ldr	r3, [r7, #32]
 8003520:	2240      	movs	r2, #64	; 0x40
 8003522:	4013      	ands	r3, r2
 8003524:	d00c      	beq.n	8003540 <HAL_CAN_IRQHandler+0x1d0>
  {
    if ((rf1rflags & CAN_RF1R_FOVR1) != 0U)
 8003526:	693b      	ldr	r3, [r7, #16]
 8003528:	2210      	movs	r2, #16
 800352a:	4013      	ands	r3, r2
 800352c:	d008      	beq.n	8003540 <HAL_CAN_IRQHandler+0x1d0>
    {
      /* Set CAN error code to Rx Fifo 1 overrun error */
      errorcode |= HAL_CAN_ERROR_RX_FOV1;
 800352e:	6a7b      	ldr	r3, [r7, #36]	; 0x24
 8003530:	2280      	movs	r2, #128	; 0x80
 8003532:	00d2      	lsls	r2, r2, #3
 8003534:	4313      	orrs	r3, r2
 8003536:	627b      	str	r3, [r7, #36]	; 0x24

      /* Clear FIFO1 Overrun Flag */
      __HAL_CAN_CLEAR_FLAG(hcan, CAN_FLAG_FOV1);
 8003538:	687b      	ldr	r3, [r7, #4]
 800353a:	681b      	ldr	r3, [r3, #0]
 800353c:	2210      	movs	r2, #16
 800353e:	611a      	str	r2, [r3, #16]
    }
  }

  /* Receive FIFO 1 full interrupt management ********************************/
  if ((interrupts & CAN_IT_RX_FIFO1_FULL) != 0U)
 8003540:	6a3b      	ldr	r3, [r7, #32]
 8003542:	2220      	movs	r2, #32
 8003544:	4013      	ands	r3, r2
 8003546:	d00b      	beq.n	8003560 <HAL_CAN_IRQHandler+0x1f0>
  {
    if ((rf1rflags & CAN_RF1R_FULL1) != 0U)
 8003548:	693b      	ldr	r3, [r7, #16]
 800354a:	2208      	movs	r2, #8
 800354c:	4013      	ands	r3, r2
 800354e:	d007      	beq.n	8003560 <HAL_CAN_IRQHandler+0x1f0>
    {
      /* Clear FIFO 1 full Flag */
      __HAL_CAN_CLEAR_FLAG(hcan, CAN_FLAG_FF1);
 8003550:	687b      	ldr	r3, [r7, #4]
 8003552:	681b      	ldr	r3, [r3, #0]
 8003554:	2208      	movs	r2, #8
 8003556:	611a      	str	r2, [r3, #16]
#if USE_HAL_CAN_REGISTER_CALLBACKS == 1
      /* Call registered callback*/
      hcan->RxFifo1FullCallback(hcan);
#else
      /* Call weak (surcharged) callback */
      HAL_CAN_RxFifo1FullCallback(hcan);
 8003558:	687b      	ldr	r3, [r7, #4]
 800355a:	0018      	movs	r0, r3
 800355c:	f000 f8fc 	bl	8003758 <HAL_CAN_RxFifo1FullCallback>
#endif /* USE_HAL_CAN_REGISTER_CALLBACKS */
    }
  }

  /* Receive FIFO 1 message pending interrupt management *********************/
  if ((interrupts & CAN_IT_RX_FIFO1_MSG_PENDING) != 0U)
 8003560:	6a3b      	ldr	r3, [r7, #32]
 8003562:	2210      	movs	r2, #16
 8003564:	4013      	ands	r3, r2
 8003566:	d009      	beq.n	800357c <HAL_CAN_IRQHandler+0x20c>
  {
    /* Check if message is still pending */
    if ((hcan->Instance->RF1R & CAN_RF1R_FMP1) != 0U)
 8003568:	687b      	ldr	r3, [r7, #4]
 800356a:	681b      	ldr	r3, [r3, #0]
 800356c:	691b      	ldr	r3, [r3, #16]
 800356e:	2203      	movs	r2, #3
 8003570:	4013      	ands	r3, r2
 8003572:	d003      	beq.n	800357c <HAL_CAN_IRQHandler+0x20c>
#if USE_HAL_CAN_REGISTER_CALLBACKS == 1
      /* Call registered callback*/
      hcan->RxFifo1MsgPendingCallback(hcan);
#else
      /* Call weak (surcharged) callback */
      HAL_CAN_RxFifo1MsgPendingCallback(hcan);
 8003574:	687b      	ldr	r3, [r7, #4]
 8003576:	0018      	movs	r0, r3
 8003578:	f000 f8e6 	bl	8003748 <HAL_CAN_RxFifo1MsgPendingCallback>
#endif /* USE_HAL_CAN_REGISTER_CALLBACKS */
    }
  }

  /* Sleep interrupt management *********************************************/
  if ((interrupts & CAN_IT_SLEEP_ACK) != 0U)
 800357c:	6a3a      	ldr	r2, [r7, #32]
 800357e:	2380      	movs	r3, #128	; 0x80
 8003580:	029b      	lsls	r3, r3, #10
 8003582:	4013      	ands	r3, r2
 8003584:	d00b      	beq.n	800359e <HAL_CAN_IRQHandler+0x22e>
  {
    if ((msrflags & CAN_MSR_SLAKI) != 0U)
 8003586:	69fb      	ldr	r3, [r7, #28]
 8003588:	2210      	movs	r2, #16
 800358a:	4013      	ands	r3, r2
 800358c:	d007      	beq.n	800359e <HAL_CAN_IRQHandler+0x22e>
    {
      /* Clear Sleep interrupt Flag */
      __HAL_CAN_CLEAR_FLAG(hcan, CAN_FLAG_SLAKI);
 800358e:	687b      	ldr	r3, [r7, #4]
 8003590:	681b      	ldr	r3, [r3, #0]
 8003592:	2210      	movs	r2, #16
 8003594:	605a      	str	r2, [r3, #4]
#if USE_HAL_CAN_REGISTER_CALLBACKS == 1
      /* Call registered callback*/
      hcan->SleepCallback(hcan);
#else
      /* Call weak (surcharged) callback */
      HAL_CAN_SleepCallback(hcan);
 8003596:	687b      	ldr	r3, [r7, #4]
 8003598:	0018      	movs	r0, r3
 800359a:	f000 f8e5 	bl	8003768 <HAL_CAN_SleepCallback>
#endif /* USE_HAL_CAN_REGISTER_CALLBACKS */
    }
  }

  /* WakeUp interrupt management *********************************************/
  if ((interrupts & CAN_IT_WAKEUP) != 0U)
 800359e:	6a3a      	ldr	r2, [r7, #32]
 80035a0:	2380      	movs	r3, #128	; 0x80
 80035a2:	025b      	lsls	r3, r3, #9
 80035a4:	4013      	ands	r3, r2
 80035a6:	d00b      	beq.n	80035c0 <HAL_CAN_IRQHandler+0x250>
  {
    if ((msrflags & CAN_MSR_WKUI) != 0U)
 80035a8:	69fb      	ldr	r3, [r7, #28]
 80035aa:	2208      	movs	r2, #8
 80035ac:	4013      	ands	r3, r2
 80035ae:	d007      	beq.n	80035c0 <HAL_CAN_IRQHandler+0x250>
    {
      /* Clear WakeUp Flag */
      __HAL_CAN_CLEAR_FLAG(hcan, CAN_FLAG_WKU);
 80035b0:	687b      	ldr	r3, [r7, #4]
 80035b2:	681b      	ldr	r3, [r3, #0]
 80035b4:	2208      	movs	r2, #8
 80035b6:	605a      	str	r2, [r3, #4]
#if USE_HAL_CAN_REGISTER_CALLBACKS == 1
      /* Call registered callback*/
      hcan->WakeUpFromRxMsgCallback(hcan);
#else
      /* Call weak (surcharged) callback */
      HAL_CAN_WakeUpFromRxMsgCallback(hcan);
 80035b8:	687b      	ldr	r3, [r7, #4]
 80035ba:	0018      	movs	r0, r3
 80035bc:	f000 f8dc 	bl	8003778 <HAL_CAN_WakeUpFromRxMsgCallback>
#endif /* USE_HAL_CAN_REGISTER_CALLBACKS */
    }
  }

  /* Error interrupts management *********************************************/
  if ((interrupts & CAN_IT_ERROR) != 0U)
 80035c0:	6a3a      	ldr	r2, [r7, #32]
 80035c2:	2380      	movs	r3, #128	; 0x80
 80035c4:	021b      	lsls	r3, r3, #8
 80035c6:	4013      	ands	r3, r2
 80035c8:	d100      	bne.n	80035cc <HAL_CAN_IRQHandler+0x25c>
 80035ca:	e074      	b.n	80036b6 <HAL_CAN_IRQHandler+0x346>
  {
    if ((msrflags & CAN_MSR_ERRI) != 0U)
 80035cc:	69fb      	ldr	r3, [r7, #28]
 80035ce:	2204      	movs	r2, #4
 80035d0:	4013      	ands	r3, r2
 80035d2:	d100      	bne.n	80035d6 <HAL_CAN_IRQHandler+0x266>
 80035d4:	e06b      	b.n	80036ae <HAL_CAN_IRQHandler+0x33e>
    {
      /* Check Error Warning Flag */
      if (((interrupts & CAN_IT_ERROR_WARNING) != 0U) &&
 80035d6:	6a3a      	ldr	r2, [r7, #32]
 80035d8:	2380      	movs	r3, #128	; 0x80
 80035da:	005b      	lsls	r3, r3, #1
 80035dc:	4013      	ands	r3, r2
 80035de:	d007      	beq.n	80035f0 <HAL_CAN_IRQHandler+0x280>
          ((esrflags & CAN_ESR_EWGF) != 0U))
 80035e0:	68fb      	ldr	r3, [r7, #12]
 80035e2:	2201      	movs	r2, #1
 80035e4:	4013      	ands	r3, r2
      if (((interrupts & CAN_IT_ERROR_WARNING) != 0U) &&
 80035e6:	d003      	beq.n	80035f0 <HAL_CAN_IRQHandler+0x280>
      {
        /* Set CAN error code to Error Warning */
        errorcode |= HAL_CAN_ERROR_EWG;
 80035e8:	6a7b      	ldr	r3, [r7, #36]	; 0x24
 80035ea:	2201      	movs	r2, #1
 80035ec:	4313      	orrs	r3, r2
 80035ee:	627b      	str	r3, [r7, #36]	; 0x24

        /* No need for clear of Error Warning Flag as read-only */
      }

      /* Check Error Passive Flag */
      if (((interrupts & CAN_IT_ERROR_PASSIVE) != 0U) &&
 80035f0:	6a3a      	ldr	r2, [r7, #32]
 80035f2:	2380      	movs	r3, #128	; 0x80
 80035f4:	009b      	lsls	r3, r3, #2
 80035f6:	4013      	ands	r3, r2
 80035f8:	d007      	beq.n	800360a <HAL_CAN_IRQHandler+0x29a>
          ((esrflags & CAN_ESR_EPVF) != 0U))
 80035fa:	68fb      	ldr	r3, [r7, #12]
 80035fc:	2202      	movs	r2, #2
 80035fe:	4013      	ands	r3, r2
      if (((interrupts & CAN_IT_ERROR_PASSIVE) != 0U) &&
 8003600:	d003      	beq.n	800360a <HAL_CAN_IRQHandler+0x29a>
      {
        /* Set CAN error code to Error Passive */
        errorcode |= HAL_CAN_ERROR_EPV;
 8003602:	6a7b      	ldr	r3, [r7, #36]	; 0x24
 8003604:	2202      	movs	r2, #2
 8003606:	4313      	orrs	r3, r2
 8003608:	627b      	str	r3, [r7, #36]	; 0x24

        /* No need for clear of Error Passive Flag as read-only */
      }

      /* Check Bus-off Flag */
      if (((interrupts & CAN_IT_BUSOFF) != 0U) &&
 800360a:	6a3a      	ldr	r2, [r7, #32]
 800360c:	2380      	movs	r3, #128	; 0x80
 800360e:	00db      	lsls	r3, r3, #3
 8003610:	4013      	ands	r3, r2
 8003612:	d007      	beq.n	8003624 <HAL_CAN_IRQHandler+0x2b4>
          ((esrflags & CAN_ESR_BOFF) != 0U))
 8003614:	68fb      	ldr	r3, [r7, #12]
 8003616:	2204      	movs	r2, #4
 8003618:	4013      	ands	r3, r2
      if (((interrupts & CAN_IT_BUSOFF) != 0U) &&
 800361a:	d003      	beq.n	8003624 <HAL_CAN_IRQHandler+0x2b4>
      {
        /* Set CAN error code to Bus-Off */
        errorcode |= HAL_CAN_ERROR_BOF;
 800361c:	6a7b      	ldr	r3, [r7, #36]	; 0x24
 800361e:	2204      	movs	r2, #4
 8003620:	4313      	orrs	r3, r2
 8003622:	627b      	str	r3, [r7, #36]	; 0x24

        /* No need for clear of Error Bus-Off as read-only */
      }

      /* Check Last Error Code Flag */
      if (((interrupts & CAN_IT_LAST_ERROR_CODE) != 0U) &&
 8003624:	6a3a      	ldr	r2, [r7, #32]
 8003626:	2380      	movs	r3, #128	; 0x80
 8003628:	011b      	lsls	r3, r3, #4
 800362a:	4013      	ands	r3, r2
 800362c:	d03f      	beq.n	80036ae <HAL_CAN_IRQHandler+0x33e>
          ((esrflags & CAN_ESR_LEC) != 0U))
 800362e:	68fb      	ldr	r3, [r7, #12]
 8003630:	2270      	movs	r2, #112	; 0x70
 8003632:	4013      	ands	r3, r2
      if (((interrupts & CAN_IT_LAST_ERROR_CODE) != 0U) &&
 8003634:	d03b      	beq.n	80036ae <HAL_CAN_IRQHandler+0x33e>
      {
        switch (esrflags & CAN_ESR_LEC)
 8003636:	68fb      	ldr	r3, [r7, #12]
 8003638:	2270      	movs	r2, #112	; 0x70
 800363a:	4013      	ands	r3, r2
 800363c:	2b60      	cmp	r3, #96	; 0x60
 800363e:	d027      	beq.n	8003690 <HAL_CAN_IRQHandler+0x320>
 8003640:	d82c      	bhi.n	800369c <HAL_CAN_IRQHandler+0x32c>
 8003642:	2b50      	cmp	r3, #80	; 0x50
 8003644:	d01f      	beq.n	8003686 <HAL_CAN_IRQHandler+0x316>
 8003646:	d829      	bhi.n	800369c <HAL_CAN_IRQHandler+0x32c>
 8003648:	2b40      	cmp	r3, #64	; 0x40
 800364a:	d017      	beq.n	800367c <HAL_CAN_IRQHandler+0x30c>
 800364c:	d826      	bhi.n	800369c <HAL_CAN_IRQHandler+0x32c>
 800364e:	2b30      	cmp	r3, #48	; 0x30
 8003650:	d00f      	beq.n	8003672 <HAL_CAN_IRQHandler+0x302>
 8003652:	d823      	bhi.n	800369c <HAL_CAN_IRQHandler+0x32c>
 8003654:	2b10      	cmp	r3, #16
 8003656:	d002      	beq.n	800365e <HAL_CAN_IRQHandler+0x2ee>
 8003658:	2b20      	cmp	r3, #32
 800365a:	d005      	beq.n	8003668 <HAL_CAN_IRQHandler+0x2f8>
          case (CAN_ESR_LEC_2 | CAN_ESR_LEC_1):
            /* Set CAN error code to CRC error */
            errorcode |= HAL_CAN_ERROR_CRC;
            break;
          default:
            break;
 800365c:	e01e      	b.n	800369c <HAL_CAN_IRQHandler+0x32c>
            errorcode |= HAL_CAN_ERROR_STF;
 800365e:	6a7b      	ldr	r3, [r7, #36]	; 0x24
 8003660:	2208      	movs	r2, #8
 8003662:	4313      	orrs	r3, r2
 8003664:	627b      	str	r3, [r7, #36]	; 0x24
            break;
 8003666:	e01a      	b.n	800369e <HAL_CAN_IRQHandler+0x32e>
            errorcode |= HAL_CAN_ERROR_FOR;
 8003668:	6a7b      	ldr	r3, [r7, #36]	; 0x24
 800366a:	2210      	movs	r2, #16
 800366c:	4313      	orrs	r3, r2
 800366e:	627b      	str	r3, [r7, #36]	; 0x24
            break;
 8003670:	e015      	b.n	800369e <HAL_CAN_IRQHandler+0x32e>
            errorcode |= HAL_CAN_ERROR_ACK;
 8003672:	6a7b      	ldr	r3, [r7, #36]	; 0x24
 8003674:	2220      	movs	r2, #32
 8003676:	4313      	orrs	r3, r2
 8003678:	627b      	str	r3, [r7, #36]	; 0x24
            break;
 800367a:	e010      	b.n	800369e <HAL_CAN_IRQHandler+0x32e>
            errorcode |= HAL_CAN_ERROR_BR;
 800367c:	6a7b      	ldr	r3, [r7, #36]	; 0x24
 800367e:	2240      	movs	r2, #64	; 0x40
 8003680:	4313      	orrs	r3, r2
 8003682:	627b      	str	r3, [r7, #36]	; 0x24
            break;
 8003684:	e00b      	b.n	800369e <HAL_CAN_IRQHandler+0x32e>
            errorcode |= HAL_CAN_ERROR_BD;
 8003686:	6a7b      	ldr	r3, [r7, #36]	; 0x24
 8003688:	2280      	movs	r2, #128	; 0x80
 800368a:	4313      	orrs	r3, r2
 800368c:	627b      	str	r3, [r7, #36]	; 0x24
            break;
 800368e:	e006      	b.n	800369e <HAL_CAN_IRQHandler+0x32e>
            errorcode |= HAL_CAN_ERROR_CRC;
 8003690:	6a7b      	ldr	r3, [r7, #36]	; 0x24
 8003692:	2280      	movs	r2, #128	; 0x80
 8003694:	0052      	lsls	r2, r2, #1
 8003696:	4313      	orrs	r3, r2
 8003698:	627b      	str	r3, [r7, #36]	; 0x24
            break;
 800369a:	e000      	b.n	800369e <HAL_CAN_IRQHandler+0x32e>
            break;
 800369c:	46c0      	nop			; (mov r8, r8)
        }

        /* Clear Last error code Flag */
        CLEAR_BIT(hcan->Instance->ESR, CAN_ESR_LEC);
 800369e:	687b      	ldr	r3, [r7, #4]
 80036a0:	681b      	ldr	r3, [r3, #0]
 80036a2:	699a      	ldr	r2, [r3, #24]
 80036a4:	687b      	ldr	r3, [r7, #4]
 80036a6:	681b      	ldr	r3, [r3, #0]
 80036a8:	2170      	movs	r1, #112	; 0x70
 80036aa:	438a      	bics	r2, r1
 80036ac:	619a      	str	r2, [r3, #24]
      }
    }

    /* Clear ERRI Flag */
    __HAL_CAN_CLEAR_FLAG(hcan, CAN_FLAG_ERRI);
 80036ae:	687b      	ldr	r3, [r7, #4]
 80036b0:	681b      	ldr	r3, [r3, #0]
 80036b2:	2204      	movs	r2, #4
 80036b4:	605a      	str	r2, [r3, #4]
  }

  /* Call the Error call Back in case of Errors */
  if (errorcode != HAL_CAN_ERROR_NONE)
 80036b6:	6a7b      	ldr	r3, [r7, #36]	; 0x24
 80036b8:	2b00      	cmp	r3, #0
 80036ba:	d009      	beq.n	80036d0 <HAL_CAN_IRQHandler+0x360>
  {
    /* Update error code in handle */
    hcan->ErrorCode |= errorcode;
 80036bc:	687b      	ldr	r3, [r7, #4]
 80036be:	6a5a      	ldr	r2, [r3, #36]	; 0x24
 80036c0:	6a7b      	ldr	r3, [r7, #36]	; 0x24
 80036c2:	431a      	orrs	r2, r3
 80036c4:	687b      	ldr	r3, [r7, #4]
 80036c6:	625a      	str	r2, [r3, #36]	; 0x24
#if USE_HAL_CAN_REGISTER_CALLBACKS == 1
    /* Call registered callback*/
    hcan->ErrorCallback(hcan);
#else
    /* Call weak (surcharged) callback */
    HAL_CAN_ErrorCallback(hcan);
 80036c8:	687b      	ldr	r3, [r7, #4]
 80036ca:	0018      	movs	r0, r3
 80036cc:	f000 f85c 	bl	8003788 <HAL_CAN_ErrorCallback>
#endif /* USE_HAL_CAN_REGISTER_CALLBACKS */
  }
}
 80036d0:	46c0      	nop			; (mov r8, r8)
 80036d2:	46bd      	mov	sp, r7
 80036d4:	b00a      	add	sp, #40	; 0x28
 80036d6:	bd80      	pop	{r7, pc}

080036d8 <HAL_CAN_TxMailbox0CompleteCallback>:
  * @param  hcan pointer to a CAN_HandleTypeDef structure that contains
  *         the configuration information for the specified CAN.
  * @retval None
  */
__weak void HAL_CAN_TxMailbox0CompleteCallback(CAN_HandleTypeDef *hcan)
{
 80036d8:	b580      	push	{r7, lr}
 80036da:	b082      	sub	sp, #8
 80036dc:	af00      	add	r7, sp, #0
 80036de:	6078      	str	r0, [r7, #4]

  /* NOTE : This function Should not be modified, when the callback is needed,
            the HAL_CAN_TxMailbox0CompleteCallback could be implemented in the
            user file
   */
}
 80036e0:	46c0      	nop			; (mov r8, r8)
 80036e2:	46bd      	mov	sp, r7
 80036e4:	b002      	add	sp, #8
 80036e6:	bd80      	pop	{r7, pc}

080036e8 <HAL_CAN_TxMailbox1CompleteCallback>:
  * @param  hcan pointer to a CAN_HandleTypeDef structure that contains
  *         the configuration information for the specified CAN.
  * @retval None
  */
__weak void HAL_CAN_TxMailbox1CompleteCallback(CAN_HandleTypeDef *hcan)
{
 80036e8:	b580      	push	{r7, lr}
 80036ea:	b082      	sub	sp, #8
 80036ec:	af00      	add	r7, sp, #0
 80036ee:	6078      	str	r0, [r7, #4]

  /* NOTE : This function Should not be modified, when the callback is needed,
            the HAL_CAN_TxMailbox1CompleteCallback could be implemented in the
            user file
   */
}
 80036f0:	46c0      	nop			; (mov r8, r8)
 80036f2:	46bd      	mov	sp, r7
 80036f4:	b002      	add	sp, #8
 80036f6:	bd80      	pop	{r7, pc}

080036f8 <HAL_CAN_TxMailbox2CompleteCallback>:
  * @param  hcan pointer to a CAN_HandleTypeDef structure that contains
  *         the configuration information for the specified CAN.
  * @retval None
  */
__weak void HAL_CAN_TxMailbox2CompleteCallback(CAN_HandleTypeDef *hcan)
{
 80036f8:	b580      	push	{r7, lr}
 80036fa:	b082      	sub	sp, #8
 80036fc:	af00      	add	r7, sp, #0
 80036fe:	6078      	str	r0, [r7, #4]

  /* NOTE : This function Should not be modified, when the callback is needed,
            the HAL_CAN_TxMailbox2CompleteCallback could be implemented in the
            user file
   */
}
 8003700:	46c0      	nop			; (mov r8, r8)
 8003702:	46bd      	mov	sp, r7
 8003704:	b002      	add	sp, #8
 8003706:	bd80      	pop	{r7, pc}

08003708 <HAL_CAN_TxMailbox0AbortCallback>:
  * @param  hcan pointer to an CAN_HandleTypeDef structure that contains
  *         the configuration information for the specified CAN.
  * @retval None
  */
__weak void HAL_CAN_TxMailbox0AbortCallback(CAN_HandleTypeDef *hcan)
{
 8003708:	b580      	push	{r7, lr}
 800370a:	b082      	sub	sp, #8
 800370c:	af00      	add	r7, sp, #0
 800370e:	6078      	str	r0, [r7, #4]

  /* NOTE : This function Should not be modified, when the callback is needed,
            the HAL_CAN_TxMailbox0AbortCallback could be implemented in the
            user file
   */
}
 8003710:	46c0      	nop			; (mov r8, r8)
 8003712:	46bd      	mov	sp, r7
 8003714:	b002      	add	sp, #8
 8003716:	bd80      	pop	{r7, pc}

08003718 <HAL_CAN_TxMailbox1AbortCallback>:
  * @param  hcan pointer to an CAN_HandleTypeDef structure that contains
  *         the configuration information for the specified CAN.
  * @retval None
  */
__weak void HAL_CAN_TxMailbox1AbortCallback(CAN_HandleTypeDef *hcan)
{
 8003718:	b580      	push	{r7, lr}
 800371a:	b082      	sub	sp, #8
 800371c:	af00      	add	r7, sp, #0
 800371e:	6078      	str	r0, [r7, #4]

  /* NOTE : This function Should not be modified, when the callback is needed,
            the HAL_CAN_TxMailbox1AbortCallback could be implemented in the
            user file
   */
}
 8003720:	46c0      	nop			; (mov r8, r8)
 8003722:	46bd      	mov	sp, r7
 8003724:	b002      	add	sp, #8
 8003726:	bd80      	pop	{r7, pc}

08003728 <HAL_CAN_TxMailbox2AbortCallback>:
  * @param  hcan pointer to an CAN_HandleTypeDef structure that contains
  *         the configuration information for the specified CAN.
  * @retval None
  */
__weak void HAL_CAN_TxMailbox2AbortCallback(CAN_HandleTypeDef *hcan)
{
 8003728:	b580      	push	{r7, lr}
 800372a:	b082      	sub	sp, #8
 800372c:	af00      	add	r7, sp, #0
 800372e:	6078      	str	r0, [r7, #4]

  /* NOTE : This function Should not be modified, when the callback is needed,
            the HAL_CAN_TxMailbox2AbortCallback could be implemented in the
            user file
   */
}
 8003730:	46c0      	nop			; (mov r8, r8)
 8003732:	46bd      	mov	sp, r7
 8003734:	b002      	add	sp, #8
 8003736:	bd80      	pop	{r7, pc}

08003738 <HAL_CAN_RxFifo0FullCallback>:
  * @param  hcan pointer to a CAN_HandleTypeDef structure that contains
  *         the configuration information for the specified CAN.
  * @retval None
  */
__weak void HAL_CAN_RxFifo0FullCallback(CAN_HandleTypeDef *hcan)
{
 8003738:	b580      	push	{r7, lr}
 800373a:	b082      	sub	sp, #8
 800373c:	af00      	add	r7, sp, #0
 800373e:	6078      	str	r0, [r7, #4]

  /* NOTE : This function Should not be modified, when the callback is needed,
            the HAL_CAN_RxFifo0FullCallback could be implemented in the user
            file
   */
}
 8003740:	46c0      	nop			; (mov r8, r8)
 8003742:	46bd      	mov	sp, r7
 8003744:	b002      	add	sp, #8
 8003746:	bd80      	pop	{r7, pc}

08003748 <HAL_CAN_RxFifo1MsgPendingCallback>:
  * @param  hcan pointer to a CAN_HandleTypeDef structure that contains
  *         the configuration information for the specified CAN.
  * @retval None
  */
__weak void HAL_CAN_RxFifo1MsgPendingCallback(CAN_HandleTypeDef *hcan)
{
 8003748:	b580      	push	{r7, lr}
 800374a:	b082      	sub	sp, #8
 800374c:	af00      	add	r7, sp, #0
 800374e:	6078      	str	r0, [r7, #4]

  /* NOTE : This function Should not be modified, when the callback is needed,
            the HAL_CAN_RxFifo1MsgPendingCallback could be implemented in the
            user file
   */
}
 8003750:	46c0      	nop			; (mov r8, r8)
 8003752:	46bd      	mov	sp, r7
 8003754:	b002      	add	sp, #8
 8003756:	bd80      	pop	{r7, pc}

08003758 <HAL_CAN_RxFifo1FullCallback>:
  * @param  hcan pointer to a CAN_HandleTypeDef structure that contains
  *         the configuration information for the specified CAN.
  * @retval None
  */
__weak void HAL_CAN_RxFifo1FullCallback(CAN_HandleTypeDef *hcan)
{
 8003758:	b580      	push	{r7, lr}
 800375a:	b082      	sub	sp, #8
 800375c:	af00      	add	r7, sp, #0
 800375e:	6078      	str	r0, [r7, #4]

  /* NOTE : This function Should not be modified, when the callback is needed,
            the HAL_CAN_RxFifo1FullCallback could be implemented in the user
            file
   */
}
 8003760:	46c0      	nop			; (mov r8, r8)
 8003762:	46bd      	mov	sp, r7
 8003764:	b002      	add	sp, #8
 8003766:	bd80      	pop	{r7, pc}

08003768 <HAL_CAN_SleepCallback>:
  * @param  hcan pointer to a CAN_HandleTypeDef structure that contains
  *         the configuration information for the specified CAN.
  * @retval None
  */
__weak void HAL_CAN_SleepCallback(CAN_HandleTypeDef *hcan)
{
 8003768:	b580      	push	{r7, lr}
 800376a:	b082      	sub	sp, #8
 800376c:	af00      	add	r7, sp, #0
 800376e:	6078      	str	r0, [r7, #4]
  UNUSED(hcan);

  /* NOTE : This function Should not be modified, when the callback is needed,
            the HAL_CAN_SleepCallback could be implemented in the user file
   */
}
 8003770:	46c0      	nop			; (mov r8, r8)
 8003772:	46bd      	mov	sp, r7
 8003774:	b002      	add	sp, #8
 8003776:	bd80      	pop	{r7, pc}

08003778 <HAL_CAN_WakeUpFromRxMsgCallback>:
  * @param  hcan pointer to a CAN_HandleTypeDef structure that contains
  *         the configuration information for the specified CAN.
  * @retval None
  */
__weak void HAL_CAN_WakeUpFromRxMsgCallback(CAN_HandleTypeDef *hcan)
{
 8003778:	b580      	push	{r7, lr}
 800377a:	b082      	sub	sp, #8
 800377c:	af00      	add	r7, sp, #0
 800377e:	6078      	str	r0, [r7, #4]

  /* NOTE : This function Should not be modified, when the callback is needed,
            the HAL_CAN_WakeUpFromRxMsgCallback could be implemented in the
            user file
   */
}
 8003780:	46c0      	nop			; (mov r8, r8)
 8003782:	46bd      	mov	sp, r7
 8003784:	b002      	add	sp, #8
 8003786:	bd80      	pop	{r7, pc}

08003788 <HAL_CAN_ErrorCallback>:
  * @param  hcan pointer to a CAN_HandleTypeDef structure that contains
  *         the configuration information for the specified CAN.
  * @retval None
  */
__weak void HAL_CAN_ErrorCallback(CAN_HandleTypeDef *hcan)
{
 8003788:	b580      	push	{r7, lr}
 800378a:	b082      	sub	sp, #8
 800378c:	af00      	add	r7, sp, #0
 800378e:	6078      	str	r0, [r7, #4]
  UNUSED(hcan);

  /* NOTE : This function Should not be modified, when the callback is needed,
            the HAL_CAN_ErrorCallback could be implemented in the user file
   */
}
 8003790:	46c0      	nop			; (mov r8, r8)
 8003792:	46bd      	mov	sp, r7
 8003794:	b002      	add	sp, #8
 8003796:	bd80      	pop	{r7, pc}

08003798 <__NVIC_EnableIRQ>:
  \details Enables a device specific interrupt in the NVIC interrupt controller.
  \param [in]      IRQn  Device specific interrupt number.
  \note    IRQn must not be negative.
 */
__STATIC_INLINE void __NVIC_EnableIRQ(IRQn_Type IRQn)
{
 8003798:	b580      	push	{r7, lr}
 800379a:	b082      	sub	sp, #8
 800379c:	af00      	add	r7, sp, #0
 800379e:	0002      	movs	r2, r0
 80037a0:	1dfb      	adds	r3, r7, #7
 80037a2:	701a      	strb	r2, [r3, #0]
  if ((int32_t)(IRQn) >= 0)
 80037a4:	1dfb      	adds	r3, r7, #7
 80037a6:	781b      	ldrb	r3, [r3, #0]
 80037a8:	2b7f      	cmp	r3, #127	; 0x7f
 80037aa:	d809      	bhi.n	80037c0 <__NVIC_EnableIRQ+0x28>
  {
    NVIC->ISER[0U] = (uint32_t)(1UL << (((uint32_t)IRQn) & 0x1FUL));
 80037ac:	1dfb      	adds	r3, r7, #7
 80037ae:	781b      	ldrb	r3, [r3, #0]
 80037b0:	001a      	movs	r2, r3
 80037b2:	231f      	movs	r3, #31
 80037b4:	401a      	ands	r2, r3
 80037b6:	4b04      	ldr	r3, [pc, #16]	; (80037c8 <__NVIC_EnableIRQ+0x30>)
 80037b8:	2101      	movs	r1, #1
 80037ba:	4091      	lsls	r1, r2
 80037bc:	000a      	movs	r2, r1
 80037be:	601a      	str	r2, [r3, #0]
  }
}
 80037c0:	46c0      	nop			; (mov r8, r8)
 80037c2:	46bd      	mov	sp, r7
 80037c4:	b002      	add	sp, #8
 80037c6:	bd80      	pop	{r7, pc}
 80037c8:	e000e100 	.word	0xe000e100

080037cc <__NVIC_SetPriority>:
  \param [in]      IRQn  Interrupt number.
  \param [in]  priority  Priority to set.
  \note    The priority cannot be set for every processor exception.
 */
__STATIC_INLINE void __NVIC_SetPriority(IRQn_Type IRQn, uint32_t priority)
{
 80037cc:	b590      	push	{r4, r7, lr}
 80037ce:	b083      	sub	sp, #12
 80037d0:	af00      	add	r7, sp, #0
 80037d2:	0002      	movs	r2, r0
 80037d4:	6039      	str	r1, [r7, #0]
 80037d6:	1dfb      	adds	r3, r7, #7
 80037d8:	701a      	strb	r2, [r3, #0]
  if ((int32_t)(IRQn) >= 0)
 80037da:	1dfb      	adds	r3, r7, #7
 80037dc:	781b      	ldrb	r3, [r3, #0]
 80037de:	2b7f      	cmp	r3, #127	; 0x7f
 80037e0:	d828      	bhi.n	8003834 <__NVIC_SetPriority+0x68>
  {
    NVIC->IP[_IP_IDX(IRQn)]  = ((uint32_t)(NVIC->IP[_IP_IDX(IRQn)]  & ~(0xFFUL << _BIT_SHIFT(IRQn))) |
 80037e2:	4a2f      	ldr	r2, [pc, #188]	; (80038a0 <__NVIC_SetPriority+0xd4>)
 80037e4:	1dfb      	adds	r3, r7, #7
 80037e6:	781b      	ldrb	r3, [r3, #0]
 80037e8:	b25b      	sxtb	r3, r3
 80037ea:	089b      	lsrs	r3, r3, #2
 80037ec:	33c0      	adds	r3, #192	; 0xc0
 80037ee:	009b      	lsls	r3, r3, #2
 80037f0:	589b      	ldr	r3, [r3, r2]
 80037f2:	1dfa      	adds	r2, r7, #7
 80037f4:	7812      	ldrb	r2, [r2, #0]
 80037f6:	0011      	movs	r1, r2
 80037f8:	2203      	movs	r2, #3
 80037fa:	400a      	ands	r2, r1
 80037fc:	00d2      	lsls	r2, r2, #3
 80037fe:	21ff      	movs	r1, #255	; 0xff
 8003800:	4091      	lsls	r1, r2
 8003802:	000a      	movs	r2, r1
 8003804:	43d2      	mvns	r2, r2
 8003806:	401a      	ands	r2, r3
 8003808:	0011      	movs	r1, r2
       (((priority << (8U - __NVIC_PRIO_BITS)) & (uint32_t)0xFFUL) << _BIT_SHIFT(IRQn)));
 800380a:	683b      	ldr	r3, [r7, #0]
 800380c:	019b      	lsls	r3, r3, #6
 800380e:	22ff      	movs	r2, #255	; 0xff
 8003810:	401a      	ands	r2, r3
 8003812:	1dfb      	adds	r3, r7, #7
 8003814:	781b      	ldrb	r3, [r3, #0]
 8003816:	0018      	movs	r0, r3
 8003818:	2303      	movs	r3, #3
 800381a:	4003      	ands	r3, r0
 800381c:	00db      	lsls	r3, r3, #3
 800381e:	409a      	lsls	r2, r3
    NVIC->IP[_IP_IDX(IRQn)]  = ((uint32_t)(NVIC->IP[_IP_IDX(IRQn)]  & ~(0xFFUL << _BIT_SHIFT(IRQn))) |
 8003820:	481f      	ldr	r0, [pc, #124]	; (80038a0 <__NVIC_SetPriority+0xd4>)
 8003822:	1dfb      	adds	r3, r7, #7
 8003824:	781b      	ldrb	r3, [r3, #0]
 8003826:	b25b      	sxtb	r3, r3
 8003828:	089b      	lsrs	r3, r3, #2
 800382a:	430a      	orrs	r2, r1
 800382c:	33c0      	adds	r3, #192	; 0xc0
 800382e:	009b      	lsls	r3, r3, #2
 8003830:	501a      	str	r2, [r3, r0]
  else
  {
    SCB->SHP[_SHP_IDX(IRQn)] = ((uint32_t)(SCB->SHP[_SHP_IDX(IRQn)] & ~(0xFFUL << _BIT_SHIFT(IRQn))) |
       (((priority << (8U - __NVIC_PRIO_BITS)) & (uint32_t)0xFFUL) << _BIT_SHIFT(IRQn)));
  }
}
 8003832:	e031      	b.n	8003898 <__NVIC_SetPriority+0xcc>
    SCB->SHP[_SHP_IDX(IRQn)] = ((uint32_t)(SCB->SHP[_SHP_IDX(IRQn)] & ~(0xFFUL << _BIT_SHIFT(IRQn))) |
 8003834:	4a1b      	ldr	r2, [pc, #108]	; (80038a4 <__NVIC_SetPriority+0xd8>)
 8003836:	1dfb      	adds	r3, r7, #7
 8003838:	781b      	ldrb	r3, [r3, #0]
 800383a:	0019      	movs	r1, r3
 800383c:	230f      	movs	r3, #15
 800383e:	400b      	ands	r3, r1
 8003840:	3b08      	subs	r3, #8
 8003842:	089b      	lsrs	r3, r3, #2
 8003844:	3306      	adds	r3, #6
 8003846:	009b      	lsls	r3, r3, #2
 8003848:	18d3      	adds	r3, r2, r3
 800384a:	3304      	adds	r3, #4
 800384c:	681b      	ldr	r3, [r3, #0]
 800384e:	1dfa      	adds	r2, r7, #7
 8003850:	7812      	ldrb	r2, [r2, #0]
 8003852:	0011      	movs	r1, r2
 8003854:	2203      	movs	r2, #3
 8003856:	400a      	ands	r2, r1
 8003858:	00d2      	lsls	r2, r2, #3
 800385a:	21ff      	movs	r1, #255	; 0xff
 800385c:	4091      	lsls	r1, r2
 800385e:	000a      	movs	r2, r1
 8003860:	43d2      	mvns	r2, r2
 8003862:	401a      	ands	r2, r3
 8003864:	0011      	movs	r1, r2
       (((priority << (8U - __NVIC_PRIO_BITS)) & (uint32_t)0xFFUL) << _BIT_SHIFT(IRQn)));
 8003866:	683b      	ldr	r3, [r7, #0]
 8003868:	019b      	lsls	r3, r3, #6
 800386a:	22ff      	movs	r2, #255	; 0xff
 800386c:	401a      	ands	r2, r3
 800386e:	1dfb      	adds	r3, r7, #7
 8003870:	781b      	ldrb	r3, [r3, #0]
 8003872:	0018      	movs	r0, r3
 8003874:	2303      	movs	r3, #3
 8003876:	4003      	ands	r3, r0
 8003878:	00db      	lsls	r3, r3, #3
 800387a:	409a      	lsls	r2, r3
    SCB->SHP[_SHP_IDX(IRQn)] = ((uint32_t)(SCB->SHP[_SHP_IDX(IRQn)] & ~(0xFFUL << _BIT_SHIFT(IRQn))) |
 800387c:	4809      	ldr	r0, [pc, #36]	; (80038a4 <__NVIC_SetPriority+0xd8>)
 800387e:	1dfb      	adds	r3, r7, #7
 8003880:	781b      	ldrb	r3, [r3, #0]
 8003882:	001c      	movs	r4, r3
 8003884:	230f      	movs	r3, #15
 8003886:	4023      	ands	r3, r4
 8003888:	3b08      	subs	r3, #8
 800388a:	089b      	lsrs	r3, r3, #2
 800388c:	430a      	orrs	r2, r1
 800388e:	3306      	adds	r3, #6
 8003890:	009b      	lsls	r3, r3, #2
 8003892:	18c3      	adds	r3, r0, r3
 8003894:	3304      	adds	r3, #4
 8003896:	601a      	str	r2, [r3, #0]
}
 8003898:	46c0      	nop			; (mov r8, r8)
 800389a:	46bd      	mov	sp, r7
 800389c:	b003      	add	sp, #12
 800389e:	bd90      	pop	{r4, r7, pc}
 80038a0:	e000e100 	.word	0xe000e100
 80038a4:	e000ed00 	.word	0xe000ed00

080038a8 <SysTick_Config>:
  \note    When the variable <b>__Vendor_SysTickConfig</b> is set to 1, then the
           function <b>SysTick_Config</b> is not included. In this case, the file <b><i>device</i>.h</b>
           must contain a vendor-specific implementation of this function.
 */
__STATIC_INLINE uint32_t SysTick_Config(uint32_t ticks)
{
 80038a8:	b580      	push	{r7, lr}
 80038aa:	b082      	sub	sp, #8
 80038ac:	af00      	add	r7, sp, #0
 80038ae:	6078      	str	r0, [r7, #4]
  if ((ticks - 1UL) > SysTick_LOAD_RELOAD_Msk)
 80038b0:	687b      	ldr	r3, [r7, #4]
 80038b2:	1e5a      	subs	r2, r3, #1
 80038b4:	2380      	movs	r3, #128	; 0x80
 80038b6:	045b      	lsls	r3, r3, #17
 80038b8:	429a      	cmp	r2, r3
 80038ba:	d301      	bcc.n	80038c0 <SysTick_Config+0x18>
  {
    return (1UL);                                                   /* Reload value impossible */
 80038bc:	2301      	movs	r3, #1
 80038be:	e010      	b.n	80038e2 <SysTick_Config+0x3a>
  }

  SysTick->LOAD  = (uint32_t)(ticks - 1UL);                         /* set reload register */
 80038c0:	4b0a      	ldr	r3, [pc, #40]	; (80038ec <SysTick_Config+0x44>)
 80038c2:	687a      	ldr	r2, [r7, #4]
 80038c4:	3a01      	subs	r2, #1
 80038c6:	605a      	str	r2, [r3, #4]
  NVIC_SetPriority (SysTick_IRQn, (1UL << __NVIC_PRIO_BITS) - 1UL); /* set Priority for Systick Interrupt */
 80038c8:	2301      	movs	r3, #1
 80038ca:	425b      	negs	r3, r3
 80038cc:	2103      	movs	r1, #3
 80038ce:	0018      	movs	r0, r3
 80038d0:	f7ff ff7c 	bl	80037cc <__NVIC_SetPriority>
  SysTick->VAL   = 0UL;                                             /* Load the SysTick Counter Value */
 80038d4:	4b05      	ldr	r3, [pc, #20]	; (80038ec <SysTick_Config+0x44>)
 80038d6:	2200      	movs	r2, #0
 80038d8:	609a      	str	r2, [r3, #8]
  SysTick->CTRL  = SysTick_CTRL_CLKSOURCE_Msk |
 80038da:	4b04      	ldr	r3, [pc, #16]	; (80038ec <SysTick_Config+0x44>)
 80038dc:	2207      	movs	r2, #7
 80038de:	601a      	str	r2, [r3, #0]
                   SysTick_CTRL_TICKINT_Msk   |
                   SysTick_CTRL_ENABLE_Msk;                         /* Enable SysTick IRQ and SysTick Timer */
  return (0UL);                                                     /* Function successful */
 80038e0:	2300      	movs	r3, #0
}
 80038e2:	0018      	movs	r0, r3
 80038e4:	46bd      	mov	sp, r7
 80038e6:	b002      	add	sp, #8
 80038e8:	bd80      	pop	{r7, pc}
 80038ea:	46c0      	nop			; (mov r8, r8)
 80038ec:	e000e010 	.word	0xe000e010

080038f0 <HAL_NVIC_SetPriority>:
  *         with stm32f0xx devices, this parameter is a dummy value and it is ignored, because 
  *         no subpriority supported in Cortex M0 based products.   
  * @retval None
  */
void HAL_NVIC_SetPriority(IRQn_Type IRQn, uint32_t PreemptPriority, uint32_t SubPriority)
{ 
 80038f0:	b580      	push	{r7, lr}
 80038f2:	b084      	sub	sp, #16
 80038f4:	af00      	add	r7, sp, #0
 80038f6:	60b9      	str	r1, [r7, #8]
 80038f8:	607a      	str	r2, [r7, #4]
 80038fa:	210f      	movs	r1, #15
 80038fc:	187b      	adds	r3, r7, r1
 80038fe:	1c02      	adds	r2, r0, #0
 8003900:	701a      	strb	r2, [r3, #0]
  /* Check the parameters */
  assert_param(IS_NVIC_PREEMPTION_PRIORITY(PreemptPriority));
  NVIC_SetPriority(IRQn,PreemptPriority);
 8003902:	68ba      	ldr	r2, [r7, #8]
 8003904:	187b      	adds	r3, r7, r1
 8003906:	781b      	ldrb	r3, [r3, #0]
 8003908:	b25b      	sxtb	r3, r3
 800390a:	0011      	movs	r1, r2
 800390c:	0018      	movs	r0, r3
 800390e:	f7ff ff5d 	bl	80037cc <__NVIC_SetPriority>
}
 8003912:	46c0      	nop			; (mov r8, r8)
 8003914:	46bd      	mov	sp, r7
 8003916:	b004      	add	sp, #16
 8003918:	bd80      	pop	{r7, pc}

0800391a <HAL_NVIC_EnableIRQ>:
  *         This parameter can be an enumerator of IRQn_Type enumeration
  *         (For the complete STM32 Devices IRQ Channels list, please refer to the appropriate CMSIS device file (stm32f0xxxx.h))
  * @retval None
  */
void HAL_NVIC_EnableIRQ(IRQn_Type IRQn)
{
 800391a:	b580      	push	{r7, lr}
 800391c:	b082      	sub	sp, #8
 800391e:	af00      	add	r7, sp, #0
 8003920:	0002      	movs	r2, r0
 8003922:	1dfb      	adds	r3, r7, #7
 8003924:	701a      	strb	r2, [r3, #0]
  /* Check the parameters */
  assert_param(IS_NVIC_DEVICE_IRQ(IRQn));
  
  /* Enable interrupt */
  NVIC_EnableIRQ(IRQn);
 8003926:	1dfb      	adds	r3, r7, #7
 8003928:	781b      	ldrb	r3, [r3, #0]
 800392a:	b25b      	sxtb	r3, r3
 800392c:	0018      	movs	r0, r3
 800392e:	f7ff ff33 	bl	8003798 <__NVIC_EnableIRQ>
}
 8003932:	46c0      	nop			; (mov r8, r8)
 8003934:	46bd      	mov	sp, r7
 8003936:	b002      	add	sp, #8
 8003938:	bd80      	pop	{r7, pc}

0800393a <HAL_SYSTICK_Config>:
  * @param  TicksNumb Specifies the ticks Number of ticks between two interrupts.
  * @retval status:  - 0  Function succeeded.
  *                  - 1  Function failed.
  */
uint32_t HAL_SYSTICK_Config(uint32_t TicksNumb)
{
 800393a:	b580      	push	{r7, lr}
 800393c:	b082      	sub	sp, #8
 800393e:	af00      	add	r7, sp, #0
 8003940:	6078      	str	r0, [r7, #4]
   return SysTick_Config(TicksNumb);
 8003942:	687b      	ldr	r3, [r7, #4]
 8003944:	0018      	movs	r0, r3
 8003946:	f7ff ffaf 	bl	80038a8 <SysTick_Config>
 800394a:	0003      	movs	r3, r0
}
 800394c:	0018      	movs	r0, r3
 800394e:	46bd      	mov	sp, r7
 8003950:	b002      	add	sp, #8
 8003952:	bd80      	pop	{r7, pc}

08003954 <HAL_GPIO_Init>:
  * @param  GPIO_Init pointer to a GPIO_InitTypeDef structure that contains
  *         the configuration information for the specified GPIO peripheral.
  * @retval None
  */
void HAL_GPIO_Init(GPIO_TypeDef  *GPIOx, GPIO_InitTypeDef *GPIO_Init)
{
 8003954:	b580      	push	{r7, lr}
 8003956:	b086      	sub	sp, #24
 8003958:	af00      	add	r7, sp, #0
 800395a:	6078      	str	r0, [r7, #4]
 800395c:	6039      	str	r1, [r7, #0]
  uint32_t position = 0x00u;
 800395e:	2300      	movs	r3, #0
 8003960:	617b      	str	r3, [r7, #20]
  assert_param(IS_GPIO_ALL_INSTANCE(GPIOx));
  assert_param(IS_GPIO_PIN(GPIO_Init->Pin));
  assert_param(IS_GPIO_MODE(GPIO_Init->Mode));

  /* Configure the port pins */
  while (((GPIO_Init->Pin) >> position) != 0x00u)
 8003962:	e155      	b.n	8003c10 <HAL_GPIO_Init+0x2bc>
  {
    /* Get current io position */
    iocurrent = (GPIO_Init->Pin) & (1uL << position);
 8003964:	683b      	ldr	r3, [r7, #0]
 8003966:	681b      	ldr	r3, [r3, #0]
 8003968:	2101      	movs	r1, #1
 800396a:	697a      	ldr	r2, [r7, #20]
 800396c:	4091      	lsls	r1, r2
 800396e:	000a      	movs	r2, r1
 8003970:	4013      	ands	r3, r2
 8003972:	60fb      	str	r3, [r7, #12]

    if (iocurrent != 0x00u)
 8003974:	68fb      	ldr	r3, [r7, #12]
 8003976:	2b00      	cmp	r3, #0
 8003978:	d100      	bne.n	800397c <HAL_GPIO_Init+0x28>
 800397a:	e146      	b.n	8003c0a <HAL_GPIO_Init+0x2b6>
    {
      /*--------------------- GPIO Mode Configuration ------------------------*/
      /* In case of Output or Alternate function mode selection */
      if(((GPIO_Init->Mode & GPIO_MODE) == MODE_OUTPUT) ||
 800397c:	683b      	ldr	r3, [r7, #0]
 800397e:	685b      	ldr	r3, [r3, #4]
 8003980:	2203      	movs	r2, #3
 8003982:	4013      	ands	r3, r2
 8003984:	2b01      	cmp	r3, #1
 8003986:	d005      	beq.n	8003994 <HAL_GPIO_Init+0x40>
         ((GPIO_Init->Mode & GPIO_MODE) == MODE_AF))
 8003988:	683b      	ldr	r3, [r7, #0]
 800398a:	685b      	ldr	r3, [r3, #4]
 800398c:	2203      	movs	r2, #3
 800398e:	4013      	ands	r3, r2
      if(((GPIO_Init->Mode & GPIO_MODE) == MODE_OUTPUT) ||
 8003990:	2b02      	cmp	r3, #2
 8003992:	d130      	bne.n	80039f6 <HAL_GPIO_Init+0xa2>
      {
        /* Check the Speed parameter */
        assert_param(IS_GPIO_SPEED(GPIO_Init->Speed));
        /* Configure the IO Speed */
        temp = GPIOx->OSPEEDR;
 8003994:	687b      	ldr	r3, [r7, #4]
 8003996:	689b      	ldr	r3, [r3, #8]
 8003998:	613b      	str	r3, [r7, #16]
        temp &= ~(GPIO_OSPEEDER_OSPEEDR0 << (position * 2u));
 800399a:	697b      	ldr	r3, [r7, #20]
 800399c:	005b      	lsls	r3, r3, #1
 800399e:	2203      	movs	r2, #3
 80039a0:	409a      	lsls	r2, r3
 80039a2:	0013      	movs	r3, r2
 80039a4:	43da      	mvns	r2, r3
 80039a6:	693b      	ldr	r3, [r7, #16]
 80039a8:	4013      	ands	r3, r2
 80039aa:	613b      	str	r3, [r7, #16]
        temp |= (GPIO_Init->Speed << (position * 2u));
 80039ac:	683b      	ldr	r3, [r7, #0]
 80039ae:	68da      	ldr	r2, [r3, #12]
 80039b0:	697b      	ldr	r3, [r7, #20]
 80039b2:	005b      	lsls	r3, r3, #1
 80039b4:	409a      	lsls	r2, r3
 80039b6:	0013      	movs	r3, r2
 80039b8:	693a      	ldr	r2, [r7, #16]
 80039ba:	4313      	orrs	r3, r2
 80039bc:	613b      	str	r3, [r7, #16]
        GPIOx->OSPEEDR = temp;
 80039be:	687b      	ldr	r3, [r7, #4]
 80039c0:	693a      	ldr	r2, [r7, #16]
 80039c2:	609a      	str	r2, [r3, #8]

        /* Configure the IO Output Type */
        temp = GPIOx->OTYPER;
 80039c4:	687b      	ldr	r3, [r7, #4]
 80039c6:	685b      	ldr	r3, [r3, #4]
 80039c8:	613b      	str	r3, [r7, #16]
        temp &= ~(GPIO_OTYPER_OT_0 << position) ;
 80039ca:	2201      	movs	r2, #1
 80039cc:	697b      	ldr	r3, [r7, #20]
 80039ce:	409a      	lsls	r2, r3
 80039d0:	0013      	movs	r3, r2
 80039d2:	43da      	mvns	r2, r3
 80039d4:	693b      	ldr	r3, [r7, #16]
 80039d6:	4013      	ands	r3, r2
 80039d8:	613b      	str	r3, [r7, #16]
        temp |= (((GPIO_Init->Mode & OUTPUT_TYPE) >> OUTPUT_TYPE_Pos) << position);
 80039da:	683b      	ldr	r3, [r7, #0]
 80039dc:	685b      	ldr	r3, [r3, #4]
 80039de:	091b      	lsrs	r3, r3, #4
 80039e0:	2201      	movs	r2, #1
 80039e2:	401a      	ands	r2, r3
 80039e4:	697b      	ldr	r3, [r7, #20]
 80039e6:	409a      	lsls	r2, r3
 80039e8:	0013      	movs	r3, r2
 80039ea:	693a      	ldr	r2, [r7, #16]
 80039ec:	4313      	orrs	r3, r2
 80039ee:	613b      	str	r3, [r7, #16]
        GPIOx->OTYPER = temp;
 80039f0:	687b      	ldr	r3, [r7, #4]
 80039f2:	693a      	ldr	r2, [r7, #16]
 80039f4:	605a      	str	r2, [r3, #4]
      }
      
      if((GPIO_Init->Mode & GPIO_MODE) != MODE_ANALOG)
 80039f6:	683b      	ldr	r3, [r7, #0]
 80039f8:	685b      	ldr	r3, [r3, #4]
 80039fa:	2203      	movs	r2, #3
 80039fc:	4013      	ands	r3, r2
 80039fe:	2b03      	cmp	r3, #3
 8003a00:	d017      	beq.n	8003a32 <HAL_GPIO_Init+0xde>
      {
        /* Check the Pull parameter */
        assert_param(IS_GPIO_PULL(GPIO_Init->Pull));

        /* Activate the Pull-up or Pull down resistor for the current IO */
        temp = GPIOx->PUPDR;
 8003a02:	687b      	ldr	r3, [r7, #4]
 8003a04:	68db      	ldr	r3, [r3, #12]
 8003a06:	613b      	str	r3, [r7, #16]
        temp &= ~(GPIO_PUPDR_PUPDR0 << (position * 2u));
 8003a08:	697b      	ldr	r3, [r7, #20]
 8003a0a:	005b      	lsls	r3, r3, #1
 8003a0c:	2203      	movs	r2, #3
 8003a0e:	409a      	lsls	r2, r3
 8003a10:	0013      	movs	r3, r2
 8003a12:	43da      	mvns	r2, r3
 8003a14:	693b      	ldr	r3, [r7, #16]
 8003a16:	4013      	ands	r3, r2
 8003a18:	613b      	str	r3, [r7, #16]
        temp |= ((GPIO_Init->Pull) << (position * 2u));
 8003a1a:	683b      	ldr	r3, [r7, #0]
 8003a1c:	689a      	ldr	r2, [r3, #8]
 8003a1e:	697b      	ldr	r3, [r7, #20]
 8003a20:	005b      	lsls	r3, r3, #1
 8003a22:	409a      	lsls	r2, r3
 8003a24:	0013      	movs	r3, r2
 8003a26:	693a      	ldr	r2, [r7, #16]
 8003a28:	4313      	orrs	r3, r2
 8003a2a:	613b      	str	r3, [r7, #16]
        GPIOx->PUPDR = temp;
 8003a2c:	687b      	ldr	r3, [r7, #4]
 8003a2e:	693a      	ldr	r2, [r7, #16]
 8003a30:	60da      	str	r2, [r3, #12]
      }

      /* In case of Alternate function mode selection */
      if((GPIO_Init->Mode & GPIO_MODE) == MODE_AF)
 8003a32:	683b      	ldr	r3, [r7, #0]
 8003a34:	685b      	ldr	r3, [r3, #4]
 8003a36:	2203      	movs	r2, #3
 8003a38:	4013      	ands	r3, r2
 8003a3a:	2b02      	cmp	r3, #2
 8003a3c:	d123      	bne.n	8003a86 <HAL_GPIO_Init+0x132>
        /* Check the Alternate function parameters */
        assert_param(IS_GPIO_AF_INSTANCE(GPIOx));
        assert_param(IS_GPIO_AF(GPIO_Init->Alternate));

        /* Configure Alternate function mapped with the current IO */
        temp = GPIOx->AFR[position >> 3u];
 8003a3e:	697b      	ldr	r3, [r7, #20]
 8003a40:	08da      	lsrs	r2, r3, #3
 8003a42:	687b      	ldr	r3, [r7, #4]
 8003a44:	3208      	adds	r2, #8
 8003a46:	0092      	lsls	r2, r2, #2
 8003a48:	58d3      	ldr	r3, [r2, r3]
 8003a4a:	613b      	str	r3, [r7, #16]
        temp &= ~(0xFu << ((position & 0x07u) * 4u));
 8003a4c:	697b      	ldr	r3, [r7, #20]
 8003a4e:	2207      	movs	r2, #7
 8003a50:	4013      	ands	r3, r2
 8003a52:	009b      	lsls	r3, r3, #2
 8003a54:	220f      	movs	r2, #15
 8003a56:	409a      	lsls	r2, r3
 8003a58:	0013      	movs	r3, r2
 8003a5a:	43da      	mvns	r2, r3
 8003a5c:	693b      	ldr	r3, [r7, #16]
 8003a5e:	4013      	ands	r3, r2
 8003a60:	613b      	str	r3, [r7, #16]
        temp |= ((GPIO_Init->Alternate) << ((position & 0x07u) * 4u));
 8003a62:	683b      	ldr	r3, [r7, #0]
 8003a64:	691a      	ldr	r2, [r3, #16]
 8003a66:	697b      	ldr	r3, [r7, #20]
 8003a68:	2107      	movs	r1, #7
 8003a6a:	400b      	ands	r3, r1
 8003a6c:	009b      	lsls	r3, r3, #2
 8003a6e:	409a      	lsls	r2, r3
 8003a70:	0013      	movs	r3, r2
 8003a72:	693a      	ldr	r2, [r7, #16]
 8003a74:	4313      	orrs	r3, r2
 8003a76:	613b      	str	r3, [r7, #16]
        GPIOx->AFR[position >> 3u] = temp;
 8003a78:	697b      	ldr	r3, [r7, #20]
 8003a7a:	08da      	lsrs	r2, r3, #3
 8003a7c:	687b      	ldr	r3, [r7, #4]
 8003a7e:	3208      	adds	r2, #8
 8003a80:	0092      	lsls	r2, r2, #2
 8003a82:	6939      	ldr	r1, [r7, #16]
 8003a84:	50d1      	str	r1, [r2, r3]
      }

      /* Configure IO Direction mode (Input, Output, Alternate or Analog) */
      temp = GPIOx->MODER;
 8003a86:	687b      	ldr	r3, [r7, #4]
 8003a88:	681b      	ldr	r3, [r3, #0]
 8003a8a:	613b      	str	r3, [r7, #16]
      temp &= ~(GPIO_MODER_MODER0 << (position * 2u));
 8003a8c:	697b      	ldr	r3, [r7, #20]
 8003a8e:	005b      	lsls	r3, r3, #1
 8003a90:	2203      	movs	r2, #3
 8003a92:	409a      	lsls	r2, r3
 8003a94:	0013      	movs	r3, r2
 8003a96:	43da      	mvns	r2, r3
 8003a98:	693b      	ldr	r3, [r7, #16]
 8003a9a:	4013      	ands	r3, r2
 8003a9c:	613b      	str	r3, [r7, #16]
      temp |= ((GPIO_Init->Mode & GPIO_MODE) << (position * 2u));
 8003a9e:	683b      	ldr	r3, [r7, #0]
 8003aa0:	685b      	ldr	r3, [r3, #4]
 8003aa2:	2203      	movs	r2, #3
 8003aa4:	401a      	ands	r2, r3
 8003aa6:	697b      	ldr	r3, [r7, #20]
 8003aa8:	005b      	lsls	r3, r3, #1
 8003aaa:	409a      	lsls	r2, r3
 8003aac:	0013      	movs	r3, r2
 8003aae:	693a      	ldr	r2, [r7, #16]
 8003ab0:	4313      	orrs	r3, r2
 8003ab2:	613b      	str	r3, [r7, #16]
      GPIOx->MODER = temp;
 8003ab4:	687b      	ldr	r3, [r7, #4]
 8003ab6:	693a      	ldr	r2, [r7, #16]
 8003ab8:	601a      	str	r2, [r3, #0]

      /*--------------------- EXTI Mode Configuration ------------------------*/
      /* Configure the External Interrupt or event for the current IO */
      if((GPIO_Init->Mode & EXTI_MODE) != 0x00u)
 8003aba:	683b      	ldr	r3, [r7, #0]
 8003abc:	685a      	ldr	r2, [r3, #4]
 8003abe:	23c0      	movs	r3, #192	; 0xc0
 8003ac0:	029b      	lsls	r3, r3, #10
 8003ac2:	4013      	ands	r3, r2
 8003ac4:	d100      	bne.n	8003ac8 <HAL_GPIO_Init+0x174>
 8003ac6:	e0a0      	b.n	8003c0a <HAL_GPIO_Init+0x2b6>
      {
        /* Enable SYSCFG Clock */
        __HAL_RCC_SYSCFG_CLK_ENABLE();
 8003ac8:	4b57      	ldr	r3, [pc, #348]	; (8003c28 <HAL_GPIO_Init+0x2d4>)
 8003aca:	699a      	ldr	r2, [r3, #24]
 8003acc:	4b56      	ldr	r3, [pc, #344]	; (8003c28 <HAL_GPIO_Init+0x2d4>)
 8003ace:	2101      	movs	r1, #1
 8003ad0:	430a      	orrs	r2, r1
 8003ad2:	619a      	str	r2, [r3, #24]
 8003ad4:	4b54      	ldr	r3, [pc, #336]	; (8003c28 <HAL_GPIO_Init+0x2d4>)
 8003ad6:	699b      	ldr	r3, [r3, #24]
 8003ad8:	2201      	movs	r2, #1
 8003ada:	4013      	ands	r3, r2
 8003adc:	60bb      	str	r3, [r7, #8]
 8003ade:	68bb      	ldr	r3, [r7, #8]

        temp = SYSCFG->EXTICR[position >> 2u];
 8003ae0:	4a52      	ldr	r2, [pc, #328]	; (8003c2c <HAL_GPIO_Init+0x2d8>)
 8003ae2:	697b      	ldr	r3, [r7, #20]
 8003ae4:	089b      	lsrs	r3, r3, #2
 8003ae6:	3302      	adds	r3, #2
 8003ae8:	009b      	lsls	r3, r3, #2
 8003aea:	589b      	ldr	r3, [r3, r2]
 8003aec:	613b      	str	r3, [r7, #16]
        temp &= ~(0x0FuL << (4u * (position & 0x03u)));
 8003aee:	697b      	ldr	r3, [r7, #20]
 8003af0:	2203      	movs	r2, #3
 8003af2:	4013      	ands	r3, r2
 8003af4:	009b      	lsls	r3, r3, #2
 8003af6:	220f      	movs	r2, #15
 8003af8:	409a      	lsls	r2, r3
 8003afa:	0013      	movs	r3, r2
 8003afc:	43da      	mvns	r2, r3
 8003afe:	693b      	ldr	r3, [r7, #16]
 8003b00:	4013      	ands	r3, r2
 8003b02:	613b      	str	r3, [r7, #16]
        temp |= (GPIO_GET_INDEX(GPIOx) << (4u * (position & 0x03u)));
 8003b04:	687a      	ldr	r2, [r7, #4]
 8003b06:	2390      	movs	r3, #144	; 0x90
 8003b08:	05db      	lsls	r3, r3, #23
 8003b0a:	429a      	cmp	r2, r3
 8003b0c:	d019      	beq.n	8003b42 <HAL_GPIO_Init+0x1ee>
 8003b0e:	687b      	ldr	r3, [r7, #4]
 8003b10:	4a47      	ldr	r2, [pc, #284]	; (8003c30 <HAL_GPIO_Init+0x2dc>)
 8003b12:	4293      	cmp	r3, r2
 8003b14:	d013      	beq.n	8003b3e <HAL_GPIO_Init+0x1ea>
 8003b16:	687b      	ldr	r3, [r7, #4]
 8003b18:	4a46      	ldr	r2, [pc, #280]	; (8003c34 <HAL_GPIO_Init+0x2e0>)
 8003b1a:	4293      	cmp	r3, r2
 8003b1c:	d00d      	beq.n	8003b3a <HAL_GPIO_Init+0x1e6>
 8003b1e:	687b      	ldr	r3, [r7, #4]
 8003b20:	4a45      	ldr	r2, [pc, #276]	; (8003c38 <HAL_GPIO_Init+0x2e4>)
 8003b22:	4293      	cmp	r3, r2
 8003b24:	d007      	beq.n	8003b36 <HAL_GPIO_Init+0x1e2>
 8003b26:	687b      	ldr	r3, [r7, #4]
 8003b28:	4a44      	ldr	r2, [pc, #272]	; (8003c3c <HAL_GPIO_Init+0x2e8>)
 8003b2a:	4293      	cmp	r3, r2
 8003b2c:	d101      	bne.n	8003b32 <HAL_GPIO_Init+0x1de>
 8003b2e:	2304      	movs	r3, #4
 8003b30:	e008      	b.n	8003b44 <HAL_GPIO_Init+0x1f0>
 8003b32:	2305      	movs	r3, #5
 8003b34:	e006      	b.n	8003b44 <HAL_GPIO_Init+0x1f0>
 8003b36:	2303      	movs	r3, #3
 8003b38:	e004      	b.n	8003b44 <HAL_GPIO_Init+0x1f0>
 8003b3a:	2302      	movs	r3, #2
 8003b3c:	e002      	b.n	8003b44 <HAL_GPIO_Init+0x1f0>
 8003b3e:	2301      	movs	r3, #1
 8003b40:	e000      	b.n	8003b44 <HAL_GPIO_Init+0x1f0>
 8003b42:	2300      	movs	r3, #0
 8003b44:	697a      	ldr	r2, [r7, #20]
 8003b46:	2103      	movs	r1, #3
 8003b48:	400a      	ands	r2, r1
 8003b4a:	0092      	lsls	r2, r2, #2
 8003b4c:	4093      	lsls	r3, r2
 8003b4e:	693a      	ldr	r2, [r7, #16]
 8003b50:	4313      	orrs	r3, r2
 8003b52:	613b      	str	r3, [r7, #16]
        SYSCFG->EXTICR[position >> 2u] = temp;
 8003b54:	4935      	ldr	r1, [pc, #212]	; (8003c2c <HAL_GPIO_Init+0x2d8>)
 8003b56:	697b      	ldr	r3, [r7, #20]
 8003b58:	089b      	lsrs	r3, r3, #2
 8003b5a:	3302      	adds	r3, #2
 8003b5c:	009b      	lsls	r3, r3, #2
 8003b5e:	693a      	ldr	r2, [r7, #16]
 8003b60:	505a      	str	r2, [r3, r1]

        /* Clear EXTI line configuration */
        temp = EXTI->IMR;
 8003b62:	4b37      	ldr	r3, [pc, #220]	; (8003c40 <HAL_GPIO_Init+0x2ec>)
 8003b64:	681b      	ldr	r3, [r3, #0]
 8003b66:	613b      	str	r3, [r7, #16]
        temp &= ~(iocurrent);
 8003b68:	68fb      	ldr	r3, [r7, #12]
 8003b6a:	43da      	mvns	r2, r3
 8003b6c:	693b      	ldr	r3, [r7, #16]
 8003b6e:	4013      	ands	r3, r2
 8003b70:	613b      	str	r3, [r7, #16]
        if((GPIO_Init->Mode & EXTI_IT) != 0x00u)
 8003b72:	683b      	ldr	r3, [r7, #0]
 8003b74:	685a      	ldr	r2, [r3, #4]
 8003b76:	2380      	movs	r3, #128	; 0x80
 8003b78:	025b      	lsls	r3, r3, #9
 8003b7a:	4013      	ands	r3, r2
 8003b7c:	d003      	beq.n	8003b86 <HAL_GPIO_Init+0x232>
        {
          temp |= iocurrent;
 8003b7e:	693a      	ldr	r2, [r7, #16]
 8003b80:	68fb      	ldr	r3, [r7, #12]
 8003b82:	4313      	orrs	r3, r2
 8003b84:	613b      	str	r3, [r7, #16]
        }
        EXTI->IMR = temp;
 8003b86:	4b2e      	ldr	r3, [pc, #184]	; (8003c40 <HAL_GPIO_Init+0x2ec>)
 8003b88:	693a      	ldr	r2, [r7, #16]
 8003b8a:	601a      	str	r2, [r3, #0]

        temp = EXTI->EMR;
 8003b8c:	4b2c      	ldr	r3, [pc, #176]	; (8003c40 <HAL_GPIO_Init+0x2ec>)
 8003b8e:	685b      	ldr	r3, [r3, #4]
 8003b90:	613b      	str	r3, [r7, #16]
        temp &= ~(iocurrent);
 8003b92:	68fb      	ldr	r3, [r7, #12]
 8003b94:	43da      	mvns	r2, r3
 8003b96:	693b      	ldr	r3, [r7, #16]
 8003b98:	4013      	ands	r3, r2
 8003b9a:	613b      	str	r3, [r7, #16]
        if((GPIO_Init->Mode & EXTI_EVT) != 0x00u)
 8003b9c:	683b      	ldr	r3, [r7, #0]
 8003b9e:	685a      	ldr	r2, [r3, #4]
 8003ba0:	2380      	movs	r3, #128	; 0x80
 8003ba2:	029b      	lsls	r3, r3, #10
 8003ba4:	4013      	ands	r3, r2
 8003ba6:	d003      	beq.n	8003bb0 <HAL_GPIO_Init+0x25c>
        {
          temp |= iocurrent;
 8003ba8:	693a      	ldr	r2, [r7, #16]
 8003baa:	68fb      	ldr	r3, [r7, #12]
 8003bac:	4313      	orrs	r3, r2
 8003bae:	613b      	str	r3, [r7, #16]
        }
        EXTI->EMR = temp;
 8003bb0:	4b23      	ldr	r3, [pc, #140]	; (8003c40 <HAL_GPIO_Init+0x2ec>)
 8003bb2:	693a      	ldr	r2, [r7, #16]
 8003bb4:	605a      	str	r2, [r3, #4]

        /* Clear Rising Falling edge configuration */
        temp = EXTI->RTSR;
 8003bb6:	4b22      	ldr	r3, [pc, #136]	; (8003c40 <HAL_GPIO_Init+0x2ec>)
 8003bb8:	689b      	ldr	r3, [r3, #8]
 8003bba:	613b      	str	r3, [r7, #16]
        temp &= ~(iocurrent);
 8003bbc:	68fb      	ldr	r3, [r7, #12]
 8003bbe:	43da      	mvns	r2, r3
 8003bc0:	693b      	ldr	r3, [r7, #16]
 8003bc2:	4013      	ands	r3, r2
 8003bc4:	613b      	str	r3, [r7, #16]
        if((GPIO_Init->Mode & TRIGGER_RISING) != 0x00u)
 8003bc6:	683b      	ldr	r3, [r7, #0]
 8003bc8:	685a      	ldr	r2, [r3, #4]
 8003bca:	2380      	movs	r3, #128	; 0x80
 8003bcc:	035b      	lsls	r3, r3, #13
 8003bce:	4013      	ands	r3, r2
 8003bd0:	d003      	beq.n	8003bda <HAL_GPIO_Init+0x286>
        {
          temp |= iocurrent;
 8003bd2:	693a      	ldr	r2, [r7, #16]
 8003bd4:	68fb      	ldr	r3, [r7, #12]
 8003bd6:	4313      	orrs	r3, r2
 8003bd8:	613b      	str	r3, [r7, #16]
        }
        EXTI->RTSR = temp;
 8003bda:	4b19      	ldr	r3, [pc, #100]	; (8003c40 <HAL_GPIO_Init+0x2ec>)
 8003bdc:	693a      	ldr	r2, [r7, #16]
 8003bde:	609a      	str	r2, [r3, #8]

        temp = EXTI->FTSR;
 8003be0:	4b17      	ldr	r3, [pc, #92]	; (8003c40 <HAL_GPIO_Init+0x2ec>)
 8003be2:	68db      	ldr	r3, [r3, #12]
 8003be4:	613b      	str	r3, [r7, #16]
        temp &= ~(iocurrent);
 8003be6:	68fb      	ldr	r3, [r7, #12]
 8003be8:	43da      	mvns	r2, r3
 8003bea:	693b      	ldr	r3, [r7, #16]
 8003bec:	4013      	ands	r3, r2
 8003bee:	613b      	str	r3, [r7, #16]
        if((GPIO_Init->Mode & TRIGGER_FALLING) != 0x00u)
 8003bf0:	683b      	ldr	r3, [r7, #0]
 8003bf2:	685a      	ldr	r2, [r3, #4]
 8003bf4:	2380      	movs	r3, #128	; 0x80
 8003bf6:	039b      	lsls	r3, r3, #14
 8003bf8:	4013      	ands	r3, r2
 8003bfa:	d003      	beq.n	8003c04 <HAL_GPIO_Init+0x2b0>
        {
          temp |= iocurrent;
 8003bfc:	693a      	ldr	r2, [r7, #16]
 8003bfe:	68fb      	ldr	r3, [r7, #12]
 8003c00:	4313      	orrs	r3, r2
 8003c02:	613b      	str	r3, [r7, #16]
        }
        EXTI->FTSR = temp;
 8003c04:	4b0e      	ldr	r3, [pc, #56]	; (8003c40 <HAL_GPIO_Init+0x2ec>)
 8003c06:	693a      	ldr	r2, [r7, #16]
 8003c08:	60da      	str	r2, [r3, #12]
      }
    }

    position++;
 8003c0a:	697b      	ldr	r3, [r7, #20]
 8003c0c:	3301      	adds	r3, #1
 8003c0e:	617b      	str	r3, [r7, #20]
  while (((GPIO_Init->Pin) >> position) != 0x00u)
 8003c10:	683b      	ldr	r3, [r7, #0]
 8003c12:	681a      	ldr	r2, [r3, #0]
 8003c14:	697b      	ldr	r3, [r7, #20]
 8003c16:	40da      	lsrs	r2, r3
 8003c18:	1e13      	subs	r3, r2, #0
 8003c1a:	d000      	beq.n	8003c1e <HAL_GPIO_Init+0x2ca>
 8003c1c:	e6a2      	b.n	8003964 <HAL_GPIO_Init+0x10>
  } 
}
 8003c1e:	46c0      	nop			; (mov r8, r8)
 8003c20:	46c0      	nop			; (mov r8, r8)
 8003c22:	46bd      	mov	sp, r7
 8003c24:	b006      	add	sp, #24
 8003c26:	bd80      	pop	{r7, pc}
 8003c28:	40021000 	.word	0x40021000
 8003c2c:	40010000 	.word	0x40010000
 8003c30:	48000400 	.word	0x48000400
 8003c34:	48000800 	.word	0x48000800
 8003c38:	48000c00 	.word	0x48000c00
 8003c3c:	48001000 	.word	0x48001000
 8003c40:	40010400 	.word	0x40010400

08003c44 <HAL_GPIO_WritePin>:
  *            @arg GPIO_PIN_RESET: to clear the port pin
  *            @arg GPIO_PIN_SET: to set the port pin
  * @retval None
  */
void HAL_GPIO_WritePin(GPIO_TypeDef* GPIOx, uint16_t GPIO_Pin, GPIO_PinState PinState)
{
 8003c44:	b580      	push	{r7, lr}
 8003c46:	b082      	sub	sp, #8
 8003c48:	af00      	add	r7, sp, #0
 8003c4a:	6078      	str	r0, [r7, #4]
 8003c4c:	0008      	movs	r0, r1
 8003c4e:	0011      	movs	r1, r2
 8003c50:	1cbb      	adds	r3, r7, #2
 8003c52:	1c02      	adds	r2, r0, #0
 8003c54:	801a      	strh	r2, [r3, #0]
 8003c56:	1c7b      	adds	r3, r7, #1
 8003c58:	1c0a      	adds	r2, r1, #0
 8003c5a:	701a      	strb	r2, [r3, #0]
  /* Check the parameters */
  assert_param(IS_GPIO_PIN(GPIO_Pin));
  assert_param(IS_GPIO_PIN_ACTION(PinState));

  if (PinState != GPIO_PIN_RESET)
 8003c5c:	1c7b      	adds	r3, r7, #1
 8003c5e:	781b      	ldrb	r3, [r3, #0]
 8003c60:	2b00      	cmp	r3, #0
 8003c62:	d004      	beq.n	8003c6e <HAL_GPIO_WritePin+0x2a>
  {
    GPIOx->BSRR = (uint32_t)GPIO_Pin;
 8003c64:	1cbb      	adds	r3, r7, #2
 8003c66:	881a      	ldrh	r2, [r3, #0]
 8003c68:	687b      	ldr	r3, [r7, #4]
 8003c6a:	619a      	str	r2, [r3, #24]
  }
  else
  {
    GPIOx->BRR = (uint32_t)GPIO_Pin;
  }
}
 8003c6c:	e003      	b.n	8003c76 <HAL_GPIO_WritePin+0x32>
    GPIOx->BRR = (uint32_t)GPIO_Pin;
 8003c6e:	1cbb      	adds	r3, r7, #2
 8003c70:	881a      	ldrh	r2, [r3, #0]
 8003c72:	687b      	ldr	r3, [r7, #4]
 8003c74:	629a      	str	r2, [r3, #40]	; 0x28
}
 8003c76:	46c0      	nop			; (mov r8, r8)
 8003c78:	46bd      	mov	sp, r7
 8003c7a:	b002      	add	sp, #8
 8003c7c:	bd80      	pop	{r7, pc}
	...

08003c80 <HAL_GPIO_EXTI_IRQHandler>:
  * @brief  Handle EXTI interrupt request.
  * @param  GPIO_Pin Specifies the port pin connected to corresponding EXTI line.
  * @retval None
  */
void HAL_GPIO_EXTI_IRQHandler(uint16_t GPIO_Pin)
{
 8003c80:	b580      	push	{r7, lr}
 8003c82:	b082      	sub	sp, #8
 8003c84:	af00      	add	r7, sp, #0
 8003c86:	0002      	movs	r2, r0
 8003c88:	1dbb      	adds	r3, r7, #6
 8003c8a:	801a      	strh	r2, [r3, #0]
  /* EXTI line interrupt detected */
  if(__HAL_GPIO_EXTI_GET_IT(GPIO_Pin) != 0x00u)
 8003c8c:	4b09      	ldr	r3, [pc, #36]	; (8003cb4 <HAL_GPIO_EXTI_IRQHandler+0x34>)
 8003c8e:	695b      	ldr	r3, [r3, #20]
 8003c90:	1dba      	adds	r2, r7, #6
 8003c92:	8812      	ldrh	r2, [r2, #0]
 8003c94:	4013      	ands	r3, r2
 8003c96:	d008      	beq.n	8003caa <HAL_GPIO_EXTI_IRQHandler+0x2a>
  { 
    __HAL_GPIO_EXTI_CLEAR_IT(GPIO_Pin);
 8003c98:	4b06      	ldr	r3, [pc, #24]	; (8003cb4 <HAL_GPIO_EXTI_IRQHandler+0x34>)
 8003c9a:	1dba      	adds	r2, r7, #6
 8003c9c:	8812      	ldrh	r2, [r2, #0]
 8003c9e:	615a      	str	r2, [r3, #20]
    HAL_GPIO_EXTI_Callback(GPIO_Pin);
 8003ca0:	1dbb      	adds	r3, r7, #6
 8003ca2:	881b      	ldrh	r3, [r3, #0]
 8003ca4:	0018      	movs	r0, r3
 8003ca6:	f7fe f86b 	bl	8001d80 <HAL_GPIO_EXTI_Callback>
  }
}
 8003caa:	46c0      	nop			; (mov r8, r8)
 8003cac:	46bd      	mov	sp, r7
 8003cae:	b002      	add	sp, #8
 8003cb0:	bd80      	pop	{r7, pc}
 8003cb2:	46c0      	nop			; (mov r8, r8)
 8003cb4:	40010400 	.word	0x40010400

08003cb8 <HAL_RCC_OscConfig>:
  *         supported by this macro. User should request a transition to HSE Off
  *         first and then HSE On or HSE Bypass.
  * @retval HAL status
  */
HAL_StatusTypeDef HAL_RCC_OscConfig(RCC_OscInitTypeDef  *RCC_OscInitStruct)
{
 8003cb8:	b580      	push	{r7, lr}
 8003cba:	b088      	sub	sp, #32
 8003cbc:	af00      	add	r7, sp, #0
 8003cbe:	6078      	str	r0, [r7, #4]
  uint32_t tickstart;
  uint32_t pll_config;
  uint32_t pll_config2;

  /* Check Null pointer */
  if(RCC_OscInitStruct == NULL)
 8003cc0:	687b      	ldr	r3, [r7, #4]
 8003cc2:	2b00      	cmp	r3, #0
 8003cc4:	d102      	bne.n	8003ccc <HAL_RCC_OscConfig+0x14>
  {
    return HAL_ERROR;
 8003cc6:	2301      	movs	r3, #1
 8003cc8:	f000 fb76 	bl	80043b8 <HAL_RCC_OscConfig+0x700>

  /* Check the parameters */
  assert_param(IS_RCC_OSCILLATORTYPE(RCC_OscInitStruct->OscillatorType));

  /*------------------------------- HSE Configuration ------------------------*/ 
  if(((RCC_OscInitStruct->OscillatorType) & RCC_OSCILLATORTYPE_HSE) == RCC_OSCILLATORTYPE_HSE)
 8003ccc:	687b      	ldr	r3, [r7, #4]
 8003cce:	681b      	ldr	r3, [r3, #0]
 8003cd0:	2201      	movs	r2, #1
 8003cd2:	4013      	ands	r3, r2
 8003cd4:	d100      	bne.n	8003cd8 <HAL_RCC_OscConfig+0x20>
 8003cd6:	e08e      	b.n	8003df6 <HAL_RCC_OscConfig+0x13e>
  {
    /* Check the parameters */
    assert_param(IS_RCC_HSE(RCC_OscInitStruct->HSEState));

    /* When the HSE is used as system clock or clock source for PLL in these cases it is not allowed to be disabled */
    if((__HAL_RCC_GET_SYSCLK_SOURCE() == RCC_SYSCLKSOURCE_STATUS_HSE) 
 8003cd8:	4bc5      	ldr	r3, [pc, #788]	; (8003ff0 <HAL_RCC_OscConfig+0x338>)
 8003cda:	685b      	ldr	r3, [r3, #4]
 8003cdc:	220c      	movs	r2, #12
 8003cde:	4013      	ands	r3, r2
 8003ce0:	2b04      	cmp	r3, #4
 8003ce2:	d00e      	beq.n	8003d02 <HAL_RCC_OscConfig+0x4a>
       || ((__HAL_RCC_GET_SYSCLK_SOURCE() == RCC_SYSCLKSOURCE_STATUS_PLLCLK) && (__HAL_RCC_GET_PLL_OSCSOURCE() == RCC_PLLSOURCE_HSE)))
 8003ce4:	4bc2      	ldr	r3, [pc, #776]	; (8003ff0 <HAL_RCC_OscConfig+0x338>)
 8003ce6:	685b      	ldr	r3, [r3, #4]
 8003ce8:	220c      	movs	r2, #12
 8003cea:	4013      	ands	r3, r2
 8003cec:	2b08      	cmp	r3, #8
 8003cee:	d117      	bne.n	8003d20 <HAL_RCC_OscConfig+0x68>
 8003cf0:	4bbf      	ldr	r3, [pc, #764]	; (8003ff0 <HAL_RCC_OscConfig+0x338>)
 8003cf2:	685a      	ldr	r2, [r3, #4]
 8003cf4:	23c0      	movs	r3, #192	; 0xc0
 8003cf6:	025b      	lsls	r3, r3, #9
 8003cf8:	401a      	ands	r2, r3
 8003cfa:	2380      	movs	r3, #128	; 0x80
 8003cfc:	025b      	lsls	r3, r3, #9
 8003cfe:	429a      	cmp	r2, r3
 8003d00:	d10e      	bne.n	8003d20 <HAL_RCC_OscConfig+0x68>
    {
      if((__HAL_RCC_GET_FLAG(RCC_FLAG_HSERDY) != RESET) && (RCC_OscInitStruct->HSEState == RCC_HSE_OFF))
 8003d02:	4bbb      	ldr	r3, [pc, #748]	; (8003ff0 <HAL_RCC_OscConfig+0x338>)
 8003d04:	681a      	ldr	r2, [r3, #0]
 8003d06:	2380      	movs	r3, #128	; 0x80
 8003d08:	029b      	lsls	r3, r3, #10
 8003d0a:	4013      	ands	r3, r2
 8003d0c:	d100      	bne.n	8003d10 <HAL_RCC_OscConfig+0x58>
 8003d0e:	e071      	b.n	8003df4 <HAL_RCC_OscConfig+0x13c>
 8003d10:	687b      	ldr	r3, [r7, #4]
 8003d12:	685b      	ldr	r3, [r3, #4]
 8003d14:	2b00      	cmp	r3, #0
 8003d16:	d000      	beq.n	8003d1a <HAL_RCC_OscConfig+0x62>
 8003d18:	e06c      	b.n	8003df4 <HAL_RCC_OscConfig+0x13c>
      {
        return HAL_ERROR;
 8003d1a:	2301      	movs	r3, #1
 8003d1c:	f000 fb4c 	bl	80043b8 <HAL_RCC_OscConfig+0x700>
      }
    }
    else
    {
      /* Set the new HSE configuration ---------------------------------------*/
      __HAL_RCC_HSE_CONFIG(RCC_OscInitStruct->HSEState);
 8003d20:	687b      	ldr	r3, [r7, #4]
 8003d22:	685b      	ldr	r3, [r3, #4]
 8003d24:	2b01      	cmp	r3, #1
 8003d26:	d107      	bne.n	8003d38 <HAL_RCC_OscConfig+0x80>
 8003d28:	4bb1      	ldr	r3, [pc, #708]	; (8003ff0 <HAL_RCC_OscConfig+0x338>)
 8003d2a:	681a      	ldr	r2, [r3, #0]
 8003d2c:	4bb0      	ldr	r3, [pc, #704]	; (8003ff0 <HAL_RCC_OscConfig+0x338>)
 8003d2e:	2180      	movs	r1, #128	; 0x80
 8003d30:	0249      	lsls	r1, r1, #9
 8003d32:	430a      	orrs	r2, r1
 8003d34:	601a      	str	r2, [r3, #0]
 8003d36:	e02f      	b.n	8003d98 <HAL_RCC_OscConfig+0xe0>
 8003d38:	687b      	ldr	r3, [r7, #4]
 8003d3a:	685b      	ldr	r3, [r3, #4]
 8003d3c:	2b00      	cmp	r3, #0
 8003d3e:	d10c      	bne.n	8003d5a <HAL_RCC_OscConfig+0xa2>
 8003d40:	4bab      	ldr	r3, [pc, #684]	; (8003ff0 <HAL_RCC_OscConfig+0x338>)
 8003d42:	681a      	ldr	r2, [r3, #0]
 8003d44:	4baa      	ldr	r3, [pc, #680]	; (8003ff0 <HAL_RCC_OscConfig+0x338>)
 8003d46:	49ab      	ldr	r1, [pc, #684]	; (8003ff4 <HAL_RCC_OscConfig+0x33c>)
 8003d48:	400a      	ands	r2, r1
 8003d4a:	601a      	str	r2, [r3, #0]
 8003d4c:	4ba8      	ldr	r3, [pc, #672]	; (8003ff0 <HAL_RCC_OscConfig+0x338>)
 8003d4e:	681a      	ldr	r2, [r3, #0]
 8003d50:	4ba7      	ldr	r3, [pc, #668]	; (8003ff0 <HAL_RCC_OscConfig+0x338>)
 8003d52:	49a9      	ldr	r1, [pc, #676]	; (8003ff8 <HAL_RCC_OscConfig+0x340>)
 8003d54:	400a      	ands	r2, r1
 8003d56:	601a      	str	r2, [r3, #0]
 8003d58:	e01e      	b.n	8003d98 <HAL_RCC_OscConfig+0xe0>
 8003d5a:	687b      	ldr	r3, [r7, #4]
 8003d5c:	685b      	ldr	r3, [r3, #4]
 8003d5e:	2b05      	cmp	r3, #5
 8003d60:	d10e      	bne.n	8003d80 <HAL_RCC_OscConfig+0xc8>
 8003d62:	4ba3      	ldr	r3, [pc, #652]	; (8003ff0 <HAL_RCC_OscConfig+0x338>)
 8003d64:	681a      	ldr	r2, [r3, #0]
 8003d66:	4ba2      	ldr	r3, [pc, #648]	; (8003ff0 <HAL_RCC_OscConfig+0x338>)
 8003d68:	2180      	movs	r1, #128	; 0x80
 8003d6a:	02c9      	lsls	r1, r1, #11
 8003d6c:	430a      	orrs	r2, r1
 8003d6e:	601a      	str	r2, [r3, #0]
 8003d70:	4b9f      	ldr	r3, [pc, #636]	; (8003ff0 <HAL_RCC_OscConfig+0x338>)
 8003d72:	681a      	ldr	r2, [r3, #0]
 8003d74:	4b9e      	ldr	r3, [pc, #632]	; (8003ff0 <HAL_RCC_OscConfig+0x338>)
 8003d76:	2180      	movs	r1, #128	; 0x80
 8003d78:	0249      	lsls	r1, r1, #9
 8003d7a:	430a      	orrs	r2, r1
 8003d7c:	601a      	str	r2, [r3, #0]
 8003d7e:	e00b      	b.n	8003d98 <HAL_RCC_OscConfig+0xe0>
 8003d80:	4b9b      	ldr	r3, [pc, #620]	; (8003ff0 <HAL_RCC_OscConfig+0x338>)
 8003d82:	681a      	ldr	r2, [r3, #0]
 8003d84:	4b9a      	ldr	r3, [pc, #616]	; (8003ff0 <HAL_RCC_OscConfig+0x338>)
 8003d86:	499b      	ldr	r1, [pc, #620]	; (8003ff4 <HAL_RCC_OscConfig+0x33c>)
 8003d88:	400a      	ands	r2, r1
 8003d8a:	601a      	str	r2, [r3, #0]
 8003d8c:	4b98      	ldr	r3, [pc, #608]	; (8003ff0 <HAL_RCC_OscConfig+0x338>)
 8003d8e:	681a      	ldr	r2, [r3, #0]
 8003d90:	4b97      	ldr	r3, [pc, #604]	; (8003ff0 <HAL_RCC_OscConfig+0x338>)
 8003d92:	4999      	ldr	r1, [pc, #612]	; (8003ff8 <HAL_RCC_OscConfig+0x340>)
 8003d94:	400a      	ands	r2, r1
 8003d96:	601a      	str	r2, [r3, #0]
      

       /* Check the HSE State */
      if(RCC_OscInitStruct->HSEState != RCC_HSE_OFF)
 8003d98:	687b      	ldr	r3, [r7, #4]
 8003d9a:	685b      	ldr	r3, [r3, #4]
 8003d9c:	2b00      	cmp	r3, #0
 8003d9e:	d014      	beq.n	8003dca <HAL_RCC_OscConfig+0x112>
      {
        /* Get Start Tick */
        tickstart = HAL_GetTick();
 8003da0:	f7fe fcee 	bl	8002780 <HAL_GetTick>
 8003da4:	0003      	movs	r3, r0
 8003da6:	61bb      	str	r3, [r7, #24]
        
        /* Wait till HSE is ready */
        while(__HAL_RCC_GET_FLAG(RCC_FLAG_HSERDY) == RESET)
 8003da8:	e008      	b.n	8003dbc <HAL_RCC_OscConfig+0x104>
        {
          if((HAL_GetTick() - tickstart ) > HSE_TIMEOUT_VALUE)
 8003daa:	f7fe fce9 	bl	8002780 <HAL_GetTick>
 8003dae:	0002      	movs	r2, r0
 8003db0:	69bb      	ldr	r3, [r7, #24]
 8003db2:	1ad3      	subs	r3, r2, r3
 8003db4:	2b64      	cmp	r3, #100	; 0x64
 8003db6:	d901      	bls.n	8003dbc <HAL_RCC_OscConfig+0x104>
          {
            return HAL_TIMEOUT;
 8003db8:	2303      	movs	r3, #3
 8003dba:	e2fd      	b.n	80043b8 <HAL_RCC_OscConfig+0x700>
        while(__HAL_RCC_GET_FLAG(RCC_FLAG_HSERDY) == RESET)
 8003dbc:	4b8c      	ldr	r3, [pc, #560]	; (8003ff0 <HAL_RCC_OscConfig+0x338>)
 8003dbe:	681a      	ldr	r2, [r3, #0]
 8003dc0:	2380      	movs	r3, #128	; 0x80
 8003dc2:	029b      	lsls	r3, r3, #10
 8003dc4:	4013      	ands	r3, r2
 8003dc6:	d0f0      	beq.n	8003daa <HAL_RCC_OscConfig+0xf2>
 8003dc8:	e015      	b.n	8003df6 <HAL_RCC_OscConfig+0x13e>
        }
      }
      else
      {
        /* Get Start Tick */
        tickstart = HAL_GetTick();
 8003dca:	f7fe fcd9 	bl	8002780 <HAL_GetTick>
 8003dce:	0003      	movs	r3, r0
 8003dd0:	61bb      	str	r3, [r7, #24]
        
        /* Wait till HSE is disabled */
        while(__HAL_RCC_GET_FLAG(RCC_FLAG_HSERDY) != RESET)
 8003dd2:	e008      	b.n	8003de6 <HAL_RCC_OscConfig+0x12e>
        {
           if((HAL_GetTick() - tickstart ) > HSE_TIMEOUT_VALUE)
 8003dd4:	f7fe fcd4 	bl	8002780 <HAL_GetTick>
 8003dd8:	0002      	movs	r2, r0
 8003dda:	69bb      	ldr	r3, [r7, #24]
 8003ddc:	1ad3      	subs	r3, r2, r3
 8003dde:	2b64      	cmp	r3, #100	; 0x64
 8003de0:	d901      	bls.n	8003de6 <HAL_RCC_OscConfig+0x12e>
          {
            return HAL_TIMEOUT;
 8003de2:	2303      	movs	r3, #3
 8003de4:	e2e8      	b.n	80043b8 <HAL_RCC_OscConfig+0x700>
        while(__HAL_RCC_GET_FLAG(RCC_FLAG_HSERDY) != RESET)
 8003de6:	4b82      	ldr	r3, [pc, #520]	; (8003ff0 <HAL_RCC_OscConfig+0x338>)
 8003de8:	681a      	ldr	r2, [r3, #0]
 8003dea:	2380      	movs	r3, #128	; 0x80
 8003dec:	029b      	lsls	r3, r3, #10
 8003dee:	4013      	ands	r3, r2
 8003df0:	d1f0      	bne.n	8003dd4 <HAL_RCC_OscConfig+0x11c>
 8003df2:	e000      	b.n	8003df6 <HAL_RCC_OscConfig+0x13e>
      if((__HAL_RCC_GET_FLAG(RCC_FLAG_HSERDY) != RESET) && (RCC_OscInitStruct->HSEState == RCC_HSE_OFF))
 8003df4:	46c0      	nop			; (mov r8, r8)
        }
      }
    }
  }
  /*----------------------------- HSI Configuration --------------------------*/ 
  if(((RCC_OscInitStruct->OscillatorType) & RCC_OSCILLATORTYPE_HSI) == RCC_OSCILLATORTYPE_HSI)
 8003df6:	687b      	ldr	r3, [r7, #4]
 8003df8:	681b      	ldr	r3, [r3, #0]
 8003dfa:	2202      	movs	r2, #2
 8003dfc:	4013      	ands	r3, r2
 8003dfe:	d100      	bne.n	8003e02 <HAL_RCC_OscConfig+0x14a>
 8003e00:	e06c      	b.n	8003edc <HAL_RCC_OscConfig+0x224>
    /* Check the parameters */
    assert_param(IS_RCC_HSI(RCC_OscInitStruct->HSIState));
    assert_param(IS_RCC_CALIBRATION_VALUE(RCC_OscInitStruct->HSICalibrationValue));
    
    /* Check if HSI is used as system clock or as PLL source when PLL is selected as system clock */ 
    if((__HAL_RCC_GET_SYSCLK_SOURCE() == RCC_SYSCLKSOURCE_STATUS_HSI) 
 8003e02:	4b7b      	ldr	r3, [pc, #492]	; (8003ff0 <HAL_RCC_OscConfig+0x338>)
 8003e04:	685b      	ldr	r3, [r3, #4]
 8003e06:	220c      	movs	r2, #12
 8003e08:	4013      	ands	r3, r2
 8003e0a:	d00e      	beq.n	8003e2a <HAL_RCC_OscConfig+0x172>
       || ((__HAL_RCC_GET_SYSCLK_SOURCE() == RCC_SYSCLKSOURCE_STATUS_PLLCLK) && (__HAL_RCC_GET_PLL_OSCSOURCE() == RCC_PLLSOURCE_HSI)))
 8003e0c:	4b78      	ldr	r3, [pc, #480]	; (8003ff0 <HAL_RCC_OscConfig+0x338>)
 8003e0e:	685b      	ldr	r3, [r3, #4]
 8003e10:	220c      	movs	r2, #12
 8003e12:	4013      	ands	r3, r2
 8003e14:	2b08      	cmp	r3, #8
 8003e16:	d11f      	bne.n	8003e58 <HAL_RCC_OscConfig+0x1a0>
 8003e18:	4b75      	ldr	r3, [pc, #468]	; (8003ff0 <HAL_RCC_OscConfig+0x338>)
 8003e1a:	685a      	ldr	r2, [r3, #4]
 8003e1c:	23c0      	movs	r3, #192	; 0xc0
 8003e1e:	025b      	lsls	r3, r3, #9
 8003e20:	401a      	ands	r2, r3
 8003e22:	2380      	movs	r3, #128	; 0x80
 8003e24:	021b      	lsls	r3, r3, #8
 8003e26:	429a      	cmp	r2, r3
 8003e28:	d116      	bne.n	8003e58 <HAL_RCC_OscConfig+0x1a0>
    {
      /* When HSI is used as system clock it will not disabled */
      if((__HAL_RCC_GET_FLAG(RCC_FLAG_HSIRDY) != RESET) && (RCC_OscInitStruct->HSIState != RCC_HSI_ON))
 8003e2a:	4b71      	ldr	r3, [pc, #452]	; (8003ff0 <HAL_RCC_OscConfig+0x338>)
 8003e2c:	681b      	ldr	r3, [r3, #0]
 8003e2e:	2202      	movs	r2, #2
 8003e30:	4013      	ands	r3, r2
 8003e32:	d005      	beq.n	8003e40 <HAL_RCC_OscConfig+0x188>
 8003e34:	687b      	ldr	r3, [r7, #4]
 8003e36:	68db      	ldr	r3, [r3, #12]
 8003e38:	2b01      	cmp	r3, #1
 8003e3a:	d001      	beq.n	8003e40 <HAL_RCC_OscConfig+0x188>
      {
        return HAL_ERROR;
 8003e3c:	2301      	movs	r3, #1
 8003e3e:	e2bb      	b.n	80043b8 <HAL_RCC_OscConfig+0x700>
      }
      /* Otherwise, just the calibration is allowed */
      else
      {
        /* Adjusts the Internal High Speed oscillator (HSI) calibration value.*/
        __HAL_RCC_HSI_CALIBRATIONVALUE_ADJUST(RCC_OscInitStruct->HSICalibrationValue);
 8003e40:	4b6b      	ldr	r3, [pc, #428]	; (8003ff0 <HAL_RCC_OscConfig+0x338>)
 8003e42:	681b      	ldr	r3, [r3, #0]
 8003e44:	22f8      	movs	r2, #248	; 0xf8
 8003e46:	4393      	bics	r3, r2
 8003e48:	0019      	movs	r1, r3
 8003e4a:	687b      	ldr	r3, [r7, #4]
 8003e4c:	691b      	ldr	r3, [r3, #16]
 8003e4e:	00da      	lsls	r2, r3, #3
 8003e50:	4b67      	ldr	r3, [pc, #412]	; (8003ff0 <HAL_RCC_OscConfig+0x338>)
 8003e52:	430a      	orrs	r2, r1
 8003e54:	601a      	str	r2, [r3, #0]
      if((__HAL_RCC_GET_FLAG(RCC_FLAG_HSIRDY) != RESET) && (RCC_OscInitStruct->HSIState != RCC_HSI_ON))
 8003e56:	e041      	b.n	8003edc <HAL_RCC_OscConfig+0x224>
      }
    }
    else
    {
      /* Check the HSI State */
      if(RCC_OscInitStruct->HSIState != RCC_HSI_OFF)
 8003e58:	687b      	ldr	r3, [r7, #4]
 8003e5a:	68db      	ldr	r3, [r3, #12]
 8003e5c:	2b00      	cmp	r3, #0
 8003e5e:	d024      	beq.n	8003eaa <HAL_RCC_OscConfig+0x1f2>
      {
       /* Enable the Internal High Speed oscillator (HSI). */
        __HAL_RCC_HSI_ENABLE();
 8003e60:	4b63      	ldr	r3, [pc, #396]	; (8003ff0 <HAL_RCC_OscConfig+0x338>)
 8003e62:	681a      	ldr	r2, [r3, #0]
 8003e64:	4b62      	ldr	r3, [pc, #392]	; (8003ff0 <HAL_RCC_OscConfig+0x338>)
 8003e66:	2101      	movs	r1, #1
 8003e68:	430a      	orrs	r2, r1
 8003e6a:	601a      	str	r2, [r3, #0]
        
        /* Get Start Tick */
        tickstart = HAL_GetTick();
 8003e6c:	f7fe fc88 	bl	8002780 <HAL_GetTick>
 8003e70:	0003      	movs	r3, r0
 8003e72:	61bb      	str	r3, [r7, #24]
        
        /* Wait till HSI is ready */
        while(__HAL_RCC_GET_FLAG(RCC_FLAG_HSIRDY) == RESET)
 8003e74:	e008      	b.n	8003e88 <HAL_RCC_OscConfig+0x1d0>
        {
          if((HAL_GetTick() - tickstart ) > HSI_TIMEOUT_VALUE)
 8003e76:	f7fe fc83 	bl	8002780 <HAL_GetTick>
 8003e7a:	0002      	movs	r2, r0
 8003e7c:	69bb      	ldr	r3, [r7, #24]
 8003e7e:	1ad3      	subs	r3, r2, r3
 8003e80:	2b02      	cmp	r3, #2
 8003e82:	d901      	bls.n	8003e88 <HAL_RCC_OscConfig+0x1d0>
          {
            return HAL_TIMEOUT;
 8003e84:	2303      	movs	r3, #3
 8003e86:	e297      	b.n	80043b8 <HAL_RCC_OscConfig+0x700>
        while(__HAL_RCC_GET_FLAG(RCC_FLAG_HSIRDY) == RESET)
 8003e88:	4b59      	ldr	r3, [pc, #356]	; (8003ff0 <HAL_RCC_OscConfig+0x338>)
 8003e8a:	681b      	ldr	r3, [r3, #0]
 8003e8c:	2202      	movs	r2, #2
 8003e8e:	4013      	ands	r3, r2
 8003e90:	d0f1      	beq.n	8003e76 <HAL_RCC_OscConfig+0x1be>
          }
        }
                
        /* Adjusts the Internal High Speed oscillator (HSI) calibration value.*/
        __HAL_RCC_HSI_CALIBRATIONVALUE_ADJUST(RCC_OscInitStruct->HSICalibrationValue);
 8003e92:	4b57      	ldr	r3, [pc, #348]	; (8003ff0 <HAL_RCC_OscConfig+0x338>)
 8003e94:	681b      	ldr	r3, [r3, #0]
 8003e96:	22f8      	movs	r2, #248	; 0xf8
 8003e98:	4393      	bics	r3, r2
 8003e9a:	0019      	movs	r1, r3
 8003e9c:	687b      	ldr	r3, [r7, #4]
 8003e9e:	691b      	ldr	r3, [r3, #16]
 8003ea0:	00da      	lsls	r2, r3, #3
 8003ea2:	4b53      	ldr	r3, [pc, #332]	; (8003ff0 <HAL_RCC_OscConfig+0x338>)
 8003ea4:	430a      	orrs	r2, r1
 8003ea6:	601a      	str	r2, [r3, #0]
 8003ea8:	e018      	b.n	8003edc <HAL_RCC_OscConfig+0x224>
      }
      else
      {
        /* Disable the Internal High Speed oscillator (HSI). */
        __HAL_RCC_HSI_DISABLE();
 8003eaa:	4b51      	ldr	r3, [pc, #324]	; (8003ff0 <HAL_RCC_OscConfig+0x338>)
 8003eac:	681a      	ldr	r2, [r3, #0]
 8003eae:	4b50      	ldr	r3, [pc, #320]	; (8003ff0 <HAL_RCC_OscConfig+0x338>)
 8003eb0:	2101      	movs	r1, #1
 8003eb2:	438a      	bics	r2, r1
 8003eb4:	601a      	str	r2, [r3, #0]
        
        /* Get Start Tick */
        tickstart = HAL_GetTick();
 8003eb6:	f7fe fc63 	bl	8002780 <HAL_GetTick>
 8003eba:	0003      	movs	r3, r0
 8003ebc:	61bb      	str	r3, [r7, #24]
        
        /* Wait till HSI is disabled */
        while(__HAL_RCC_GET_FLAG(RCC_FLAG_HSIRDY) != RESET)
 8003ebe:	e008      	b.n	8003ed2 <HAL_RCC_OscConfig+0x21a>
        {
          if((HAL_GetTick() - tickstart ) > HSI_TIMEOUT_VALUE)
 8003ec0:	f7fe fc5e 	bl	8002780 <HAL_GetTick>
 8003ec4:	0002      	movs	r2, r0
 8003ec6:	69bb      	ldr	r3, [r7, #24]
 8003ec8:	1ad3      	subs	r3, r2, r3
 8003eca:	2b02      	cmp	r3, #2
 8003ecc:	d901      	bls.n	8003ed2 <HAL_RCC_OscConfig+0x21a>
          {
            return HAL_TIMEOUT;
 8003ece:	2303      	movs	r3, #3
 8003ed0:	e272      	b.n	80043b8 <HAL_RCC_OscConfig+0x700>
        while(__HAL_RCC_GET_FLAG(RCC_FLAG_HSIRDY) != RESET)
 8003ed2:	4b47      	ldr	r3, [pc, #284]	; (8003ff0 <HAL_RCC_OscConfig+0x338>)
 8003ed4:	681b      	ldr	r3, [r3, #0]
 8003ed6:	2202      	movs	r2, #2
 8003ed8:	4013      	ands	r3, r2
 8003eda:	d1f1      	bne.n	8003ec0 <HAL_RCC_OscConfig+0x208>
        }
      }
    }
  }
  /*------------------------------ LSI Configuration -------------------------*/ 
  if(((RCC_OscInitStruct->OscillatorType) & RCC_OSCILLATORTYPE_LSI) == RCC_OSCILLATORTYPE_LSI)
 8003edc:	687b      	ldr	r3, [r7, #4]
 8003ede:	681b      	ldr	r3, [r3, #0]
 8003ee0:	2208      	movs	r2, #8
 8003ee2:	4013      	ands	r3, r2
 8003ee4:	d036      	beq.n	8003f54 <HAL_RCC_OscConfig+0x29c>
  {
    /* Check the parameters */
    assert_param(IS_RCC_LSI(RCC_OscInitStruct->LSIState));
    
    /* Check the LSI State */
    if(RCC_OscInitStruct->LSIState != RCC_LSI_OFF)
 8003ee6:	687b      	ldr	r3, [r7, #4]
 8003ee8:	69db      	ldr	r3, [r3, #28]
 8003eea:	2b00      	cmp	r3, #0
 8003eec:	d019      	beq.n	8003f22 <HAL_RCC_OscConfig+0x26a>
    {
      /* Enable the Internal Low Speed oscillator (LSI). */
      __HAL_RCC_LSI_ENABLE();
 8003eee:	4b40      	ldr	r3, [pc, #256]	; (8003ff0 <HAL_RCC_OscConfig+0x338>)
 8003ef0:	6a5a      	ldr	r2, [r3, #36]	; 0x24
 8003ef2:	4b3f      	ldr	r3, [pc, #252]	; (8003ff0 <HAL_RCC_OscConfig+0x338>)
 8003ef4:	2101      	movs	r1, #1
 8003ef6:	430a      	orrs	r2, r1
 8003ef8:	625a      	str	r2, [r3, #36]	; 0x24
      
      /* Get Start Tick */
      tickstart = HAL_GetTick();
 8003efa:	f7fe fc41 	bl	8002780 <HAL_GetTick>
 8003efe:	0003      	movs	r3, r0
 8003f00:	61bb      	str	r3, [r7, #24]
      
      /* Wait till LSI is ready */  
      while(__HAL_RCC_GET_FLAG(RCC_FLAG_LSIRDY) == RESET)
 8003f02:	e008      	b.n	8003f16 <HAL_RCC_OscConfig+0x25e>
      {
        if((HAL_GetTick() - tickstart ) > LSI_TIMEOUT_VALUE)
 8003f04:	f7fe fc3c 	bl	8002780 <HAL_GetTick>
 8003f08:	0002      	movs	r2, r0
 8003f0a:	69bb      	ldr	r3, [r7, #24]
 8003f0c:	1ad3      	subs	r3, r2, r3
 8003f0e:	2b02      	cmp	r3, #2
 8003f10:	d901      	bls.n	8003f16 <HAL_RCC_OscConfig+0x25e>
        {
          return HAL_TIMEOUT;
 8003f12:	2303      	movs	r3, #3
 8003f14:	e250      	b.n	80043b8 <HAL_RCC_OscConfig+0x700>
      while(__HAL_RCC_GET_FLAG(RCC_FLAG_LSIRDY) == RESET)
 8003f16:	4b36      	ldr	r3, [pc, #216]	; (8003ff0 <HAL_RCC_OscConfig+0x338>)
 8003f18:	6a5b      	ldr	r3, [r3, #36]	; 0x24
 8003f1a:	2202      	movs	r2, #2
 8003f1c:	4013      	ands	r3, r2
 8003f1e:	d0f1      	beq.n	8003f04 <HAL_RCC_OscConfig+0x24c>
 8003f20:	e018      	b.n	8003f54 <HAL_RCC_OscConfig+0x29c>
      }
    }
    else
    {
      /* Disable the Internal Low Speed oscillator (LSI). */
      __HAL_RCC_LSI_DISABLE();
 8003f22:	4b33      	ldr	r3, [pc, #204]	; (8003ff0 <HAL_RCC_OscConfig+0x338>)
 8003f24:	6a5a      	ldr	r2, [r3, #36]	; 0x24
 8003f26:	4b32      	ldr	r3, [pc, #200]	; (8003ff0 <HAL_RCC_OscConfig+0x338>)
 8003f28:	2101      	movs	r1, #1
 8003f2a:	438a      	bics	r2, r1
 8003f2c:	625a      	str	r2, [r3, #36]	; 0x24
      
      /* Get Start Tick */
      tickstart = HAL_GetTick();
 8003f2e:	f7fe fc27 	bl	8002780 <HAL_GetTick>
 8003f32:	0003      	movs	r3, r0
 8003f34:	61bb      	str	r3, [r7, #24]
      
      /* Wait till LSI is disabled */  
      while(__HAL_RCC_GET_FLAG(RCC_FLAG_LSIRDY) != RESET)
 8003f36:	e008      	b.n	8003f4a <HAL_RCC_OscConfig+0x292>
      {
        if((HAL_GetTick() - tickstart ) > LSI_TIMEOUT_VALUE)
 8003f38:	f7fe fc22 	bl	8002780 <HAL_GetTick>
 8003f3c:	0002      	movs	r2, r0
 8003f3e:	69bb      	ldr	r3, [r7, #24]
 8003f40:	1ad3      	subs	r3, r2, r3
 8003f42:	2b02      	cmp	r3, #2
 8003f44:	d901      	bls.n	8003f4a <HAL_RCC_OscConfig+0x292>
        {
          return HAL_TIMEOUT;
 8003f46:	2303      	movs	r3, #3
 8003f48:	e236      	b.n	80043b8 <HAL_RCC_OscConfig+0x700>
      while(__HAL_RCC_GET_FLAG(RCC_FLAG_LSIRDY) != RESET)
 8003f4a:	4b29      	ldr	r3, [pc, #164]	; (8003ff0 <HAL_RCC_OscConfig+0x338>)
 8003f4c:	6a5b      	ldr	r3, [r3, #36]	; 0x24
 8003f4e:	2202      	movs	r2, #2
 8003f50:	4013      	ands	r3, r2
 8003f52:	d1f1      	bne.n	8003f38 <HAL_RCC_OscConfig+0x280>
        }
      }
    }
  }
  /*------------------------------ LSE Configuration -------------------------*/ 
  if(((RCC_OscInitStruct->OscillatorType) & RCC_OSCILLATORTYPE_LSE) == RCC_OSCILLATORTYPE_LSE)
 8003f54:	687b      	ldr	r3, [r7, #4]
 8003f56:	681b      	ldr	r3, [r3, #0]
 8003f58:	2204      	movs	r2, #4
 8003f5a:	4013      	ands	r3, r2
 8003f5c:	d100      	bne.n	8003f60 <HAL_RCC_OscConfig+0x2a8>
 8003f5e:	e0b5      	b.n	80040cc <HAL_RCC_OscConfig+0x414>
  {
    FlagStatus       pwrclkchanged = RESET;
 8003f60:	201f      	movs	r0, #31
 8003f62:	183b      	adds	r3, r7, r0
 8003f64:	2200      	movs	r2, #0
 8003f66:	701a      	strb	r2, [r3, #0]
    /* Check the parameters */
    assert_param(IS_RCC_LSE(RCC_OscInitStruct->LSEState));

    /* Update LSE configuration in Backup Domain control register    */
    /* Requires to enable write access to Backup Domain of necessary */
    if(__HAL_RCC_PWR_IS_CLK_DISABLED())
 8003f68:	4b21      	ldr	r3, [pc, #132]	; (8003ff0 <HAL_RCC_OscConfig+0x338>)
 8003f6a:	69da      	ldr	r2, [r3, #28]
 8003f6c:	2380      	movs	r3, #128	; 0x80
 8003f6e:	055b      	lsls	r3, r3, #21
 8003f70:	4013      	ands	r3, r2
 8003f72:	d110      	bne.n	8003f96 <HAL_RCC_OscConfig+0x2de>
    {
      __HAL_RCC_PWR_CLK_ENABLE();
 8003f74:	4b1e      	ldr	r3, [pc, #120]	; (8003ff0 <HAL_RCC_OscConfig+0x338>)
 8003f76:	69da      	ldr	r2, [r3, #28]
 8003f78:	4b1d      	ldr	r3, [pc, #116]	; (8003ff0 <HAL_RCC_OscConfig+0x338>)
 8003f7a:	2180      	movs	r1, #128	; 0x80
 8003f7c:	0549      	lsls	r1, r1, #21
 8003f7e:	430a      	orrs	r2, r1
 8003f80:	61da      	str	r2, [r3, #28]
 8003f82:	4b1b      	ldr	r3, [pc, #108]	; (8003ff0 <HAL_RCC_OscConfig+0x338>)
 8003f84:	69da      	ldr	r2, [r3, #28]
 8003f86:	2380      	movs	r3, #128	; 0x80
 8003f88:	055b      	lsls	r3, r3, #21
 8003f8a:	4013      	ands	r3, r2
 8003f8c:	60fb      	str	r3, [r7, #12]
 8003f8e:	68fb      	ldr	r3, [r7, #12]
      pwrclkchanged = SET;
 8003f90:	183b      	adds	r3, r7, r0
 8003f92:	2201      	movs	r2, #1
 8003f94:	701a      	strb	r2, [r3, #0]
    }
    
    if(HAL_IS_BIT_CLR(PWR->CR, PWR_CR_DBP))
 8003f96:	4b19      	ldr	r3, [pc, #100]	; (8003ffc <HAL_RCC_OscConfig+0x344>)
 8003f98:	681a      	ldr	r2, [r3, #0]
 8003f9a:	2380      	movs	r3, #128	; 0x80
 8003f9c:	005b      	lsls	r3, r3, #1
 8003f9e:	4013      	ands	r3, r2
 8003fa0:	d11a      	bne.n	8003fd8 <HAL_RCC_OscConfig+0x320>
    {
      /* Enable write access to Backup domain */
      SET_BIT(PWR->CR, PWR_CR_DBP);
 8003fa2:	4b16      	ldr	r3, [pc, #88]	; (8003ffc <HAL_RCC_OscConfig+0x344>)
 8003fa4:	681a      	ldr	r2, [r3, #0]
 8003fa6:	4b15      	ldr	r3, [pc, #84]	; (8003ffc <HAL_RCC_OscConfig+0x344>)
 8003fa8:	2180      	movs	r1, #128	; 0x80
 8003faa:	0049      	lsls	r1, r1, #1
 8003fac:	430a      	orrs	r2, r1
 8003fae:	601a      	str	r2, [r3, #0]
      
      /* Wait for Backup domain Write protection disable */
      tickstart = HAL_GetTick();
 8003fb0:	f7fe fbe6 	bl	8002780 <HAL_GetTick>
 8003fb4:	0003      	movs	r3, r0
 8003fb6:	61bb      	str	r3, [r7, #24]

      while(HAL_IS_BIT_CLR(PWR->CR, PWR_CR_DBP))
 8003fb8:	e008      	b.n	8003fcc <HAL_RCC_OscConfig+0x314>
      {
        if((HAL_GetTick() - tickstart) > RCC_DBP_TIMEOUT_VALUE)
 8003fba:	f7fe fbe1 	bl	8002780 <HAL_GetTick>
 8003fbe:	0002      	movs	r2, r0
 8003fc0:	69bb      	ldr	r3, [r7, #24]
 8003fc2:	1ad3      	subs	r3, r2, r3
 8003fc4:	2b64      	cmp	r3, #100	; 0x64
 8003fc6:	d901      	bls.n	8003fcc <HAL_RCC_OscConfig+0x314>
        {
          return HAL_TIMEOUT;
 8003fc8:	2303      	movs	r3, #3
 8003fca:	e1f5      	b.n	80043b8 <HAL_RCC_OscConfig+0x700>
      while(HAL_IS_BIT_CLR(PWR->CR, PWR_CR_DBP))
 8003fcc:	4b0b      	ldr	r3, [pc, #44]	; (8003ffc <HAL_RCC_OscConfig+0x344>)
 8003fce:	681a      	ldr	r2, [r3, #0]
 8003fd0:	2380      	movs	r3, #128	; 0x80
 8003fd2:	005b      	lsls	r3, r3, #1
 8003fd4:	4013      	ands	r3, r2
 8003fd6:	d0f0      	beq.n	8003fba <HAL_RCC_OscConfig+0x302>
        }
      }
    }

    /* Set the new LSE configuration -----------------------------------------*/
    __HAL_RCC_LSE_CONFIG(RCC_OscInitStruct->LSEState);
 8003fd8:	687b      	ldr	r3, [r7, #4]
 8003fda:	689b      	ldr	r3, [r3, #8]
 8003fdc:	2b01      	cmp	r3, #1
 8003fde:	d10f      	bne.n	8004000 <HAL_RCC_OscConfig+0x348>
 8003fe0:	4b03      	ldr	r3, [pc, #12]	; (8003ff0 <HAL_RCC_OscConfig+0x338>)
 8003fe2:	6a1a      	ldr	r2, [r3, #32]
 8003fe4:	4b02      	ldr	r3, [pc, #8]	; (8003ff0 <HAL_RCC_OscConfig+0x338>)
 8003fe6:	2101      	movs	r1, #1
 8003fe8:	430a      	orrs	r2, r1
 8003fea:	621a      	str	r2, [r3, #32]
 8003fec:	e036      	b.n	800405c <HAL_RCC_OscConfig+0x3a4>
 8003fee:	46c0      	nop			; (mov r8, r8)
 8003ff0:	40021000 	.word	0x40021000
 8003ff4:	fffeffff 	.word	0xfffeffff
 8003ff8:	fffbffff 	.word	0xfffbffff
 8003ffc:	40007000 	.word	0x40007000
 8004000:	687b      	ldr	r3, [r7, #4]
 8004002:	689b      	ldr	r3, [r3, #8]
 8004004:	2b00      	cmp	r3, #0
 8004006:	d10c      	bne.n	8004022 <HAL_RCC_OscConfig+0x36a>
 8004008:	4bca      	ldr	r3, [pc, #808]	; (8004334 <HAL_RCC_OscConfig+0x67c>)
 800400a:	6a1a      	ldr	r2, [r3, #32]
 800400c:	4bc9      	ldr	r3, [pc, #804]	; (8004334 <HAL_RCC_OscConfig+0x67c>)
 800400e:	2101      	movs	r1, #1
 8004010:	438a      	bics	r2, r1
 8004012:	621a      	str	r2, [r3, #32]
 8004014:	4bc7      	ldr	r3, [pc, #796]	; (8004334 <HAL_RCC_OscConfig+0x67c>)
 8004016:	6a1a      	ldr	r2, [r3, #32]
 8004018:	4bc6      	ldr	r3, [pc, #792]	; (8004334 <HAL_RCC_OscConfig+0x67c>)
 800401a:	2104      	movs	r1, #4
 800401c:	438a      	bics	r2, r1
 800401e:	621a      	str	r2, [r3, #32]
 8004020:	e01c      	b.n	800405c <HAL_RCC_OscConfig+0x3a4>
 8004022:	687b      	ldr	r3, [r7, #4]
 8004024:	689b      	ldr	r3, [r3, #8]
 8004026:	2b05      	cmp	r3, #5
 8004028:	d10c      	bne.n	8004044 <HAL_RCC_OscConfig+0x38c>
 800402a:	4bc2      	ldr	r3, [pc, #776]	; (8004334 <HAL_RCC_OscConfig+0x67c>)
 800402c:	6a1a      	ldr	r2, [r3, #32]
 800402e:	4bc1      	ldr	r3, [pc, #772]	; (8004334 <HAL_RCC_OscConfig+0x67c>)
 8004030:	2104      	movs	r1, #4
 8004032:	430a      	orrs	r2, r1
 8004034:	621a      	str	r2, [r3, #32]
 8004036:	4bbf      	ldr	r3, [pc, #764]	; (8004334 <HAL_RCC_OscConfig+0x67c>)
 8004038:	6a1a      	ldr	r2, [r3, #32]
 800403a:	4bbe      	ldr	r3, [pc, #760]	; (8004334 <HAL_RCC_OscConfig+0x67c>)
 800403c:	2101      	movs	r1, #1
 800403e:	430a      	orrs	r2, r1
 8004040:	621a      	str	r2, [r3, #32]
 8004042:	e00b      	b.n	800405c <HAL_RCC_OscConfig+0x3a4>
 8004044:	4bbb      	ldr	r3, [pc, #748]	; (8004334 <HAL_RCC_OscConfig+0x67c>)
 8004046:	6a1a      	ldr	r2, [r3, #32]
 8004048:	4bba      	ldr	r3, [pc, #744]	; (8004334 <HAL_RCC_OscConfig+0x67c>)
 800404a:	2101      	movs	r1, #1
 800404c:	438a      	bics	r2, r1
 800404e:	621a      	str	r2, [r3, #32]
 8004050:	4bb8      	ldr	r3, [pc, #736]	; (8004334 <HAL_RCC_OscConfig+0x67c>)
 8004052:	6a1a      	ldr	r2, [r3, #32]
 8004054:	4bb7      	ldr	r3, [pc, #732]	; (8004334 <HAL_RCC_OscConfig+0x67c>)
 8004056:	2104      	movs	r1, #4
 8004058:	438a      	bics	r2, r1
 800405a:	621a      	str	r2, [r3, #32]
    /* Check the LSE State */
    if(RCC_OscInitStruct->LSEState != RCC_LSE_OFF)
 800405c:	687b      	ldr	r3, [r7, #4]
 800405e:	689b      	ldr	r3, [r3, #8]
 8004060:	2b00      	cmp	r3, #0
 8004062:	d014      	beq.n	800408e <HAL_RCC_OscConfig+0x3d6>
    {
      /* Get Start Tick */
      tickstart = HAL_GetTick();
 8004064:	f7fe fb8c 	bl	8002780 <HAL_GetTick>
 8004068:	0003      	movs	r3, r0
 800406a:	61bb      	str	r3, [r7, #24]
      
      /* Wait till LSE is ready */  
      while(__HAL_RCC_GET_FLAG(RCC_FLAG_LSERDY) == RESET)
 800406c:	e009      	b.n	8004082 <HAL_RCC_OscConfig+0x3ca>
      {
        if((HAL_GetTick() - tickstart ) > RCC_LSE_TIMEOUT_VALUE)
 800406e:	f7fe fb87 	bl	8002780 <HAL_GetTick>
 8004072:	0002      	movs	r2, r0
 8004074:	69bb      	ldr	r3, [r7, #24]
 8004076:	1ad3      	subs	r3, r2, r3
 8004078:	4aaf      	ldr	r2, [pc, #700]	; (8004338 <HAL_RCC_OscConfig+0x680>)
 800407a:	4293      	cmp	r3, r2
 800407c:	d901      	bls.n	8004082 <HAL_RCC_OscConfig+0x3ca>
        {
          return HAL_TIMEOUT;
 800407e:	2303      	movs	r3, #3
 8004080:	e19a      	b.n	80043b8 <HAL_RCC_OscConfig+0x700>
      while(__HAL_RCC_GET_FLAG(RCC_FLAG_LSERDY) == RESET)
 8004082:	4bac      	ldr	r3, [pc, #688]	; (8004334 <HAL_RCC_OscConfig+0x67c>)
 8004084:	6a1b      	ldr	r3, [r3, #32]
 8004086:	2202      	movs	r2, #2
 8004088:	4013      	ands	r3, r2
 800408a:	d0f0      	beq.n	800406e <HAL_RCC_OscConfig+0x3b6>
 800408c:	e013      	b.n	80040b6 <HAL_RCC_OscConfig+0x3fe>
      }
    }
    else
    {
      /* Get Start Tick */
      tickstart = HAL_GetTick();
 800408e:	f7fe fb77 	bl	8002780 <HAL_GetTick>
 8004092:	0003      	movs	r3, r0
 8004094:	61bb      	str	r3, [r7, #24]
      
      /* Wait till LSE is disabled */  
      while(__HAL_RCC_GET_FLAG(RCC_FLAG_LSERDY) != RESET)
 8004096:	e009      	b.n	80040ac <HAL_RCC_OscConfig+0x3f4>
      {
        if((HAL_GetTick() - tickstart ) > RCC_LSE_TIMEOUT_VALUE)
 8004098:	f7fe fb72 	bl	8002780 <HAL_GetTick>
 800409c:	0002      	movs	r2, r0
 800409e:	69bb      	ldr	r3, [r7, #24]
 80040a0:	1ad3      	subs	r3, r2, r3
 80040a2:	4aa5      	ldr	r2, [pc, #660]	; (8004338 <HAL_RCC_OscConfig+0x680>)
 80040a4:	4293      	cmp	r3, r2
 80040a6:	d901      	bls.n	80040ac <HAL_RCC_OscConfig+0x3f4>
        {
          return HAL_TIMEOUT;
 80040a8:	2303      	movs	r3, #3
 80040aa:	e185      	b.n	80043b8 <HAL_RCC_OscConfig+0x700>
      while(__HAL_RCC_GET_FLAG(RCC_FLAG_LSERDY) != RESET)
 80040ac:	4ba1      	ldr	r3, [pc, #644]	; (8004334 <HAL_RCC_OscConfig+0x67c>)
 80040ae:	6a1b      	ldr	r3, [r3, #32]
 80040b0:	2202      	movs	r2, #2
 80040b2:	4013      	ands	r3, r2
 80040b4:	d1f0      	bne.n	8004098 <HAL_RCC_OscConfig+0x3e0>
        }
      }
    }

    /* Require to disable power clock if necessary */
    if(pwrclkchanged == SET)
 80040b6:	231f      	movs	r3, #31
 80040b8:	18fb      	adds	r3, r7, r3
 80040ba:	781b      	ldrb	r3, [r3, #0]
 80040bc:	2b01      	cmp	r3, #1
 80040be:	d105      	bne.n	80040cc <HAL_RCC_OscConfig+0x414>
    {
      __HAL_RCC_PWR_CLK_DISABLE();
 80040c0:	4b9c      	ldr	r3, [pc, #624]	; (8004334 <HAL_RCC_OscConfig+0x67c>)
 80040c2:	69da      	ldr	r2, [r3, #28]
 80040c4:	4b9b      	ldr	r3, [pc, #620]	; (8004334 <HAL_RCC_OscConfig+0x67c>)
 80040c6:	499d      	ldr	r1, [pc, #628]	; (800433c <HAL_RCC_OscConfig+0x684>)
 80040c8:	400a      	ands	r2, r1
 80040ca:	61da      	str	r2, [r3, #28]
    }
  }

  /*----------------------------- HSI14 Configuration --------------------------*/
  if(((RCC_OscInitStruct->OscillatorType) & RCC_OSCILLATORTYPE_HSI14) == RCC_OSCILLATORTYPE_HSI14)
 80040cc:	687b      	ldr	r3, [r7, #4]
 80040ce:	681b      	ldr	r3, [r3, #0]
 80040d0:	2210      	movs	r2, #16
 80040d2:	4013      	ands	r3, r2
 80040d4:	d063      	beq.n	800419e <HAL_RCC_OscConfig+0x4e6>
    /* Check the parameters */
    assert_param(IS_RCC_HSI14(RCC_OscInitStruct->HSI14State));
    assert_param(IS_RCC_CALIBRATION_VALUE(RCC_OscInitStruct->HSI14CalibrationValue));

    /* Check the HSI14 State */
    if(RCC_OscInitStruct->HSI14State == RCC_HSI14_ON)
 80040d6:	687b      	ldr	r3, [r7, #4]
 80040d8:	695b      	ldr	r3, [r3, #20]
 80040da:	2b01      	cmp	r3, #1
 80040dc:	d12a      	bne.n	8004134 <HAL_RCC_OscConfig+0x47c>
    {
      /* Disable ADC control of the Internal High Speed oscillator HSI14 */
      __HAL_RCC_HSI14ADC_DISABLE();
 80040de:	4b95      	ldr	r3, [pc, #596]	; (8004334 <HAL_RCC_OscConfig+0x67c>)
 80040e0:	6b5a      	ldr	r2, [r3, #52]	; 0x34
 80040e2:	4b94      	ldr	r3, [pc, #592]	; (8004334 <HAL_RCC_OscConfig+0x67c>)
 80040e4:	2104      	movs	r1, #4
 80040e6:	430a      	orrs	r2, r1
 80040e8:	635a      	str	r2, [r3, #52]	; 0x34

      /* Enable the Internal High Speed oscillator (HSI). */
      __HAL_RCC_HSI14_ENABLE();
 80040ea:	4b92      	ldr	r3, [pc, #584]	; (8004334 <HAL_RCC_OscConfig+0x67c>)
 80040ec:	6b5a      	ldr	r2, [r3, #52]	; 0x34
 80040ee:	4b91      	ldr	r3, [pc, #580]	; (8004334 <HAL_RCC_OscConfig+0x67c>)
 80040f0:	2101      	movs	r1, #1
 80040f2:	430a      	orrs	r2, r1
 80040f4:	635a      	str	r2, [r3, #52]	; 0x34

      /* Get Start Tick */
      tickstart = HAL_GetTick();
 80040f6:	f7fe fb43 	bl	8002780 <HAL_GetTick>
 80040fa:	0003      	movs	r3, r0
 80040fc:	61bb      	str	r3, [r7, #24]
      
      /* Wait till HSI is ready */  
      while(__HAL_RCC_GET_FLAG(RCC_FLAG_HSI14RDY) == RESET)
 80040fe:	e008      	b.n	8004112 <HAL_RCC_OscConfig+0x45a>
      {
        if((HAL_GetTick() - tickstart) > HSI14_TIMEOUT_VALUE)
 8004100:	f7fe fb3e 	bl	8002780 <HAL_GetTick>
 8004104:	0002      	movs	r2, r0
 8004106:	69bb      	ldr	r3, [r7, #24]
 8004108:	1ad3      	subs	r3, r2, r3
 800410a:	2b02      	cmp	r3, #2
 800410c:	d901      	bls.n	8004112 <HAL_RCC_OscConfig+0x45a>
        {
          return HAL_TIMEOUT;
 800410e:	2303      	movs	r3, #3
 8004110:	e152      	b.n	80043b8 <HAL_RCC_OscConfig+0x700>
      while(__HAL_RCC_GET_FLAG(RCC_FLAG_HSI14RDY) == RESET)
 8004112:	4b88      	ldr	r3, [pc, #544]	; (8004334 <HAL_RCC_OscConfig+0x67c>)
 8004114:	6b5b      	ldr	r3, [r3, #52]	; 0x34
 8004116:	2202      	movs	r2, #2
 8004118:	4013      	ands	r3, r2
 800411a:	d0f1      	beq.n	8004100 <HAL_RCC_OscConfig+0x448>
        }      
      } 

      /* Adjusts the Internal High Speed oscillator 14Mhz (HSI14) calibration value. */
      __HAL_RCC_HSI14_CALIBRATIONVALUE_ADJUST(RCC_OscInitStruct->HSI14CalibrationValue);
 800411c:	4b85      	ldr	r3, [pc, #532]	; (8004334 <HAL_RCC_OscConfig+0x67c>)
 800411e:	6b5b      	ldr	r3, [r3, #52]	; 0x34
 8004120:	22f8      	movs	r2, #248	; 0xf8
 8004122:	4393      	bics	r3, r2
 8004124:	0019      	movs	r1, r3
 8004126:	687b      	ldr	r3, [r7, #4]
 8004128:	699b      	ldr	r3, [r3, #24]
 800412a:	00da      	lsls	r2, r3, #3
 800412c:	4b81      	ldr	r3, [pc, #516]	; (8004334 <HAL_RCC_OscConfig+0x67c>)
 800412e:	430a      	orrs	r2, r1
 8004130:	635a      	str	r2, [r3, #52]	; 0x34
 8004132:	e034      	b.n	800419e <HAL_RCC_OscConfig+0x4e6>
    }
    else if(RCC_OscInitStruct->HSI14State == RCC_HSI14_ADC_CONTROL)
 8004134:	687b      	ldr	r3, [r7, #4]
 8004136:	695b      	ldr	r3, [r3, #20]
 8004138:	3305      	adds	r3, #5
 800413a:	d111      	bne.n	8004160 <HAL_RCC_OscConfig+0x4a8>
    {
      /* Enable ADC control of the Internal High Speed oscillator HSI14 */
      __HAL_RCC_HSI14ADC_ENABLE();
 800413c:	4b7d      	ldr	r3, [pc, #500]	; (8004334 <HAL_RCC_OscConfig+0x67c>)
 800413e:	6b5a      	ldr	r2, [r3, #52]	; 0x34
 8004140:	4b7c      	ldr	r3, [pc, #496]	; (8004334 <HAL_RCC_OscConfig+0x67c>)
 8004142:	2104      	movs	r1, #4
 8004144:	438a      	bics	r2, r1
 8004146:	635a      	str	r2, [r3, #52]	; 0x34

      /* Adjusts the Internal High Speed oscillator 14Mhz (HSI14) calibration value. */
      __HAL_RCC_HSI14_CALIBRATIONVALUE_ADJUST(RCC_OscInitStruct->HSI14CalibrationValue);
 8004148:	4b7a      	ldr	r3, [pc, #488]	; (8004334 <HAL_RCC_OscConfig+0x67c>)
 800414a:	6b5b      	ldr	r3, [r3, #52]	; 0x34
 800414c:	22f8      	movs	r2, #248	; 0xf8
 800414e:	4393      	bics	r3, r2
 8004150:	0019      	movs	r1, r3
 8004152:	687b      	ldr	r3, [r7, #4]
 8004154:	699b      	ldr	r3, [r3, #24]
 8004156:	00da      	lsls	r2, r3, #3
 8004158:	4b76      	ldr	r3, [pc, #472]	; (8004334 <HAL_RCC_OscConfig+0x67c>)
 800415a:	430a      	orrs	r2, r1
 800415c:	635a      	str	r2, [r3, #52]	; 0x34
 800415e:	e01e      	b.n	800419e <HAL_RCC_OscConfig+0x4e6>
    }
    else
    {
      /* Disable ADC control of the Internal High Speed oscillator HSI14 */
      __HAL_RCC_HSI14ADC_DISABLE();
 8004160:	4b74      	ldr	r3, [pc, #464]	; (8004334 <HAL_RCC_OscConfig+0x67c>)
 8004162:	6b5a      	ldr	r2, [r3, #52]	; 0x34
 8004164:	4b73      	ldr	r3, [pc, #460]	; (8004334 <HAL_RCC_OscConfig+0x67c>)
 8004166:	2104      	movs	r1, #4
 8004168:	430a      	orrs	r2, r1
 800416a:	635a      	str	r2, [r3, #52]	; 0x34

      /* Disable the Internal High Speed oscillator (HSI). */
      __HAL_RCC_HSI14_DISABLE();
 800416c:	4b71      	ldr	r3, [pc, #452]	; (8004334 <HAL_RCC_OscConfig+0x67c>)
 800416e:	6b5a      	ldr	r2, [r3, #52]	; 0x34
 8004170:	4b70      	ldr	r3, [pc, #448]	; (8004334 <HAL_RCC_OscConfig+0x67c>)
 8004172:	2101      	movs	r1, #1
 8004174:	438a      	bics	r2, r1
 8004176:	635a      	str	r2, [r3, #52]	; 0x34

      /* Get Start Tick */
      tickstart = HAL_GetTick();
 8004178:	f7fe fb02 	bl	8002780 <HAL_GetTick>
 800417c:	0003      	movs	r3, r0
 800417e:	61bb      	str	r3, [r7, #24]
      
      /* Wait till HSI is ready */  
      while(__HAL_RCC_GET_FLAG(RCC_FLAG_HSI14RDY) != RESET)
 8004180:	e008      	b.n	8004194 <HAL_RCC_OscConfig+0x4dc>
      {
        if((HAL_GetTick() - tickstart) > HSI14_TIMEOUT_VALUE)
 8004182:	f7fe fafd 	bl	8002780 <HAL_GetTick>
 8004186:	0002      	movs	r2, r0
 8004188:	69bb      	ldr	r3, [r7, #24]
 800418a:	1ad3      	subs	r3, r2, r3
 800418c:	2b02      	cmp	r3, #2
 800418e:	d901      	bls.n	8004194 <HAL_RCC_OscConfig+0x4dc>
        {
          return HAL_TIMEOUT;
 8004190:	2303      	movs	r3, #3
 8004192:	e111      	b.n	80043b8 <HAL_RCC_OscConfig+0x700>
      while(__HAL_RCC_GET_FLAG(RCC_FLAG_HSI14RDY) != RESET)
 8004194:	4b67      	ldr	r3, [pc, #412]	; (8004334 <HAL_RCC_OscConfig+0x67c>)
 8004196:	6b5b      	ldr	r3, [r3, #52]	; 0x34
 8004198:	2202      	movs	r2, #2
 800419a:	4013      	ands	r3, r2
 800419c:	d1f1      	bne.n	8004182 <HAL_RCC_OscConfig+0x4ca>
    }
  }

#if defined(RCC_HSI48_SUPPORT)
  /*----------------------------- HSI48 Configuration --------------------------*/
  if(((RCC_OscInitStruct->OscillatorType) & RCC_OSCILLATORTYPE_HSI48) == RCC_OSCILLATORTYPE_HSI48)
 800419e:	687b      	ldr	r3, [r7, #4]
 80041a0:	681b      	ldr	r3, [r3, #0]
 80041a2:	2220      	movs	r2, #32
 80041a4:	4013      	ands	r3, r2
 80041a6:	d05c      	beq.n	8004262 <HAL_RCC_OscConfig+0x5aa>
  {
    /* Check the parameters */
    assert_param(IS_RCC_HSI48(RCC_OscInitStruct->HSI48State));

    /* When the HSI48 is used as system clock it is not allowed to be disabled */
    if((__HAL_RCC_GET_SYSCLK_SOURCE() == RCC_SYSCLKSOURCE_STATUS_HSI48) ||
 80041a8:	4b62      	ldr	r3, [pc, #392]	; (8004334 <HAL_RCC_OscConfig+0x67c>)
 80041aa:	685b      	ldr	r3, [r3, #4]
 80041ac:	220c      	movs	r2, #12
 80041ae:	4013      	ands	r3, r2
 80041b0:	2b0c      	cmp	r3, #12
 80041b2:	d00e      	beq.n	80041d2 <HAL_RCC_OscConfig+0x51a>
       ((__HAL_RCC_GET_SYSCLK_SOURCE() == RCC_SYSCLKSOURCE_STATUS_PLLCLK) && (__HAL_RCC_GET_PLL_OSCSOURCE() == RCC_PLLSOURCE_HSI48)))
 80041b4:	4b5f      	ldr	r3, [pc, #380]	; (8004334 <HAL_RCC_OscConfig+0x67c>)
 80041b6:	685b      	ldr	r3, [r3, #4]
 80041b8:	220c      	movs	r2, #12
 80041ba:	4013      	ands	r3, r2
    if((__HAL_RCC_GET_SYSCLK_SOURCE() == RCC_SYSCLKSOURCE_STATUS_HSI48) ||
 80041bc:	2b08      	cmp	r3, #8
 80041be:	d114      	bne.n	80041ea <HAL_RCC_OscConfig+0x532>
       ((__HAL_RCC_GET_SYSCLK_SOURCE() == RCC_SYSCLKSOURCE_STATUS_PLLCLK) && (__HAL_RCC_GET_PLL_OSCSOURCE() == RCC_PLLSOURCE_HSI48)))
 80041c0:	4b5c      	ldr	r3, [pc, #368]	; (8004334 <HAL_RCC_OscConfig+0x67c>)
 80041c2:	685a      	ldr	r2, [r3, #4]
 80041c4:	23c0      	movs	r3, #192	; 0xc0
 80041c6:	025b      	lsls	r3, r3, #9
 80041c8:	401a      	ands	r2, r3
 80041ca:	23c0      	movs	r3, #192	; 0xc0
 80041cc:	025b      	lsls	r3, r3, #9
 80041ce:	429a      	cmp	r2, r3
 80041d0:	d10b      	bne.n	80041ea <HAL_RCC_OscConfig+0x532>
    {
      if((__HAL_RCC_GET_FLAG(RCC_FLAG_HSI48RDY) != RESET) && (RCC_OscInitStruct->HSI48State != RCC_HSI48_ON))
 80041d2:	4b58      	ldr	r3, [pc, #352]	; (8004334 <HAL_RCC_OscConfig+0x67c>)
 80041d4:	6b5a      	ldr	r2, [r3, #52]	; 0x34
 80041d6:	2380      	movs	r3, #128	; 0x80
 80041d8:	025b      	lsls	r3, r3, #9
 80041da:	4013      	ands	r3, r2
 80041dc:	d040      	beq.n	8004260 <HAL_RCC_OscConfig+0x5a8>
 80041de:	687b      	ldr	r3, [r7, #4]
 80041e0:	6a1b      	ldr	r3, [r3, #32]
 80041e2:	2b01      	cmp	r3, #1
 80041e4:	d03c      	beq.n	8004260 <HAL_RCC_OscConfig+0x5a8>
      {
        return HAL_ERROR;
 80041e6:	2301      	movs	r3, #1
 80041e8:	e0e6      	b.n	80043b8 <HAL_RCC_OscConfig+0x700>
      }
    }
    else
    {
      /* Check the HSI48 State */
      if(RCC_OscInitStruct->HSI48State != RCC_HSI48_OFF)
 80041ea:	687b      	ldr	r3, [r7, #4]
 80041ec:	6a1b      	ldr	r3, [r3, #32]
 80041ee:	2b00      	cmp	r3, #0
 80041f0:	d01b      	beq.n	800422a <HAL_RCC_OscConfig+0x572>
      {
        /* Enable the Internal High Speed oscillator (HSI48). */
        __HAL_RCC_HSI48_ENABLE();
 80041f2:	4b50      	ldr	r3, [pc, #320]	; (8004334 <HAL_RCC_OscConfig+0x67c>)
 80041f4:	6b5a      	ldr	r2, [r3, #52]	; 0x34
 80041f6:	4b4f      	ldr	r3, [pc, #316]	; (8004334 <HAL_RCC_OscConfig+0x67c>)
 80041f8:	2180      	movs	r1, #128	; 0x80
 80041fa:	0249      	lsls	r1, r1, #9
 80041fc:	430a      	orrs	r2, r1
 80041fe:	635a      	str	r2, [r3, #52]	; 0x34

        /* Get Start Tick */
        tickstart = HAL_GetTick();
 8004200:	f7fe fabe 	bl	8002780 <HAL_GetTick>
 8004204:	0003      	movs	r3, r0
 8004206:	61bb      	str	r3, [r7, #24]
      
        /* Wait till HSI48 is ready */  
        while(__HAL_RCC_GET_FLAG(RCC_FLAG_HSI48RDY) == RESET)
 8004208:	e008      	b.n	800421c <HAL_RCC_OscConfig+0x564>
        {
          if((HAL_GetTick() - tickstart) > HSI48_TIMEOUT_VALUE)
 800420a:	f7fe fab9 	bl	8002780 <HAL_GetTick>
 800420e:	0002      	movs	r2, r0
 8004210:	69bb      	ldr	r3, [r7, #24]
 8004212:	1ad3      	subs	r3, r2, r3
 8004214:	2b02      	cmp	r3, #2
 8004216:	d901      	bls.n	800421c <HAL_RCC_OscConfig+0x564>
          {
            return HAL_TIMEOUT;
 8004218:	2303      	movs	r3, #3
 800421a:	e0cd      	b.n	80043b8 <HAL_RCC_OscConfig+0x700>
        while(__HAL_RCC_GET_FLAG(RCC_FLAG_HSI48RDY) == RESET)
 800421c:	4b45      	ldr	r3, [pc, #276]	; (8004334 <HAL_RCC_OscConfig+0x67c>)
 800421e:	6b5a      	ldr	r2, [r3, #52]	; 0x34
 8004220:	2380      	movs	r3, #128	; 0x80
 8004222:	025b      	lsls	r3, r3, #9
 8004224:	4013      	ands	r3, r2
 8004226:	d0f0      	beq.n	800420a <HAL_RCC_OscConfig+0x552>
 8004228:	e01b      	b.n	8004262 <HAL_RCC_OscConfig+0x5aa>
        } 
      }
      else
      {
        /* Disable the Internal High Speed oscillator (HSI48). */
        __HAL_RCC_HSI48_DISABLE();
 800422a:	4b42      	ldr	r3, [pc, #264]	; (8004334 <HAL_RCC_OscConfig+0x67c>)
 800422c:	6b5a      	ldr	r2, [r3, #52]	; 0x34
 800422e:	4b41      	ldr	r3, [pc, #260]	; (8004334 <HAL_RCC_OscConfig+0x67c>)
 8004230:	4943      	ldr	r1, [pc, #268]	; (8004340 <HAL_RCC_OscConfig+0x688>)
 8004232:	400a      	ands	r2, r1
 8004234:	635a      	str	r2, [r3, #52]	; 0x34

        /* Get Start Tick */
        tickstart = HAL_GetTick();
 8004236:	f7fe faa3 	bl	8002780 <HAL_GetTick>
 800423a:	0003      	movs	r3, r0
 800423c:	61bb      	str	r3, [r7, #24]
      
        /* Wait till HSI48 is ready */  
        while(__HAL_RCC_GET_FLAG(RCC_FLAG_HSI48RDY) != RESET)
 800423e:	e008      	b.n	8004252 <HAL_RCC_OscConfig+0x59a>
        {
          if((HAL_GetTick() - tickstart) > HSI48_TIMEOUT_VALUE)
 8004240:	f7fe fa9e 	bl	8002780 <HAL_GetTick>
 8004244:	0002      	movs	r2, r0
 8004246:	69bb      	ldr	r3, [r7, #24]
 8004248:	1ad3      	subs	r3, r2, r3
 800424a:	2b02      	cmp	r3, #2
 800424c:	d901      	bls.n	8004252 <HAL_RCC_OscConfig+0x59a>
          {
            return HAL_TIMEOUT;
 800424e:	2303      	movs	r3, #3
 8004250:	e0b2      	b.n	80043b8 <HAL_RCC_OscConfig+0x700>
        while(__HAL_RCC_GET_FLAG(RCC_FLAG_HSI48RDY) != RESET)
 8004252:	4b38      	ldr	r3, [pc, #224]	; (8004334 <HAL_RCC_OscConfig+0x67c>)
 8004254:	6b5a      	ldr	r2, [r3, #52]	; 0x34
 8004256:	2380      	movs	r3, #128	; 0x80
 8004258:	025b      	lsls	r3, r3, #9
 800425a:	4013      	ands	r3, r2
 800425c:	d1f0      	bne.n	8004240 <HAL_RCC_OscConfig+0x588>
 800425e:	e000      	b.n	8004262 <HAL_RCC_OscConfig+0x5aa>
      if((__HAL_RCC_GET_FLAG(RCC_FLAG_HSI48RDY) != RESET) && (RCC_OscInitStruct->HSI48State != RCC_HSI48_ON))
 8004260:	46c0      	nop			; (mov r8, r8)
#endif /* RCC_HSI48_SUPPORT */
       
  /*-------------------------------- PLL Configuration -----------------------*/
  /* Check the parameters */
  assert_param(IS_RCC_PLL(RCC_OscInitStruct->PLL.PLLState));
  if ((RCC_OscInitStruct->PLL.PLLState) != RCC_PLL_NONE)
 8004262:	687b      	ldr	r3, [r7, #4]
 8004264:	6a5b      	ldr	r3, [r3, #36]	; 0x24
 8004266:	2b00      	cmp	r3, #0
 8004268:	d100      	bne.n	800426c <HAL_RCC_OscConfig+0x5b4>
 800426a:	e0a4      	b.n	80043b6 <HAL_RCC_OscConfig+0x6fe>
  {
    /* Check if the PLL is used as system clock or not */
    if(__HAL_RCC_GET_SYSCLK_SOURCE() != RCC_SYSCLKSOURCE_STATUS_PLLCLK)
 800426c:	4b31      	ldr	r3, [pc, #196]	; (8004334 <HAL_RCC_OscConfig+0x67c>)
 800426e:	685b      	ldr	r3, [r3, #4]
 8004270:	220c      	movs	r2, #12
 8004272:	4013      	ands	r3, r2
 8004274:	2b08      	cmp	r3, #8
 8004276:	d100      	bne.n	800427a <HAL_RCC_OscConfig+0x5c2>
 8004278:	e078      	b.n	800436c <HAL_RCC_OscConfig+0x6b4>
    { 
      if((RCC_OscInitStruct->PLL.PLLState) == RCC_PLL_ON)
 800427a:	687b      	ldr	r3, [r7, #4]
 800427c:	6a5b      	ldr	r3, [r3, #36]	; 0x24
 800427e:	2b02      	cmp	r3, #2
 8004280:	d14c      	bne.n	800431c <HAL_RCC_OscConfig+0x664>
        assert_param(IS_RCC_PLLSOURCE(RCC_OscInitStruct->PLL.PLLSource));
        assert_param(IS_RCC_PLL_MUL(RCC_OscInitStruct->PLL.PLLMUL));
        assert_param(IS_RCC_PREDIV(RCC_OscInitStruct->PLL.PREDIV));
  
        /* Disable the main PLL. */
        __HAL_RCC_PLL_DISABLE();
 8004282:	4b2c      	ldr	r3, [pc, #176]	; (8004334 <HAL_RCC_OscConfig+0x67c>)
 8004284:	681a      	ldr	r2, [r3, #0]
 8004286:	4b2b      	ldr	r3, [pc, #172]	; (8004334 <HAL_RCC_OscConfig+0x67c>)
 8004288:	492e      	ldr	r1, [pc, #184]	; (8004344 <HAL_RCC_OscConfig+0x68c>)
 800428a:	400a      	ands	r2, r1
 800428c:	601a      	str	r2, [r3, #0]
        
        /* Get Start Tick */
        tickstart = HAL_GetTick();
 800428e:	f7fe fa77 	bl	8002780 <HAL_GetTick>
 8004292:	0003      	movs	r3, r0
 8004294:	61bb      	str	r3, [r7, #24]
        
        /* Wait till PLL is disabled */
        while(__HAL_RCC_GET_FLAG(RCC_FLAG_PLLRDY)  != RESET)
 8004296:	e008      	b.n	80042aa <HAL_RCC_OscConfig+0x5f2>
        {
          if((HAL_GetTick() - tickstart ) > PLL_TIMEOUT_VALUE)
 8004298:	f7fe fa72 	bl	8002780 <HAL_GetTick>
 800429c:	0002      	movs	r2, r0
 800429e:	69bb      	ldr	r3, [r7, #24]
 80042a0:	1ad3      	subs	r3, r2, r3
 80042a2:	2b02      	cmp	r3, #2
 80042a4:	d901      	bls.n	80042aa <HAL_RCC_OscConfig+0x5f2>
          {
            return HAL_TIMEOUT;
 80042a6:	2303      	movs	r3, #3
 80042a8:	e086      	b.n	80043b8 <HAL_RCC_OscConfig+0x700>
        while(__HAL_RCC_GET_FLAG(RCC_FLAG_PLLRDY)  != RESET)
 80042aa:	4b22      	ldr	r3, [pc, #136]	; (8004334 <HAL_RCC_OscConfig+0x67c>)
 80042ac:	681a      	ldr	r2, [r3, #0]
 80042ae:	2380      	movs	r3, #128	; 0x80
 80042b0:	049b      	lsls	r3, r3, #18
 80042b2:	4013      	ands	r3, r2
 80042b4:	d1f0      	bne.n	8004298 <HAL_RCC_OscConfig+0x5e0>
          }
        }

        /* Configure the main PLL clock source, predivider and multiplication factor. */
        __HAL_RCC_PLL_CONFIG(RCC_OscInitStruct->PLL.PLLSource,
 80042b6:	4b1f      	ldr	r3, [pc, #124]	; (8004334 <HAL_RCC_OscConfig+0x67c>)
 80042b8:	6adb      	ldr	r3, [r3, #44]	; 0x2c
 80042ba:	220f      	movs	r2, #15
 80042bc:	4393      	bics	r3, r2
 80042be:	0019      	movs	r1, r3
 80042c0:	687b      	ldr	r3, [r7, #4]
 80042c2:	6b1a      	ldr	r2, [r3, #48]	; 0x30
 80042c4:	4b1b      	ldr	r3, [pc, #108]	; (8004334 <HAL_RCC_OscConfig+0x67c>)
 80042c6:	430a      	orrs	r2, r1
 80042c8:	62da      	str	r2, [r3, #44]	; 0x2c
 80042ca:	4b1a      	ldr	r3, [pc, #104]	; (8004334 <HAL_RCC_OscConfig+0x67c>)
 80042cc:	685b      	ldr	r3, [r3, #4]
 80042ce:	4a1e      	ldr	r2, [pc, #120]	; (8004348 <HAL_RCC_OscConfig+0x690>)
 80042d0:	4013      	ands	r3, r2
 80042d2:	0019      	movs	r1, r3
 80042d4:	687b      	ldr	r3, [r7, #4]
 80042d6:	6ada      	ldr	r2, [r3, #44]	; 0x2c
 80042d8:	687b      	ldr	r3, [r7, #4]
 80042da:	6a9b      	ldr	r3, [r3, #40]	; 0x28
 80042dc:	431a      	orrs	r2, r3
 80042de:	4b15      	ldr	r3, [pc, #84]	; (8004334 <HAL_RCC_OscConfig+0x67c>)
 80042e0:	430a      	orrs	r2, r1
 80042e2:	605a      	str	r2, [r3, #4]
                             RCC_OscInitStruct->PLL.PREDIV,
                             RCC_OscInitStruct->PLL.PLLMUL);
        /* Enable the main PLL. */
        __HAL_RCC_PLL_ENABLE();
 80042e4:	4b13      	ldr	r3, [pc, #76]	; (8004334 <HAL_RCC_OscConfig+0x67c>)
 80042e6:	681a      	ldr	r2, [r3, #0]
 80042e8:	4b12      	ldr	r3, [pc, #72]	; (8004334 <HAL_RCC_OscConfig+0x67c>)
 80042ea:	2180      	movs	r1, #128	; 0x80
 80042ec:	0449      	lsls	r1, r1, #17
 80042ee:	430a      	orrs	r2, r1
 80042f0:	601a      	str	r2, [r3, #0]
        
        /* Get Start Tick */
        tickstart = HAL_GetTick();
 80042f2:	f7fe fa45 	bl	8002780 <HAL_GetTick>
 80042f6:	0003      	movs	r3, r0
 80042f8:	61bb      	str	r3, [r7, #24]
        
        /* Wait till PLL is ready */
        while(__HAL_RCC_GET_FLAG(RCC_FLAG_PLLRDY)  == RESET)
 80042fa:	e008      	b.n	800430e <HAL_RCC_OscConfig+0x656>
        {
          if((HAL_GetTick() - tickstart ) > PLL_TIMEOUT_VALUE)
 80042fc:	f7fe fa40 	bl	8002780 <HAL_GetTick>
 8004300:	0002      	movs	r2, r0
 8004302:	69bb      	ldr	r3, [r7, #24]
 8004304:	1ad3      	subs	r3, r2, r3
 8004306:	2b02      	cmp	r3, #2
 8004308:	d901      	bls.n	800430e <HAL_RCC_OscConfig+0x656>
          {
            return HAL_TIMEOUT;
 800430a:	2303      	movs	r3, #3
 800430c:	e054      	b.n	80043b8 <HAL_RCC_OscConfig+0x700>
        while(__HAL_RCC_GET_FLAG(RCC_FLAG_PLLRDY)  == RESET)
 800430e:	4b09      	ldr	r3, [pc, #36]	; (8004334 <HAL_RCC_OscConfig+0x67c>)
 8004310:	681a      	ldr	r2, [r3, #0]
 8004312:	2380      	movs	r3, #128	; 0x80
 8004314:	049b      	lsls	r3, r3, #18
 8004316:	4013      	ands	r3, r2
 8004318:	d0f0      	beq.n	80042fc <HAL_RCC_OscConfig+0x644>
 800431a:	e04c      	b.n	80043b6 <HAL_RCC_OscConfig+0x6fe>
        }
      }
      else
      {
        /* Disable the main PLL. */
        __HAL_RCC_PLL_DISABLE();
 800431c:	4b05      	ldr	r3, [pc, #20]	; (8004334 <HAL_RCC_OscConfig+0x67c>)
 800431e:	681a      	ldr	r2, [r3, #0]
 8004320:	4b04      	ldr	r3, [pc, #16]	; (8004334 <HAL_RCC_OscConfig+0x67c>)
 8004322:	4908      	ldr	r1, [pc, #32]	; (8004344 <HAL_RCC_OscConfig+0x68c>)
 8004324:	400a      	ands	r2, r1
 8004326:	601a      	str	r2, [r3, #0]
 
        /* Get Start Tick */
        tickstart = HAL_GetTick();
 8004328:	f7fe fa2a 	bl	8002780 <HAL_GetTick>
 800432c:	0003      	movs	r3, r0
 800432e:	61bb      	str	r3, [r7, #24]
        
        /* Wait till PLL is disabled */  
        while(__HAL_RCC_GET_FLAG(RCC_FLAG_PLLRDY)  != RESET)
 8004330:	e015      	b.n	800435e <HAL_RCC_OscConfig+0x6a6>
 8004332:	46c0      	nop			; (mov r8, r8)
 8004334:	40021000 	.word	0x40021000
 8004338:	00001388 	.word	0x00001388
 800433c:	efffffff 	.word	0xefffffff
 8004340:	fffeffff 	.word	0xfffeffff
 8004344:	feffffff 	.word	0xfeffffff
 8004348:	ffc27fff 	.word	0xffc27fff
        {
          if((HAL_GetTick() - tickstart ) > PLL_TIMEOUT_VALUE)
 800434c:	f7fe fa18 	bl	8002780 <HAL_GetTick>
 8004350:	0002      	movs	r2, r0
 8004352:	69bb      	ldr	r3, [r7, #24]
 8004354:	1ad3      	subs	r3, r2, r3
 8004356:	2b02      	cmp	r3, #2
 8004358:	d901      	bls.n	800435e <HAL_RCC_OscConfig+0x6a6>
          {
            return HAL_TIMEOUT;
 800435a:	2303      	movs	r3, #3
 800435c:	e02c      	b.n	80043b8 <HAL_RCC_OscConfig+0x700>
        while(__HAL_RCC_GET_FLAG(RCC_FLAG_PLLRDY)  != RESET)
 800435e:	4b18      	ldr	r3, [pc, #96]	; (80043c0 <HAL_RCC_OscConfig+0x708>)
 8004360:	681a      	ldr	r2, [r3, #0]
 8004362:	2380      	movs	r3, #128	; 0x80
 8004364:	049b      	lsls	r3, r3, #18
 8004366:	4013      	ands	r3, r2
 8004368:	d1f0      	bne.n	800434c <HAL_RCC_OscConfig+0x694>
 800436a:	e024      	b.n	80043b6 <HAL_RCC_OscConfig+0x6fe>
      }
    }
    else
    {
      /* Check if there is a request to disable the PLL used as System clock source */
      if((RCC_OscInitStruct->PLL.PLLState) == RCC_PLL_OFF)
 800436c:	687b      	ldr	r3, [r7, #4]
 800436e:	6a5b      	ldr	r3, [r3, #36]	; 0x24
 8004370:	2b01      	cmp	r3, #1
 8004372:	d101      	bne.n	8004378 <HAL_RCC_OscConfig+0x6c0>
      {
        return HAL_ERROR;
 8004374:	2301      	movs	r3, #1
 8004376:	e01f      	b.n	80043b8 <HAL_RCC_OscConfig+0x700>
      }
      else
      {
        /* Do not return HAL_ERROR if request repeats the current configuration */
        pll_config  = RCC->CFGR;
 8004378:	4b11      	ldr	r3, [pc, #68]	; (80043c0 <HAL_RCC_OscConfig+0x708>)
 800437a:	685b      	ldr	r3, [r3, #4]
 800437c:	617b      	str	r3, [r7, #20]
        pll_config2 = RCC->CFGR2;
 800437e:	4b10      	ldr	r3, [pc, #64]	; (80043c0 <HAL_RCC_OscConfig+0x708>)
 8004380:	6adb      	ldr	r3, [r3, #44]	; 0x2c
 8004382:	613b      	str	r3, [r7, #16]
        if((READ_BIT(pll_config,  RCC_CFGR_PLLSRC)  != RCC_OscInitStruct->PLL.PLLSource) ||
 8004384:	697a      	ldr	r2, [r7, #20]
 8004386:	23c0      	movs	r3, #192	; 0xc0
 8004388:	025b      	lsls	r3, r3, #9
 800438a:	401a      	ands	r2, r3
 800438c:	687b      	ldr	r3, [r7, #4]
 800438e:	6a9b      	ldr	r3, [r3, #40]	; 0x28
 8004390:	429a      	cmp	r2, r3
 8004392:	d10e      	bne.n	80043b2 <HAL_RCC_OscConfig+0x6fa>
           (READ_BIT(pll_config2, RCC_CFGR2_PREDIV) != RCC_OscInitStruct->PLL.PREDIV)    ||
 8004394:	693b      	ldr	r3, [r7, #16]
 8004396:	220f      	movs	r2, #15
 8004398:	401a      	ands	r2, r3
 800439a:	687b      	ldr	r3, [r7, #4]
 800439c:	6b1b      	ldr	r3, [r3, #48]	; 0x30
        if((READ_BIT(pll_config,  RCC_CFGR_PLLSRC)  != RCC_OscInitStruct->PLL.PLLSource) ||
 800439e:	429a      	cmp	r2, r3
 80043a0:	d107      	bne.n	80043b2 <HAL_RCC_OscConfig+0x6fa>
           (READ_BIT(pll_config,  RCC_CFGR_PLLMUL)  != RCC_OscInitStruct->PLL.PLLMUL))
 80043a2:	697a      	ldr	r2, [r7, #20]
 80043a4:	23f0      	movs	r3, #240	; 0xf0
 80043a6:	039b      	lsls	r3, r3, #14
 80043a8:	401a      	ands	r2, r3
 80043aa:	687b      	ldr	r3, [r7, #4]
 80043ac:	6adb      	ldr	r3, [r3, #44]	; 0x2c
           (READ_BIT(pll_config2, RCC_CFGR2_PREDIV) != RCC_OscInitStruct->PLL.PREDIV)    ||
 80043ae:	429a      	cmp	r2, r3
 80043b0:	d001      	beq.n	80043b6 <HAL_RCC_OscConfig+0x6fe>
        {
          return HAL_ERROR;
 80043b2:	2301      	movs	r3, #1
 80043b4:	e000      	b.n	80043b8 <HAL_RCC_OscConfig+0x700>
        }
      }
    }
  }

  return HAL_OK;
 80043b6:	2300      	movs	r3, #0
}
 80043b8:	0018      	movs	r0, r3
 80043ba:	46bd      	mov	sp, r7
 80043bc:	b008      	add	sp, #32
 80043be:	bd80      	pop	{r7, pc}
 80043c0:	40021000 	.word	0x40021000

080043c4 <HAL_RCC_ClockConfig>:
  *         You can use @ref HAL_RCC_GetClockConfig() function to know which clock is
  *         currently used as system clock source.
  * @retval HAL status
  */
HAL_StatusTypeDef HAL_RCC_ClockConfig(RCC_ClkInitTypeDef  *RCC_ClkInitStruct, uint32_t FLatency)
{
 80043c4:	b580      	push	{r7, lr}
 80043c6:	b084      	sub	sp, #16
 80043c8:	af00      	add	r7, sp, #0
 80043ca:	6078      	str	r0, [r7, #4]
 80043cc:	6039      	str	r1, [r7, #0]
  uint32_t tickstart;

  /* Check Null pointer */
  if(RCC_ClkInitStruct == NULL)
 80043ce:	687b      	ldr	r3, [r7, #4]
 80043d0:	2b00      	cmp	r3, #0
 80043d2:	d101      	bne.n	80043d8 <HAL_RCC_ClockConfig+0x14>
  {
    return HAL_ERROR;
 80043d4:	2301      	movs	r3, #1
 80043d6:	e0bf      	b.n	8004558 <HAL_RCC_ClockConfig+0x194>
  /* To correctly read data from FLASH memory, the number of wait states (LATENCY) 
  must be correctly programmed according to the frequency of the CPU clock 
    (HCLK) of the device. */

  /* Increasing the number of wait states because of higher CPU frequency */
  if(FLatency > __HAL_FLASH_GET_LATENCY())
 80043d8:	4b61      	ldr	r3, [pc, #388]	; (8004560 <HAL_RCC_ClockConfig+0x19c>)
 80043da:	681b      	ldr	r3, [r3, #0]
 80043dc:	2201      	movs	r2, #1
 80043de:	4013      	ands	r3, r2
 80043e0:	683a      	ldr	r2, [r7, #0]
 80043e2:	429a      	cmp	r2, r3
 80043e4:	d911      	bls.n	800440a <HAL_RCC_ClockConfig+0x46>
  {    
    /* Program the new number of wait states to the LATENCY bits in the FLASH_ACR register */
    __HAL_FLASH_SET_LATENCY(FLatency);
 80043e6:	4b5e      	ldr	r3, [pc, #376]	; (8004560 <HAL_RCC_ClockConfig+0x19c>)
 80043e8:	681b      	ldr	r3, [r3, #0]
 80043ea:	2201      	movs	r2, #1
 80043ec:	4393      	bics	r3, r2
 80043ee:	0019      	movs	r1, r3
 80043f0:	4b5b      	ldr	r3, [pc, #364]	; (8004560 <HAL_RCC_ClockConfig+0x19c>)
 80043f2:	683a      	ldr	r2, [r7, #0]
 80043f4:	430a      	orrs	r2, r1
 80043f6:	601a      	str	r2, [r3, #0]
    
    /* Check that the new number of wait states is taken into account to access the Flash
    memory by reading the FLASH_ACR register */
    if(__HAL_FLASH_GET_LATENCY() != FLatency)
 80043f8:	4b59      	ldr	r3, [pc, #356]	; (8004560 <HAL_RCC_ClockConfig+0x19c>)
 80043fa:	681b      	ldr	r3, [r3, #0]
 80043fc:	2201      	movs	r2, #1
 80043fe:	4013      	ands	r3, r2
 8004400:	683a      	ldr	r2, [r7, #0]
 8004402:	429a      	cmp	r2, r3
 8004404:	d001      	beq.n	800440a <HAL_RCC_ClockConfig+0x46>
    {
      return HAL_ERROR;
 8004406:	2301      	movs	r3, #1
 8004408:	e0a6      	b.n	8004558 <HAL_RCC_ClockConfig+0x194>
    }
  }

  /*-------------------------- HCLK Configuration --------------------------*/
  if(((RCC_ClkInitStruct->ClockType) & RCC_CLOCKTYPE_HCLK) == RCC_CLOCKTYPE_HCLK)
 800440a:	687b      	ldr	r3, [r7, #4]
 800440c:	681b      	ldr	r3, [r3, #0]
 800440e:	2202      	movs	r2, #2
 8004410:	4013      	ands	r3, r2
 8004412:	d015      	beq.n	8004440 <HAL_RCC_ClockConfig+0x7c>
  {
    /* Set the highest APB divider in order to ensure that we do not go through
       a non-spec phase whatever we decrease or increase HCLK. */
    if(((RCC_ClkInitStruct->ClockType) & RCC_CLOCKTYPE_PCLK1) == RCC_CLOCKTYPE_PCLK1)
 8004414:	687b      	ldr	r3, [r7, #4]
 8004416:	681b      	ldr	r3, [r3, #0]
 8004418:	2204      	movs	r2, #4
 800441a:	4013      	ands	r3, r2
 800441c:	d006      	beq.n	800442c <HAL_RCC_ClockConfig+0x68>
    {
      MODIFY_REG(RCC->CFGR, RCC_CFGR_PPRE, RCC_HCLK_DIV16);
 800441e:	4b51      	ldr	r3, [pc, #324]	; (8004564 <HAL_RCC_ClockConfig+0x1a0>)
 8004420:	685a      	ldr	r2, [r3, #4]
 8004422:	4b50      	ldr	r3, [pc, #320]	; (8004564 <HAL_RCC_ClockConfig+0x1a0>)
 8004424:	21e0      	movs	r1, #224	; 0xe0
 8004426:	00c9      	lsls	r1, r1, #3
 8004428:	430a      	orrs	r2, r1
 800442a:	605a      	str	r2, [r3, #4]
    }

    /* Set the new HCLK clock divider */
    assert_param(IS_RCC_HCLK(RCC_ClkInitStruct->AHBCLKDivider));
    MODIFY_REG(RCC->CFGR, RCC_CFGR_HPRE, RCC_ClkInitStruct->AHBCLKDivider);
 800442c:	4b4d      	ldr	r3, [pc, #308]	; (8004564 <HAL_RCC_ClockConfig+0x1a0>)
 800442e:	685b      	ldr	r3, [r3, #4]
 8004430:	22f0      	movs	r2, #240	; 0xf0
 8004432:	4393      	bics	r3, r2
 8004434:	0019      	movs	r1, r3
 8004436:	687b      	ldr	r3, [r7, #4]
 8004438:	689a      	ldr	r2, [r3, #8]
 800443a:	4b4a      	ldr	r3, [pc, #296]	; (8004564 <HAL_RCC_ClockConfig+0x1a0>)
 800443c:	430a      	orrs	r2, r1
 800443e:	605a      	str	r2, [r3, #4]
  }

  /*------------------------- SYSCLK Configuration ---------------------------*/ 
  if(((RCC_ClkInitStruct->ClockType) & RCC_CLOCKTYPE_SYSCLK) == RCC_CLOCKTYPE_SYSCLK)
 8004440:	687b      	ldr	r3, [r7, #4]
 8004442:	681b      	ldr	r3, [r3, #0]
 8004444:	2201      	movs	r2, #1
 8004446:	4013      	ands	r3, r2
 8004448:	d04c      	beq.n	80044e4 <HAL_RCC_ClockConfig+0x120>
  {
    assert_param(IS_RCC_SYSCLKSOURCE(RCC_ClkInitStruct->SYSCLKSource));
    
    /* HSE is selected as System Clock Source */
    if(RCC_ClkInitStruct->SYSCLKSource == RCC_SYSCLKSOURCE_HSE)
 800444a:	687b      	ldr	r3, [r7, #4]
 800444c:	685b      	ldr	r3, [r3, #4]
 800444e:	2b01      	cmp	r3, #1
 8004450:	d107      	bne.n	8004462 <HAL_RCC_ClockConfig+0x9e>
    {
      /* Check the HSE ready flag */  
      if(__HAL_RCC_GET_FLAG(RCC_FLAG_HSERDY) == RESET)
 8004452:	4b44      	ldr	r3, [pc, #272]	; (8004564 <HAL_RCC_ClockConfig+0x1a0>)
 8004454:	681a      	ldr	r2, [r3, #0]
 8004456:	2380      	movs	r3, #128	; 0x80
 8004458:	029b      	lsls	r3, r3, #10
 800445a:	4013      	ands	r3, r2
 800445c:	d120      	bne.n	80044a0 <HAL_RCC_ClockConfig+0xdc>
      {
        return HAL_ERROR;
 800445e:	2301      	movs	r3, #1
 8004460:	e07a      	b.n	8004558 <HAL_RCC_ClockConfig+0x194>
      }
    }
    /* PLL is selected as System Clock Source */
    else if(RCC_ClkInitStruct->SYSCLKSource == RCC_SYSCLKSOURCE_PLLCLK)
 8004462:	687b      	ldr	r3, [r7, #4]
 8004464:	685b      	ldr	r3, [r3, #4]
 8004466:	2b02      	cmp	r3, #2
 8004468:	d107      	bne.n	800447a <HAL_RCC_ClockConfig+0xb6>
    {
      /* Check the PLL ready flag */  
      if(__HAL_RCC_GET_FLAG(RCC_FLAG_PLLRDY) == RESET)
 800446a:	4b3e      	ldr	r3, [pc, #248]	; (8004564 <HAL_RCC_ClockConfig+0x1a0>)
 800446c:	681a      	ldr	r2, [r3, #0]
 800446e:	2380      	movs	r3, #128	; 0x80
 8004470:	049b      	lsls	r3, r3, #18
 8004472:	4013      	ands	r3, r2
 8004474:	d114      	bne.n	80044a0 <HAL_RCC_ClockConfig+0xdc>
      {
        return HAL_ERROR;
 8004476:	2301      	movs	r3, #1
 8004478:	e06e      	b.n	8004558 <HAL_RCC_ClockConfig+0x194>
      }
    }
#if defined(RCC_CFGR_SWS_HSI48)
    /* HSI48 is selected as System Clock Source */
    else if(RCC_ClkInitStruct->SYSCLKSource == RCC_SYSCLKSOURCE_HSI48)
 800447a:	687b      	ldr	r3, [r7, #4]
 800447c:	685b      	ldr	r3, [r3, #4]
 800447e:	2b03      	cmp	r3, #3
 8004480:	d107      	bne.n	8004492 <HAL_RCC_ClockConfig+0xce>
    {
      /* Check the HSI48 ready flag */
      if(__HAL_RCC_GET_FLAG(RCC_FLAG_HSI48RDY) == RESET)
 8004482:	4b38      	ldr	r3, [pc, #224]	; (8004564 <HAL_RCC_ClockConfig+0x1a0>)
 8004484:	6b5a      	ldr	r2, [r3, #52]	; 0x34
 8004486:	2380      	movs	r3, #128	; 0x80
 8004488:	025b      	lsls	r3, r3, #9
 800448a:	4013      	ands	r3, r2
 800448c:	d108      	bne.n	80044a0 <HAL_RCC_ClockConfig+0xdc>
      {
        return HAL_ERROR;
 800448e:	2301      	movs	r3, #1
 8004490:	e062      	b.n	8004558 <HAL_RCC_ClockConfig+0x194>
#endif /* RCC_CFGR_SWS_HSI48 */
    /* HSI is selected as System Clock Source */
    else
    {
      /* Check the HSI ready flag */  
      if(__HAL_RCC_GET_FLAG(RCC_FLAG_HSIRDY) == RESET)
 8004492:	4b34      	ldr	r3, [pc, #208]	; (8004564 <HAL_RCC_ClockConfig+0x1a0>)
 8004494:	681b      	ldr	r3, [r3, #0]
 8004496:	2202      	movs	r2, #2
 8004498:	4013      	ands	r3, r2
 800449a:	d101      	bne.n	80044a0 <HAL_RCC_ClockConfig+0xdc>
      {
        return HAL_ERROR;
 800449c:	2301      	movs	r3, #1
 800449e:	e05b      	b.n	8004558 <HAL_RCC_ClockConfig+0x194>
      }
    }
    __HAL_RCC_SYSCLK_CONFIG(RCC_ClkInitStruct->SYSCLKSource);
 80044a0:	4b30      	ldr	r3, [pc, #192]	; (8004564 <HAL_RCC_ClockConfig+0x1a0>)
 80044a2:	685b      	ldr	r3, [r3, #4]
 80044a4:	2203      	movs	r2, #3
 80044a6:	4393      	bics	r3, r2
 80044a8:	0019      	movs	r1, r3
 80044aa:	687b      	ldr	r3, [r7, #4]
 80044ac:	685a      	ldr	r2, [r3, #4]
 80044ae:	4b2d      	ldr	r3, [pc, #180]	; (8004564 <HAL_RCC_ClockConfig+0x1a0>)
 80044b0:	430a      	orrs	r2, r1
 80044b2:	605a      	str	r2, [r3, #4]

    /* Get Start Tick */
    tickstart = HAL_GetTick();
 80044b4:	f7fe f964 	bl	8002780 <HAL_GetTick>
 80044b8:	0003      	movs	r3, r0
 80044ba:	60fb      	str	r3, [r7, #12]
    
    while (__HAL_RCC_GET_SYSCLK_SOURCE() != (RCC_ClkInitStruct->SYSCLKSource << RCC_CFGR_SWS_Pos))
 80044bc:	e009      	b.n	80044d2 <HAL_RCC_ClockConfig+0x10e>
    {
      if((HAL_GetTick() - tickstart ) > CLOCKSWITCH_TIMEOUT_VALUE)
 80044be:	f7fe f95f 	bl	8002780 <HAL_GetTick>
 80044c2:	0002      	movs	r2, r0
 80044c4:	68fb      	ldr	r3, [r7, #12]
 80044c6:	1ad3      	subs	r3, r2, r3
 80044c8:	4a27      	ldr	r2, [pc, #156]	; (8004568 <HAL_RCC_ClockConfig+0x1a4>)
 80044ca:	4293      	cmp	r3, r2
 80044cc:	d901      	bls.n	80044d2 <HAL_RCC_ClockConfig+0x10e>
      {
        return HAL_TIMEOUT;
 80044ce:	2303      	movs	r3, #3
 80044d0:	e042      	b.n	8004558 <HAL_RCC_ClockConfig+0x194>
    while (__HAL_RCC_GET_SYSCLK_SOURCE() != (RCC_ClkInitStruct->SYSCLKSource << RCC_CFGR_SWS_Pos))
 80044d2:	4b24      	ldr	r3, [pc, #144]	; (8004564 <HAL_RCC_ClockConfig+0x1a0>)
 80044d4:	685b      	ldr	r3, [r3, #4]
 80044d6:	220c      	movs	r2, #12
 80044d8:	401a      	ands	r2, r3
 80044da:	687b      	ldr	r3, [r7, #4]
 80044dc:	685b      	ldr	r3, [r3, #4]
 80044de:	009b      	lsls	r3, r3, #2
 80044e0:	429a      	cmp	r2, r3
 80044e2:	d1ec      	bne.n	80044be <HAL_RCC_ClockConfig+0xfa>
      }
    }
  }

  /* Decreasing the number of wait states because of lower CPU frequency */
  if(FLatency < __HAL_FLASH_GET_LATENCY())
 80044e4:	4b1e      	ldr	r3, [pc, #120]	; (8004560 <HAL_RCC_ClockConfig+0x19c>)
 80044e6:	681b      	ldr	r3, [r3, #0]
 80044e8:	2201      	movs	r2, #1
 80044ea:	4013      	ands	r3, r2
 80044ec:	683a      	ldr	r2, [r7, #0]
 80044ee:	429a      	cmp	r2, r3
 80044f0:	d211      	bcs.n	8004516 <HAL_RCC_ClockConfig+0x152>
  {    
    /* Program the new number of wait states to the LATENCY bits in the FLASH_ACR register */
    __HAL_FLASH_SET_LATENCY(FLatency);
 80044f2:	4b1b      	ldr	r3, [pc, #108]	; (8004560 <HAL_RCC_ClockConfig+0x19c>)
 80044f4:	681b      	ldr	r3, [r3, #0]
 80044f6:	2201      	movs	r2, #1
 80044f8:	4393      	bics	r3, r2
 80044fa:	0019      	movs	r1, r3
 80044fc:	4b18      	ldr	r3, [pc, #96]	; (8004560 <HAL_RCC_ClockConfig+0x19c>)
 80044fe:	683a      	ldr	r2, [r7, #0]
 8004500:	430a      	orrs	r2, r1
 8004502:	601a      	str	r2, [r3, #0]
    
    /* Check that the new number of wait states is taken into account to access the Flash
    memory by reading the FLASH_ACR register */
    if(__HAL_FLASH_GET_LATENCY() != FLatency)
 8004504:	4b16      	ldr	r3, [pc, #88]	; (8004560 <HAL_RCC_ClockConfig+0x19c>)
 8004506:	681b      	ldr	r3, [r3, #0]
 8004508:	2201      	movs	r2, #1
 800450a:	4013      	ands	r3, r2
 800450c:	683a      	ldr	r2, [r7, #0]
 800450e:	429a      	cmp	r2, r3
 8004510:	d001      	beq.n	8004516 <HAL_RCC_ClockConfig+0x152>
    {
      return HAL_ERROR;
 8004512:	2301      	movs	r3, #1
 8004514:	e020      	b.n	8004558 <HAL_RCC_ClockConfig+0x194>
    }
  }    

  /*-------------------------- PCLK1 Configuration ---------------------------*/ 
  if(((RCC_ClkInitStruct->ClockType) & RCC_CLOCKTYPE_PCLK1) == RCC_CLOCKTYPE_PCLK1)
 8004516:	687b      	ldr	r3, [r7, #4]
 8004518:	681b      	ldr	r3, [r3, #0]
 800451a:	2204      	movs	r2, #4
 800451c:	4013      	ands	r3, r2
 800451e:	d009      	beq.n	8004534 <HAL_RCC_ClockConfig+0x170>
  {
    assert_param(IS_RCC_PCLK(RCC_ClkInitStruct->APB1CLKDivider));
    MODIFY_REG(RCC->CFGR, RCC_CFGR_PPRE, RCC_ClkInitStruct->APB1CLKDivider);
 8004520:	4b10      	ldr	r3, [pc, #64]	; (8004564 <HAL_RCC_ClockConfig+0x1a0>)
 8004522:	685b      	ldr	r3, [r3, #4]
 8004524:	4a11      	ldr	r2, [pc, #68]	; (800456c <HAL_RCC_ClockConfig+0x1a8>)
 8004526:	4013      	ands	r3, r2
 8004528:	0019      	movs	r1, r3
 800452a:	687b      	ldr	r3, [r7, #4]
 800452c:	68da      	ldr	r2, [r3, #12]
 800452e:	4b0d      	ldr	r3, [pc, #52]	; (8004564 <HAL_RCC_ClockConfig+0x1a0>)
 8004530:	430a      	orrs	r2, r1
 8004532:	605a      	str	r2, [r3, #4]
  }
  
  /* Update the SystemCoreClock global variable */
  SystemCoreClock = HAL_RCC_GetSysClockFreq() >> AHBPrescTable[(RCC->CFGR & RCC_CFGR_HPRE)>> RCC_CFGR_HPRE_BITNUMBER];
 8004534:	f000 f820 	bl	8004578 <HAL_RCC_GetSysClockFreq>
 8004538:	0001      	movs	r1, r0
 800453a:	4b0a      	ldr	r3, [pc, #40]	; (8004564 <HAL_RCC_ClockConfig+0x1a0>)
 800453c:	685b      	ldr	r3, [r3, #4]
 800453e:	091b      	lsrs	r3, r3, #4
 8004540:	220f      	movs	r2, #15
 8004542:	4013      	ands	r3, r2
 8004544:	4a0a      	ldr	r2, [pc, #40]	; (8004570 <HAL_RCC_ClockConfig+0x1ac>)
 8004546:	5cd3      	ldrb	r3, [r2, r3]
 8004548:	000a      	movs	r2, r1
 800454a:	40da      	lsrs	r2, r3
 800454c:	4b09      	ldr	r3, [pc, #36]	; (8004574 <HAL_RCC_ClockConfig+0x1b0>)
 800454e:	601a      	str	r2, [r3, #0]

  /* Configure the source of time base considering new system clocks settings*/
  HAL_InitTick (TICK_INT_PRIORITY);
 8004550:	2003      	movs	r0, #3
 8004552:	f7fe f8cf 	bl	80026f4 <HAL_InitTick>
  
  return HAL_OK;
 8004556:	2300      	movs	r3, #0
}
 8004558:	0018      	movs	r0, r3
 800455a:	46bd      	mov	sp, r7
 800455c:	b004      	add	sp, #16
 800455e:	bd80      	pop	{r7, pc}
 8004560:	40022000 	.word	0x40022000
 8004564:	40021000 	.word	0x40021000
 8004568:	00001388 	.word	0x00001388
 800456c:	fffff8ff 	.word	0xfffff8ff
 8004570:	08004f0c 	.word	0x08004f0c
 8004574:	20000000 	.word	0x20000000

08004578 <HAL_RCC_GetSysClockFreq>:
  *         right SYSCLK value. Otherwise, any configuration based on this function will be incorrect.
  *         
  * @retval SYSCLK frequency
  */
uint32_t HAL_RCC_GetSysClockFreq(void)
{
 8004578:	b590      	push	{r4, r7, lr}
 800457a:	b08f      	sub	sp, #60	; 0x3c
 800457c:	af00      	add	r7, sp, #0
  const uint8_t aPLLMULFactorTable[16] = { 2U,  3U,  4U,  5U,  6U,  7U,  8U,  9U,
 800457e:	2314      	movs	r3, #20
 8004580:	18fb      	adds	r3, r7, r3
 8004582:	4a38      	ldr	r2, [pc, #224]	; (8004664 <HAL_RCC_GetSysClockFreq+0xec>)
 8004584:	ca13      	ldmia	r2!, {r0, r1, r4}
 8004586:	c313      	stmia	r3!, {r0, r1, r4}
 8004588:	6812      	ldr	r2, [r2, #0]
 800458a:	601a      	str	r2, [r3, #0]
                                         10U, 11U, 12U, 13U, 14U, 15U, 16U, 16U};
  const uint8_t aPredivFactorTable[16] = { 1U, 2U,  3U,  4U,  5U,  6U,  7U,  8U,
 800458c:	1d3b      	adds	r3, r7, #4
 800458e:	4a36      	ldr	r2, [pc, #216]	; (8004668 <HAL_RCC_GetSysClockFreq+0xf0>)
 8004590:	ca13      	ldmia	r2!, {r0, r1, r4}
 8004592:	c313      	stmia	r3!, {r0, r1, r4}
 8004594:	6812      	ldr	r2, [r2, #0]
 8004596:	601a      	str	r2, [r3, #0]
                                           9U,10U, 11U, 12U, 13U, 14U, 15U, 16U};

  uint32_t tmpreg = 0U, prediv = 0U, pllclk = 0U, pllmul = 0U;
 8004598:	2300      	movs	r3, #0
 800459a:	62fb      	str	r3, [r7, #44]	; 0x2c
 800459c:	2300      	movs	r3, #0
 800459e:	62bb      	str	r3, [r7, #40]	; 0x28
 80045a0:	2300      	movs	r3, #0
 80045a2:	637b      	str	r3, [r7, #52]	; 0x34
 80045a4:	2300      	movs	r3, #0
 80045a6:	627b      	str	r3, [r7, #36]	; 0x24
  uint32_t sysclockfreq = 0U;
 80045a8:	2300      	movs	r3, #0
 80045aa:	633b      	str	r3, [r7, #48]	; 0x30
  
  tmpreg = RCC->CFGR;
 80045ac:	4b2f      	ldr	r3, [pc, #188]	; (800466c <HAL_RCC_GetSysClockFreq+0xf4>)
 80045ae:	685b      	ldr	r3, [r3, #4]
 80045b0:	62fb      	str	r3, [r7, #44]	; 0x2c
  
  /* Get SYSCLK source -------------------------------------------------------*/
  switch (tmpreg & RCC_CFGR_SWS)
 80045b2:	6afb      	ldr	r3, [r7, #44]	; 0x2c
 80045b4:	220c      	movs	r2, #12
 80045b6:	4013      	ands	r3, r2
 80045b8:	2b0c      	cmp	r3, #12
 80045ba:	d047      	beq.n	800464c <HAL_RCC_GetSysClockFreq+0xd4>
 80045bc:	d849      	bhi.n	8004652 <HAL_RCC_GetSysClockFreq+0xda>
 80045be:	2b04      	cmp	r3, #4
 80045c0:	d002      	beq.n	80045c8 <HAL_RCC_GetSysClockFreq+0x50>
 80045c2:	2b08      	cmp	r3, #8
 80045c4:	d003      	beq.n	80045ce <HAL_RCC_GetSysClockFreq+0x56>
 80045c6:	e044      	b.n	8004652 <HAL_RCC_GetSysClockFreq+0xda>
  {
    case RCC_SYSCLKSOURCE_STATUS_HSE:  /* HSE used as system clock */
    {
      sysclockfreq = HSE_VALUE;
 80045c8:	4b29      	ldr	r3, [pc, #164]	; (8004670 <HAL_RCC_GetSysClockFreq+0xf8>)
 80045ca:	633b      	str	r3, [r7, #48]	; 0x30
      break;
 80045cc:	e044      	b.n	8004658 <HAL_RCC_GetSysClockFreq+0xe0>
    }
    case RCC_SYSCLKSOURCE_STATUS_PLLCLK:  /* PLL used as system clock */
    {
      pllmul = aPLLMULFactorTable[(uint32_t)(tmpreg & RCC_CFGR_PLLMUL) >> RCC_CFGR_PLLMUL_BITNUMBER];
 80045ce:	6afb      	ldr	r3, [r7, #44]	; 0x2c
 80045d0:	0c9b      	lsrs	r3, r3, #18
 80045d2:	220f      	movs	r2, #15
 80045d4:	4013      	ands	r3, r2
 80045d6:	2214      	movs	r2, #20
 80045d8:	18ba      	adds	r2, r7, r2
 80045da:	5cd3      	ldrb	r3, [r2, r3]
 80045dc:	627b      	str	r3, [r7, #36]	; 0x24
      prediv = aPredivFactorTable[(uint32_t)(RCC->CFGR2 & RCC_CFGR2_PREDIV) >> RCC_CFGR2_PREDIV_BITNUMBER];
 80045de:	4b23      	ldr	r3, [pc, #140]	; (800466c <HAL_RCC_GetSysClockFreq+0xf4>)
 80045e0:	6adb      	ldr	r3, [r3, #44]	; 0x2c
 80045e2:	220f      	movs	r2, #15
 80045e4:	4013      	ands	r3, r2
 80045e6:	1d3a      	adds	r2, r7, #4
 80045e8:	5cd3      	ldrb	r3, [r2, r3]
 80045ea:	62bb      	str	r3, [r7, #40]	; 0x28
      if ((tmpreg & RCC_CFGR_PLLSRC) == RCC_PLLSOURCE_HSE)
 80045ec:	6afa      	ldr	r2, [r7, #44]	; 0x2c
 80045ee:	23c0      	movs	r3, #192	; 0xc0
 80045f0:	025b      	lsls	r3, r3, #9
 80045f2:	401a      	ands	r2, r3
 80045f4:	2380      	movs	r3, #128	; 0x80
 80045f6:	025b      	lsls	r3, r3, #9
 80045f8:	429a      	cmp	r2, r3
 80045fa:	d109      	bne.n	8004610 <HAL_RCC_GetSysClockFreq+0x98>
      {
        /* HSE used as PLL clock source : PLLCLK = HSE/PREDIV * PLLMUL */
        pllclk = (uint32_t)((uint64_t) HSE_VALUE / (uint64_t) (prediv)) * ((uint64_t) pllmul);
 80045fc:	6ab9      	ldr	r1, [r7, #40]	; 0x28
 80045fe:	481c      	ldr	r0, [pc, #112]	; (8004670 <HAL_RCC_GetSysClockFreq+0xf8>)
 8004600:	f7fb fd80 	bl	8000104 <__udivsi3>
 8004604:	0003      	movs	r3, r0
 8004606:	001a      	movs	r2, r3
 8004608:	6a7b      	ldr	r3, [r7, #36]	; 0x24
 800460a:	4353      	muls	r3, r2
 800460c:	637b      	str	r3, [r7, #52]	; 0x34
 800460e:	e01a      	b.n	8004646 <HAL_RCC_GetSysClockFreq+0xce>
      }
#if defined(RCC_CFGR_PLLSRC_HSI48_PREDIV)
      else if ((tmpreg & RCC_CFGR_PLLSRC) == RCC_PLLSOURCE_HSI48)
 8004610:	6afa      	ldr	r2, [r7, #44]	; 0x2c
 8004612:	23c0      	movs	r3, #192	; 0xc0
 8004614:	025b      	lsls	r3, r3, #9
 8004616:	401a      	ands	r2, r3
 8004618:	23c0      	movs	r3, #192	; 0xc0
 800461a:	025b      	lsls	r3, r3, #9
 800461c:	429a      	cmp	r2, r3
 800461e:	d109      	bne.n	8004634 <HAL_RCC_GetSysClockFreq+0xbc>
      {
        /* HSI48 used as PLL clock source : PLLCLK = HSI48/PREDIV * PLLMUL */
        pllclk = (uint32_t)((uint64_t) HSI48_VALUE / (uint64_t) (prediv)) * ((uint64_t) pllmul);
 8004620:	6ab9      	ldr	r1, [r7, #40]	; 0x28
 8004622:	4814      	ldr	r0, [pc, #80]	; (8004674 <HAL_RCC_GetSysClockFreq+0xfc>)
 8004624:	f7fb fd6e 	bl	8000104 <__udivsi3>
 8004628:	0003      	movs	r3, r0
 800462a:	001a      	movs	r2, r3
 800462c:	6a7b      	ldr	r3, [r7, #36]	; 0x24
 800462e:	4353      	muls	r3, r2
 8004630:	637b      	str	r3, [r7, #52]	; 0x34
 8004632:	e008      	b.n	8004646 <HAL_RCC_GetSysClockFreq+0xce>
#endif /* RCC_CFGR_PLLSRC_HSI48_PREDIV */
      else
      {
#if  (defined(STM32F042x6) || defined(STM32F048xx) || defined(STM32F070x6) || defined(STM32F071xB) || defined(STM32F072xB) || defined(STM32F078xx) || defined(STM32F070xB) || defined(STM32F091xC) || defined(STM32F098xx) || defined(STM32F030xC))
        /* HSI used as PLL clock source : PLLCLK = HSI/PREDIV * PLLMUL */
        pllclk = (uint32_t)((uint64_t) HSI_VALUE / (uint64_t) (prediv)) * ((uint64_t) pllmul);
 8004634:	6ab9      	ldr	r1, [r7, #40]	; 0x28
 8004636:	4810      	ldr	r0, [pc, #64]	; (8004678 <HAL_RCC_GetSysClockFreq+0x100>)
 8004638:	f7fb fd64 	bl	8000104 <__udivsi3>
 800463c:	0003      	movs	r3, r0
 800463e:	001a      	movs	r2, r3
 8004640:	6a7b      	ldr	r3, [r7, #36]	; 0x24
 8004642:	4353      	muls	r3, r2
 8004644:	637b      	str	r3, [r7, #52]	; 0x34
#else
        /* HSI used as PLL clock source : PLLCLK = HSI/2 * PLLMUL */
        pllclk = (uint32_t)((uint64_t) (HSI_VALUE >> 1U) * ((uint64_t) pllmul));
#endif
      }
      sysclockfreq = pllclk;
 8004646:	6b7b      	ldr	r3, [r7, #52]	; 0x34
 8004648:	633b      	str	r3, [r7, #48]	; 0x30
      break;
 800464a:	e005      	b.n	8004658 <HAL_RCC_GetSysClockFreq+0xe0>
    }
#if defined(RCC_CFGR_SWS_HSI48)
    case RCC_SYSCLKSOURCE_STATUS_HSI48:    /* HSI48 used as system clock source */
    {
      sysclockfreq = HSI48_VALUE;
 800464c:	4b09      	ldr	r3, [pc, #36]	; (8004674 <HAL_RCC_GetSysClockFreq+0xfc>)
 800464e:	633b      	str	r3, [r7, #48]	; 0x30
      break;
 8004650:	e002      	b.n	8004658 <HAL_RCC_GetSysClockFreq+0xe0>
    }
#endif /* RCC_CFGR_SWS_HSI48 */
    case RCC_SYSCLKSOURCE_STATUS_HSI:  /* HSI used as system clock source */
    default: /* HSI used as system clock */
    {
      sysclockfreq = HSI_VALUE;
 8004652:	4b09      	ldr	r3, [pc, #36]	; (8004678 <HAL_RCC_GetSysClockFreq+0x100>)
 8004654:	633b      	str	r3, [r7, #48]	; 0x30
      break;
 8004656:	46c0      	nop			; (mov r8, r8)
    }
  }
  return sysclockfreq;
 8004658:	6b3b      	ldr	r3, [r7, #48]	; 0x30
}
 800465a:	0018      	movs	r0, r3
 800465c:	46bd      	mov	sp, r7
 800465e:	b00f      	add	sp, #60	; 0x3c
 8004660:	bd90      	pop	{r4, r7, pc}
 8004662:	46c0      	nop			; (mov r8, r8)
 8004664:	08004eec 	.word	0x08004eec
 8004668:	08004efc 	.word	0x08004efc
 800466c:	40021000 	.word	0x40021000
 8004670:	00b71b00 	.word	0x00b71b00
 8004674:	02dc6c00 	.word	0x02dc6c00
 8004678:	007a1200 	.word	0x007a1200

0800467c <HAL_SPI_Init>:
  * @param  hspi pointer to a SPI_HandleTypeDef structure that contains
  *               the configuration information for SPI module.
  * @retval HAL status
  */
HAL_StatusTypeDef HAL_SPI_Init(SPI_HandleTypeDef *hspi)
{
 800467c:	b580      	push	{r7, lr}
 800467e:	b084      	sub	sp, #16
 8004680:	af00      	add	r7, sp, #0
 8004682:	6078      	str	r0, [r7, #4]
  uint32_t frxth;

  /* Check the SPI handle allocation */
  if (hspi == NULL)
 8004684:	687b      	ldr	r3, [r7, #4]
 8004686:	2b00      	cmp	r3, #0
 8004688:	d101      	bne.n	800468e <HAL_SPI_Init+0x12>
  {
    return HAL_ERROR;
 800468a:	2301      	movs	r3, #1
 800468c:	e0a8      	b.n	80047e0 <HAL_SPI_Init+0x164>
  assert_param(IS_SPI_NSS(hspi->Init.NSS));
  assert_param(IS_SPI_NSSP(hspi->Init.NSSPMode));
  assert_param(IS_SPI_BAUDRATE_PRESCALER(hspi->Init.BaudRatePrescaler));
  assert_param(IS_SPI_FIRST_BIT(hspi->Init.FirstBit));
  assert_param(IS_SPI_TIMODE(hspi->Init.TIMode));
  if (hspi->Init.TIMode == SPI_TIMODE_DISABLE)
 800468e:	687b      	ldr	r3, [r7, #4]
 8004690:	6a5b      	ldr	r3, [r3, #36]	; 0x24
 8004692:	2b00      	cmp	r3, #0
 8004694:	d109      	bne.n	80046aa <HAL_SPI_Init+0x2e>
  {
    assert_param(IS_SPI_CPOL(hspi->Init.CLKPolarity));
    assert_param(IS_SPI_CPHA(hspi->Init.CLKPhase));

    if (hspi->Init.Mode == SPI_MODE_MASTER)
 8004696:	687b      	ldr	r3, [r7, #4]
 8004698:	685a      	ldr	r2, [r3, #4]
 800469a:	2382      	movs	r3, #130	; 0x82
 800469c:	005b      	lsls	r3, r3, #1
 800469e:	429a      	cmp	r2, r3
 80046a0:	d009      	beq.n	80046b6 <HAL_SPI_Init+0x3a>
      assert_param(IS_SPI_BAUDRATE_PRESCALER(hspi->Init.BaudRatePrescaler));
    }
    else
    {
      /* Baudrate prescaler not use in Motoraola Slave mode. force to default value */
      hspi->Init.BaudRatePrescaler = SPI_BAUDRATEPRESCALER_2;
 80046a2:	687b      	ldr	r3, [r7, #4]
 80046a4:	2200      	movs	r2, #0
 80046a6:	61da      	str	r2, [r3, #28]
 80046a8:	e005      	b.n	80046b6 <HAL_SPI_Init+0x3a>
  else
  {
    assert_param(IS_SPI_BAUDRATE_PRESCALER(hspi->Init.BaudRatePrescaler));

    /* Force polarity and phase to TI protocaol requirements */
    hspi->Init.CLKPolarity = SPI_POLARITY_LOW;
 80046aa:	687b      	ldr	r3, [r7, #4]
 80046ac:	2200      	movs	r2, #0
 80046ae:	611a      	str	r2, [r3, #16]
    hspi->Init.CLKPhase    = SPI_PHASE_1EDGE;
 80046b0:	687b      	ldr	r3, [r7, #4]
 80046b2:	2200      	movs	r2, #0
 80046b4:	615a      	str	r2, [r3, #20]
  {
    assert_param(IS_SPI_CRC_POLYNOMIAL(hspi->Init.CRCPolynomial));
    assert_param(IS_SPI_CRC_LENGTH(hspi->Init.CRCLength));
  }
#else
  hspi->Init.CRCCalculation = SPI_CRCCALCULATION_DISABLE;
 80046b6:	687b      	ldr	r3, [r7, #4]
 80046b8:	2200      	movs	r2, #0
 80046ba:	629a      	str	r2, [r3, #40]	; 0x28
#endif /* USE_SPI_CRC */

  if (hspi->State == HAL_SPI_STATE_RESET)
 80046bc:	687b      	ldr	r3, [r7, #4]
 80046be:	225d      	movs	r2, #93	; 0x5d
 80046c0:	5c9b      	ldrb	r3, [r3, r2]
 80046c2:	b2db      	uxtb	r3, r3
 80046c4:	2b00      	cmp	r3, #0
 80046c6:	d107      	bne.n	80046d8 <HAL_SPI_Init+0x5c>
  {
    /* Allocate lock resource and initialize it */
    hspi->Lock = HAL_UNLOCKED;
 80046c8:	687b      	ldr	r3, [r7, #4]
 80046ca:	225c      	movs	r2, #92	; 0x5c
 80046cc:	2100      	movs	r1, #0
 80046ce:	5499      	strb	r1, [r3, r2]

    /* Init the low level hardware : GPIO, CLOCK, NVIC... */
    hspi->MspInitCallback(hspi);
#else
    /* Init the low level hardware : GPIO, CLOCK, NVIC... */
    HAL_SPI_MspInit(hspi);
 80046d0:	687b      	ldr	r3, [r7, #4]
 80046d2:	0018      	movs	r0, r3
 80046d4:	f7fd ff14 	bl	8002500 <HAL_SPI_MspInit>
#endif /* USE_HAL_SPI_REGISTER_CALLBACKS */
  }

  hspi->State = HAL_SPI_STATE_BUSY;
 80046d8:	687b      	ldr	r3, [r7, #4]
 80046da:	225d      	movs	r2, #93	; 0x5d
 80046dc:	2102      	movs	r1, #2
 80046de:	5499      	strb	r1, [r3, r2]

  /* Disable the selected SPI peripheral */
  __HAL_SPI_DISABLE(hspi);
 80046e0:	687b      	ldr	r3, [r7, #4]
 80046e2:	681b      	ldr	r3, [r3, #0]
 80046e4:	681a      	ldr	r2, [r3, #0]
 80046e6:	687b      	ldr	r3, [r7, #4]
 80046e8:	681b      	ldr	r3, [r3, #0]
 80046ea:	2140      	movs	r1, #64	; 0x40
 80046ec:	438a      	bics	r2, r1
 80046ee:	601a      	str	r2, [r3, #0]

  /* Align by default the rs fifo threshold on the data size */
  if (hspi->Init.DataSize > SPI_DATASIZE_8BIT)
 80046f0:	687b      	ldr	r3, [r7, #4]
 80046f2:	68da      	ldr	r2, [r3, #12]
 80046f4:	23e0      	movs	r3, #224	; 0xe0
 80046f6:	00db      	lsls	r3, r3, #3
 80046f8:	429a      	cmp	r2, r3
 80046fa:	d902      	bls.n	8004702 <HAL_SPI_Init+0x86>
  {
    frxth = SPI_RXFIFO_THRESHOLD_HF;
 80046fc:	2300      	movs	r3, #0
 80046fe:	60fb      	str	r3, [r7, #12]
 8004700:	e002      	b.n	8004708 <HAL_SPI_Init+0x8c>
  }
  else
  {
    frxth = SPI_RXFIFO_THRESHOLD_QF;
 8004702:	2380      	movs	r3, #128	; 0x80
 8004704:	015b      	lsls	r3, r3, #5
 8004706:	60fb      	str	r3, [r7, #12]
  }

  /* CRC calculation is valid only for 16Bit and 8 Bit */
  if ((hspi->Init.DataSize != SPI_DATASIZE_16BIT) && (hspi->Init.DataSize != SPI_DATASIZE_8BIT))
 8004708:	687b      	ldr	r3, [r7, #4]
 800470a:	68da      	ldr	r2, [r3, #12]
 800470c:	23f0      	movs	r3, #240	; 0xf0
 800470e:	011b      	lsls	r3, r3, #4
 8004710:	429a      	cmp	r2, r3
 8004712:	d008      	beq.n	8004726 <HAL_SPI_Init+0xaa>
 8004714:	687b      	ldr	r3, [r7, #4]
 8004716:	68da      	ldr	r2, [r3, #12]
 8004718:	23e0      	movs	r3, #224	; 0xe0
 800471a:	00db      	lsls	r3, r3, #3
 800471c:	429a      	cmp	r2, r3
 800471e:	d002      	beq.n	8004726 <HAL_SPI_Init+0xaa>
  {
    /* CRC must be disabled */
    hspi->Init.CRCCalculation = SPI_CRCCALCULATION_DISABLE;
 8004720:	687b      	ldr	r3, [r7, #4]
 8004722:	2200      	movs	r2, #0
 8004724:	629a      	str	r2, [r3, #40]	; 0x28
  }

  /*----------------------- SPIx CR1 & CR2 Configuration ---------------------*/
  /* Configure : SPI Mode, Communication Mode, Clock polarity and phase, NSS management,
  Communication speed, First bit and CRC calculation state */
  WRITE_REG(hspi->Instance->CR1, ((hspi->Init.Mode & (SPI_CR1_MSTR | SPI_CR1_SSI)) |
 8004726:	687b      	ldr	r3, [r7, #4]
 8004728:	685a      	ldr	r2, [r3, #4]
 800472a:	2382      	movs	r3, #130	; 0x82
 800472c:	005b      	lsls	r3, r3, #1
 800472e:	401a      	ands	r2, r3
 8004730:	687b      	ldr	r3, [r7, #4]
 8004732:	6899      	ldr	r1, [r3, #8]
 8004734:	2384      	movs	r3, #132	; 0x84
 8004736:	021b      	lsls	r3, r3, #8
 8004738:	400b      	ands	r3, r1
 800473a:	431a      	orrs	r2, r3
 800473c:	687b      	ldr	r3, [r7, #4]
 800473e:	691b      	ldr	r3, [r3, #16]
 8004740:	2102      	movs	r1, #2
 8004742:	400b      	ands	r3, r1
 8004744:	431a      	orrs	r2, r3
 8004746:	687b      	ldr	r3, [r7, #4]
 8004748:	695b      	ldr	r3, [r3, #20]
 800474a:	2101      	movs	r1, #1
 800474c:	400b      	ands	r3, r1
 800474e:	431a      	orrs	r2, r3
 8004750:	687b      	ldr	r3, [r7, #4]
 8004752:	6999      	ldr	r1, [r3, #24]
 8004754:	2380      	movs	r3, #128	; 0x80
 8004756:	009b      	lsls	r3, r3, #2
 8004758:	400b      	ands	r3, r1
 800475a:	431a      	orrs	r2, r3
 800475c:	687b      	ldr	r3, [r7, #4]
 800475e:	69db      	ldr	r3, [r3, #28]
 8004760:	2138      	movs	r1, #56	; 0x38
 8004762:	400b      	ands	r3, r1
 8004764:	431a      	orrs	r2, r3
 8004766:	687b      	ldr	r3, [r7, #4]
 8004768:	6a1b      	ldr	r3, [r3, #32]
 800476a:	2180      	movs	r1, #128	; 0x80
 800476c:	400b      	ands	r3, r1
 800476e:	431a      	orrs	r2, r3
 8004770:	0011      	movs	r1, r2
 8004772:	687b      	ldr	r3, [r7, #4]
 8004774:	6a9a      	ldr	r2, [r3, #40]	; 0x28
 8004776:	2380      	movs	r3, #128	; 0x80
 8004778:	019b      	lsls	r3, r3, #6
 800477a:	401a      	ands	r2, r3
 800477c:	687b      	ldr	r3, [r7, #4]
 800477e:	681b      	ldr	r3, [r3, #0]
 8004780:	430a      	orrs	r2, r1
 8004782:	601a      	str	r2, [r3, #0]
    }
  }
#endif /* USE_SPI_CRC */

  /* Configure : NSS management, TI Mode, NSS Pulse, Data size and Rx Fifo threshold */
  WRITE_REG(hspi->Instance->CR2, (((hspi->Init.NSS >> 16U) & SPI_CR2_SSOE) |
 8004784:	687b      	ldr	r3, [r7, #4]
 8004786:	699b      	ldr	r3, [r3, #24]
 8004788:	0c1b      	lsrs	r3, r3, #16
 800478a:	2204      	movs	r2, #4
 800478c:	401a      	ands	r2, r3
 800478e:	687b      	ldr	r3, [r7, #4]
 8004790:	6a5b      	ldr	r3, [r3, #36]	; 0x24
 8004792:	2110      	movs	r1, #16
 8004794:	400b      	ands	r3, r1
 8004796:	431a      	orrs	r2, r3
 8004798:	687b      	ldr	r3, [r7, #4]
 800479a:	6b5b      	ldr	r3, [r3, #52]	; 0x34
 800479c:	2108      	movs	r1, #8
 800479e:	400b      	ands	r3, r1
 80047a0:	431a      	orrs	r2, r3
 80047a2:	687b      	ldr	r3, [r7, #4]
 80047a4:	68d9      	ldr	r1, [r3, #12]
 80047a6:	23f0      	movs	r3, #240	; 0xf0
 80047a8:	011b      	lsls	r3, r3, #4
 80047aa:	400b      	ands	r3, r1
 80047ac:	431a      	orrs	r2, r3
 80047ae:	0011      	movs	r1, r2
 80047b0:	68fa      	ldr	r2, [r7, #12]
 80047b2:	2380      	movs	r3, #128	; 0x80
 80047b4:	015b      	lsls	r3, r3, #5
 80047b6:	401a      	ands	r2, r3
 80047b8:	687b      	ldr	r3, [r7, #4]
 80047ba:	681b      	ldr	r3, [r3, #0]
 80047bc:	430a      	orrs	r2, r1
 80047be:	605a      	str	r2, [r3, #4]
  }
#endif /* USE_SPI_CRC */

#if defined(SPI_I2SCFGR_I2SMOD)
  /* Activate the SPI mode (Make sure that I2SMOD bit in I2SCFGR register is reset) */
  CLEAR_BIT(hspi->Instance->I2SCFGR, SPI_I2SCFGR_I2SMOD);
 80047c0:	687b      	ldr	r3, [r7, #4]
 80047c2:	681b      	ldr	r3, [r3, #0]
 80047c4:	69da      	ldr	r2, [r3, #28]
 80047c6:	687b      	ldr	r3, [r7, #4]
 80047c8:	681b      	ldr	r3, [r3, #0]
 80047ca:	4907      	ldr	r1, [pc, #28]	; (80047e8 <HAL_SPI_Init+0x16c>)
 80047cc:	400a      	ands	r2, r1
 80047ce:	61da      	str	r2, [r3, #28]
#endif /* SPI_I2SCFGR_I2SMOD */

  hspi->ErrorCode = HAL_SPI_ERROR_NONE;
 80047d0:	687b      	ldr	r3, [r7, #4]
 80047d2:	2200      	movs	r2, #0
 80047d4:	661a      	str	r2, [r3, #96]	; 0x60
  hspi->State     = HAL_SPI_STATE_READY;
 80047d6:	687b      	ldr	r3, [r7, #4]
 80047d8:	225d      	movs	r2, #93	; 0x5d
 80047da:	2101      	movs	r1, #1
 80047dc:	5499      	strb	r1, [r3, r2]

  return HAL_OK;
 80047de:	2300      	movs	r3, #0
}
 80047e0:	0018      	movs	r0, r3
 80047e2:	46bd      	mov	sp, r7
 80047e4:	b004      	add	sp, #16
 80047e6:	bd80      	pop	{r7, pc}
 80047e8:	fffff7ff 	.word	0xfffff7ff

080047ec <HAL_SPI_TransmitReceive>:
  * @param  Timeout Timeout duration
  * @retval HAL status
  */
HAL_StatusTypeDef HAL_SPI_TransmitReceive(SPI_HandleTypeDef *hspi, uint8_t *pTxData, uint8_t *pRxData, uint16_t Size,
                                          uint32_t Timeout)
{
 80047ec:	b580      	push	{r7, lr}
 80047ee:	b08a      	sub	sp, #40	; 0x28
 80047f0:	af00      	add	r7, sp, #0
 80047f2:	60f8      	str	r0, [r7, #12]
 80047f4:	60b9      	str	r1, [r7, #8]
 80047f6:	607a      	str	r2, [r7, #4]
 80047f8:	001a      	movs	r2, r3
 80047fa:	1cbb      	adds	r3, r7, #2
 80047fc:	801a      	strh	r2, [r3, #0]
  __IO uint8_t  * ptmpreg8;
  __IO uint8_t  tmpreg8 = 0;
#endif /* USE_SPI_CRC */

  /* Variable used to alternate Rx and Tx during transfer */
  uint32_t             txallowed = 1U;
 80047fe:	2301      	movs	r3, #1
 8004800:	627b      	str	r3, [r7, #36]	; 0x24
  HAL_StatusTypeDef    errorcode = HAL_OK;
 8004802:	2323      	movs	r3, #35	; 0x23
 8004804:	18fb      	adds	r3, r7, r3
 8004806:	2200      	movs	r2, #0
 8004808:	701a      	strb	r2, [r3, #0]

  /* Check Direction parameter */
  assert_param(IS_SPI_DIRECTION_2LINES(hspi->Init.Direction));

  /* Process Locked */
  __HAL_LOCK(hspi);
 800480a:	68fb      	ldr	r3, [r7, #12]
 800480c:	225c      	movs	r2, #92	; 0x5c
 800480e:	5c9b      	ldrb	r3, [r3, r2]
 8004810:	2b01      	cmp	r3, #1
 8004812:	d101      	bne.n	8004818 <HAL_SPI_TransmitReceive+0x2c>
 8004814:	2302      	movs	r3, #2
 8004816:	e1b5      	b.n	8004b84 <HAL_SPI_TransmitReceive+0x398>
 8004818:	68fb      	ldr	r3, [r7, #12]
 800481a:	225c      	movs	r2, #92	; 0x5c
 800481c:	2101      	movs	r1, #1
 800481e:	5499      	strb	r1, [r3, r2]

  /* Init tickstart for timeout management*/
  tickstart = HAL_GetTick();
 8004820:	f7fd ffae 	bl	8002780 <HAL_GetTick>
 8004824:	0003      	movs	r3, r0
 8004826:	61fb      	str	r3, [r7, #28]

  /* Init temporary variables */
  tmp_state           = hspi->State;
 8004828:	201b      	movs	r0, #27
 800482a:	183b      	adds	r3, r7, r0
 800482c:	68fa      	ldr	r2, [r7, #12]
 800482e:	215d      	movs	r1, #93	; 0x5d
 8004830:	5c52      	ldrb	r2, [r2, r1]
 8004832:	701a      	strb	r2, [r3, #0]
  tmp_mode            = hspi->Init.Mode;
 8004834:	68fb      	ldr	r3, [r7, #12]
 8004836:	685b      	ldr	r3, [r3, #4]
 8004838:	617b      	str	r3, [r7, #20]
  initial_TxXferCount = Size;
 800483a:	2312      	movs	r3, #18
 800483c:	18fb      	adds	r3, r7, r3
 800483e:	1cba      	adds	r2, r7, #2
 8004840:	8812      	ldrh	r2, [r2, #0]
 8004842:	801a      	strh	r2, [r3, #0]
#if (USE_SPI_CRC != 0U)
  spi_cr1             = READ_REG(hspi->Instance->CR1);
  spi_cr2             = READ_REG(hspi->Instance->CR2);
#endif /* USE_SPI_CRC */

  if (!((tmp_state == HAL_SPI_STATE_READY) || \
 8004844:	183b      	adds	r3, r7, r0
 8004846:	781b      	ldrb	r3, [r3, #0]
 8004848:	2b01      	cmp	r3, #1
 800484a:	d011      	beq.n	8004870 <HAL_SPI_TransmitReceive+0x84>
 800484c:	697a      	ldr	r2, [r7, #20]
 800484e:	2382      	movs	r3, #130	; 0x82
 8004850:	005b      	lsls	r3, r3, #1
 8004852:	429a      	cmp	r2, r3
 8004854:	d107      	bne.n	8004866 <HAL_SPI_TransmitReceive+0x7a>
        ((tmp_mode == SPI_MODE_MASTER) && (hspi->Init.Direction == SPI_DIRECTION_2LINES) && (tmp_state == HAL_SPI_STATE_BUSY_RX))))
 8004856:	68fb      	ldr	r3, [r7, #12]
 8004858:	689b      	ldr	r3, [r3, #8]
 800485a:	2b00      	cmp	r3, #0
 800485c:	d103      	bne.n	8004866 <HAL_SPI_TransmitReceive+0x7a>
 800485e:	183b      	adds	r3, r7, r0
 8004860:	781b      	ldrb	r3, [r3, #0]
 8004862:	2b04      	cmp	r3, #4
 8004864:	d004      	beq.n	8004870 <HAL_SPI_TransmitReceive+0x84>
  {
    errorcode = HAL_BUSY;
 8004866:	2323      	movs	r3, #35	; 0x23
 8004868:	18fb      	adds	r3, r7, r3
 800486a:	2202      	movs	r2, #2
 800486c:	701a      	strb	r2, [r3, #0]
    goto error;
 800486e:	e17e      	b.n	8004b6e <HAL_SPI_TransmitReceive+0x382>
  }

  if ((pTxData == NULL) || (pRxData == NULL) || (Size == 0U))
 8004870:	68bb      	ldr	r3, [r7, #8]
 8004872:	2b00      	cmp	r3, #0
 8004874:	d006      	beq.n	8004884 <HAL_SPI_TransmitReceive+0x98>
 8004876:	687b      	ldr	r3, [r7, #4]
 8004878:	2b00      	cmp	r3, #0
 800487a:	d003      	beq.n	8004884 <HAL_SPI_TransmitReceive+0x98>
 800487c:	1cbb      	adds	r3, r7, #2
 800487e:	881b      	ldrh	r3, [r3, #0]
 8004880:	2b00      	cmp	r3, #0
 8004882:	d104      	bne.n	800488e <HAL_SPI_TransmitReceive+0xa2>
  {
    errorcode = HAL_ERROR;
 8004884:	2323      	movs	r3, #35	; 0x23
 8004886:	18fb      	adds	r3, r7, r3
 8004888:	2201      	movs	r2, #1
 800488a:	701a      	strb	r2, [r3, #0]
    goto error;
 800488c:	e16f      	b.n	8004b6e <HAL_SPI_TransmitReceive+0x382>
  }

  /* Don't overwrite in case of HAL_SPI_STATE_BUSY_RX */
  if (hspi->State != HAL_SPI_STATE_BUSY_RX)
 800488e:	68fb      	ldr	r3, [r7, #12]
 8004890:	225d      	movs	r2, #93	; 0x5d
 8004892:	5c9b      	ldrb	r3, [r3, r2]
 8004894:	b2db      	uxtb	r3, r3
 8004896:	2b04      	cmp	r3, #4
 8004898:	d003      	beq.n	80048a2 <HAL_SPI_TransmitReceive+0xb6>
  {
    hspi->State = HAL_SPI_STATE_BUSY_TX_RX;
 800489a:	68fb      	ldr	r3, [r7, #12]
 800489c:	225d      	movs	r2, #93	; 0x5d
 800489e:	2105      	movs	r1, #5
 80048a0:	5499      	strb	r1, [r3, r2]
  }

  /* Set the transaction information */
  hspi->ErrorCode   = HAL_SPI_ERROR_NONE;
 80048a2:	68fb      	ldr	r3, [r7, #12]
 80048a4:	2200      	movs	r2, #0
 80048a6:	661a      	str	r2, [r3, #96]	; 0x60
  hspi->pRxBuffPtr  = (uint8_t *)pRxData;
 80048a8:	68fb      	ldr	r3, [r7, #12]
 80048aa:	687a      	ldr	r2, [r7, #4]
 80048ac:	641a      	str	r2, [r3, #64]	; 0x40
  hspi->RxXferCount = Size;
 80048ae:	68fb      	ldr	r3, [r7, #12]
 80048b0:	1cba      	adds	r2, r7, #2
 80048b2:	2146      	movs	r1, #70	; 0x46
 80048b4:	8812      	ldrh	r2, [r2, #0]
 80048b6:	525a      	strh	r2, [r3, r1]
  hspi->RxXferSize  = Size;
 80048b8:	68fb      	ldr	r3, [r7, #12]
 80048ba:	1cba      	adds	r2, r7, #2
 80048bc:	2144      	movs	r1, #68	; 0x44
 80048be:	8812      	ldrh	r2, [r2, #0]
 80048c0:	525a      	strh	r2, [r3, r1]
  hspi->pTxBuffPtr  = (uint8_t *)pTxData;
 80048c2:	68fb      	ldr	r3, [r7, #12]
 80048c4:	68ba      	ldr	r2, [r7, #8]
 80048c6:	639a      	str	r2, [r3, #56]	; 0x38
  hspi->TxXferCount = Size;
 80048c8:	68fb      	ldr	r3, [r7, #12]
 80048ca:	1cba      	adds	r2, r7, #2
 80048cc:	8812      	ldrh	r2, [r2, #0]
 80048ce:	87da      	strh	r2, [r3, #62]	; 0x3e
  hspi->TxXferSize  = Size;
 80048d0:	68fb      	ldr	r3, [r7, #12]
 80048d2:	1cba      	adds	r2, r7, #2
 80048d4:	8812      	ldrh	r2, [r2, #0]
 80048d6:	879a      	strh	r2, [r3, #60]	; 0x3c

  /*Init field not used in handle to zero */
  hspi->RxISR       = NULL;
 80048d8:	68fb      	ldr	r3, [r7, #12]
 80048da:	2200      	movs	r2, #0
 80048dc:	64da      	str	r2, [r3, #76]	; 0x4c
  hspi->TxISR       = NULL;
 80048de:	68fb      	ldr	r3, [r7, #12]
 80048e0:	2200      	movs	r2, #0
 80048e2:	651a      	str	r2, [r3, #80]	; 0x50
    SPI_RESET_CRC(hspi);
  }
#endif /* USE_SPI_CRC */

  /* Set the Rx Fifo threshold */
  if (hspi->Init.DataSize > SPI_DATASIZE_8BIT)
 80048e4:	68fb      	ldr	r3, [r7, #12]
 80048e6:	68da      	ldr	r2, [r3, #12]
 80048e8:	23e0      	movs	r3, #224	; 0xe0
 80048ea:	00db      	lsls	r3, r3, #3
 80048ec:	429a      	cmp	r2, r3
 80048ee:	d908      	bls.n	8004902 <HAL_SPI_TransmitReceive+0x116>
  {
    /* Set fiforxthreshold according the reception data length: 16bit */
    CLEAR_BIT(hspi->Instance->CR2, SPI_RXFIFO_THRESHOLD);
 80048f0:	68fb      	ldr	r3, [r7, #12]
 80048f2:	681b      	ldr	r3, [r3, #0]
 80048f4:	685a      	ldr	r2, [r3, #4]
 80048f6:	68fb      	ldr	r3, [r7, #12]
 80048f8:	681b      	ldr	r3, [r3, #0]
 80048fa:	49a4      	ldr	r1, [pc, #656]	; (8004b8c <HAL_SPI_TransmitReceive+0x3a0>)
 80048fc:	400a      	ands	r2, r1
 80048fe:	605a      	str	r2, [r3, #4]
 8004900:	e008      	b.n	8004914 <HAL_SPI_TransmitReceive+0x128>
  }
  else
  {
    /* Set fiforxthreshold according the reception data length: 8bit */
    SET_BIT(hspi->Instance->CR2, SPI_RXFIFO_THRESHOLD);
 8004902:	68fb      	ldr	r3, [r7, #12]
 8004904:	681b      	ldr	r3, [r3, #0]
 8004906:	685a      	ldr	r2, [r3, #4]
 8004908:	68fb      	ldr	r3, [r7, #12]
 800490a:	681b      	ldr	r3, [r3, #0]
 800490c:	2180      	movs	r1, #128	; 0x80
 800490e:	0149      	lsls	r1, r1, #5
 8004910:	430a      	orrs	r2, r1
 8004912:	605a      	str	r2, [r3, #4]
  }

  /* Check if the SPI is already enabled */
  if ((hspi->Instance->CR1 & SPI_CR1_SPE) != SPI_CR1_SPE)
 8004914:	68fb      	ldr	r3, [r7, #12]
 8004916:	681b      	ldr	r3, [r3, #0]
 8004918:	681b      	ldr	r3, [r3, #0]
 800491a:	2240      	movs	r2, #64	; 0x40
 800491c:	4013      	ands	r3, r2
 800491e:	2b40      	cmp	r3, #64	; 0x40
 8004920:	d007      	beq.n	8004932 <HAL_SPI_TransmitReceive+0x146>
  {
    /* Enable SPI peripheral */
    __HAL_SPI_ENABLE(hspi);
 8004922:	68fb      	ldr	r3, [r7, #12]
 8004924:	681b      	ldr	r3, [r3, #0]
 8004926:	681a      	ldr	r2, [r3, #0]
 8004928:	68fb      	ldr	r3, [r7, #12]
 800492a:	681b      	ldr	r3, [r3, #0]
 800492c:	2140      	movs	r1, #64	; 0x40
 800492e:	430a      	orrs	r2, r1
 8004930:	601a      	str	r2, [r3, #0]
  }

  /* Transmit and Receive data in 16 Bit mode */
  if (hspi->Init.DataSize > SPI_DATASIZE_8BIT)
 8004932:	68fb      	ldr	r3, [r7, #12]
 8004934:	68da      	ldr	r2, [r3, #12]
 8004936:	23e0      	movs	r3, #224	; 0xe0
 8004938:	00db      	lsls	r3, r3, #3
 800493a:	429a      	cmp	r2, r3
 800493c:	d800      	bhi.n	8004940 <HAL_SPI_TransmitReceive+0x154>
 800493e:	e07f      	b.n	8004a40 <HAL_SPI_TransmitReceive+0x254>
  {
    if ((hspi->Init.Mode == SPI_MODE_SLAVE) || (initial_TxXferCount == 0x01U))
 8004940:	68fb      	ldr	r3, [r7, #12]
 8004942:	685b      	ldr	r3, [r3, #4]
 8004944:	2b00      	cmp	r3, #0
 8004946:	d005      	beq.n	8004954 <HAL_SPI_TransmitReceive+0x168>
 8004948:	2312      	movs	r3, #18
 800494a:	18fb      	adds	r3, r7, r3
 800494c:	881b      	ldrh	r3, [r3, #0]
 800494e:	2b01      	cmp	r3, #1
 8004950:	d000      	beq.n	8004954 <HAL_SPI_TransmitReceive+0x168>
 8004952:	e069      	b.n	8004a28 <HAL_SPI_TransmitReceive+0x23c>
    {
      hspi->Instance->DR = *((uint16_t *)hspi->pTxBuffPtr);
 8004954:	68fb      	ldr	r3, [r7, #12]
 8004956:	6b9b      	ldr	r3, [r3, #56]	; 0x38
 8004958:	881a      	ldrh	r2, [r3, #0]
 800495a:	68fb      	ldr	r3, [r7, #12]
 800495c:	681b      	ldr	r3, [r3, #0]
 800495e:	60da      	str	r2, [r3, #12]
      hspi->pTxBuffPtr += sizeof(uint16_t);
 8004960:	68fb      	ldr	r3, [r7, #12]
 8004962:	6b9b      	ldr	r3, [r3, #56]	; 0x38
 8004964:	1c9a      	adds	r2, r3, #2
 8004966:	68fb      	ldr	r3, [r7, #12]
 8004968:	639a      	str	r2, [r3, #56]	; 0x38
      hspi->TxXferCount--;
 800496a:	68fb      	ldr	r3, [r7, #12]
 800496c:	8fdb      	ldrh	r3, [r3, #62]	; 0x3e
 800496e:	b29b      	uxth	r3, r3
 8004970:	3b01      	subs	r3, #1
 8004972:	b29a      	uxth	r2, r3
 8004974:	68fb      	ldr	r3, [r7, #12]
 8004976:	87da      	strh	r2, [r3, #62]	; 0x3e
    }
    while ((hspi->TxXferCount > 0U) || (hspi->RxXferCount > 0U))
 8004978:	e056      	b.n	8004a28 <HAL_SPI_TransmitReceive+0x23c>
    {
      /* Check TXE flag */
      if ((__HAL_SPI_GET_FLAG(hspi, SPI_FLAG_TXE)) && (hspi->TxXferCount > 0U) && (txallowed == 1U))
 800497a:	68fb      	ldr	r3, [r7, #12]
 800497c:	681b      	ldr	r3, [r3, #0]
 800497e:	689b      	ldr	r3, [r3, #8]
 8004980:	2202      	movs	r2, #2
 8004982:	4013      	ands	r3, r2
 8004984:	2b02      	cmp	r3, #2
 8004986:	d11b      	bne.n	80049c0 <HAL_SPI_TransmitReceive+0x1d4>
 8004988:	68fb      	ldr	r3, [r7, #12]
 800498a:	8fdb      	ldrh	r3, [r3, #62]	; 0x3e
 800498c:	b29b      	uxth	r3, r3
 800498e:	2b00      	cmp	r3, #0
 8004990:	d016      	beq.n	80049c0 <HAL_SPI_TransmitReceive+0x1d4>
 8004992:	6a7b      	ldr	r3, [r7, #36]	; 0x24
 8004994:	2b01      	cmp	r3, #1
 8004996:	d113      	bne.n	80049c0 <HAL_SPI_TransmitReceive+0x1d4>
      {
        hspi->Instance->DR = *((uint16_t *)hspi->pTxBuffPtr);
 8004998:	68fb      	ldr	r3, [r7, #12]
 800499a:	6b9b      	ldr	r3, [r3, #56]	; 0x38
 800499c:	881a      	ldrh	r2, [r3, #0]
 800499e:	68fb      	ldr	r3, [r7, #12]
 80049a0:	681b      	ldr	r3, [r3, #0]
 80049a2:	60da      	str	r2, [r3, #12]
        hspi->pTxBuffPtr += sizeof(uint16_t);
 80049a4:	68fb      	ldr	r3, [r7, #12]
 80049a6:	6b9b      	ldr	r3, [r3, #56]	; 0x38
 80049a8:	1c9a      	adds	r2, r3, #2
 80049aa:	68fb      	ldr	r3, [r7, #12]
 80049ac:	639a      	str	r2, [r3, #56]	; 0x38
        hspi->TxXferCount--;
 80049ae:	68fb      	ldr	r3, [r7, #12]
 80049b0:	8fdb      	ldrh	r3, [r3, #62]	; 0x3e
 80049b2:	b29b      	uxth	r3, r3
 80049b4:	3b01      	subs	r3, #1
 80049b6:	b29a      	uxth	r2, r3
 80049b8:	68fb      	ldr	r3, [r7, #12]
 80049ba:	87da      	strh	r2, [r3, #62]	; 0x3e
        /* Next Data is a reception (Rx). Tx not allowed */
        txallowed = 0U;
 80049bc:	2300      	movs	r3, #0
 80049be:	627b      	str	r3, [r7, #36]	; 0x24
        }
#endif /* USE_SPI_CRC */
      }

      /* Check RXNE flag */
      if ((__HAL_SPI_GET_FLAG(hspi, SPI_FLAG_RXNE)) && (hspi->RxXferCount > 0U))
 80049c0:	68fb      	ldr	r3, [r7, #12]
 80049c2:	681b      	ldr	r3, [r3, #0]
 80049c4:	689b      	ldr	r3, [r3, #8]
 80049c6:	2201      	movs	r2, #1
 80049c8:	4013      	ands	r3, r2
 80049ca:	2b01      	cmp	r3, #1
 80049cc:	d11c      	bne.n	8004a08 <HAL_SPI_TransmitReceive+0x21c>
 80049ce:	68fb      	ldr	r3, [r7, #12]
 80049d0:	2246      	movs	r2, #70	; 0x46
 80049d2:	5a9b      	ldrh	r3, [r3, r2]
 80049d4:	b29b      	uxth	r3, r3
 80049d6:	2b00      	cmp	r3, #0
 80049d8:	d016      	beq.n	8004a08 <HAL_SPI_TransmitReceive+0x21c>
      {
        *((uint16_t *)hspi->pRxBuffPtr) = (uint16_t)hspi->Instance->DR;
 80049da:	68fb      	ldr	r3, [r7, #12]
 80049dc:	681b      	ldr	r3, [r3, #0]
 80049de:	68da      	ldr	r2, [r3, #12]
 80049e0:	68fb      	ldr	r3, [r7, #12]
 80049e2:	6c1b      	ldr	r3, [r3, #64]	; 0x40
 80049e4:	b292      	uxth	r2, r2
 80049e6:	801a      	strh	r2, [r3, #0]
        hspi->pRxBuffPtr += sizeof(uint16_t);
 80049e8:	68fb      	ldr	r3, [r7, #12]
 80049ea:	6c1b      	ldr	r3, [r3, #64]	; 0x40
 80049ec:	1c9a      	adds	r2, r3, #2
 80049ee:	68fb      	ldr	r3, [r7, #12]
 80049f0:	641a      	str	r2, [r3, #64]	; 0x40
        hspi->RxXferCount--;
 80049f2:	68fb      	ldr	r3, [r7, #12]
 80049f4:	2246      	movs	r2, #70	; 0x46
 80049f6:	5a9b      	ldrh	r3, [r3, r2]
 80049f8:	b29b      	uxth	r3, r3
 80049fa:	3b01      	subs	r3, #1
 80049fc:	b299      	uxth	r1, r3
 80049fe:	68fb      	ldr	r3, [r7, #12]
 8004a00:	2246      	movs	r2, #70	; 0x46
 8004a02:	5299      	strh	r1, [r3, r2]
        /* Next Data is a Transmission (Tx). Tx is allowed */
        txallowed = 1U;
 8004a04:	2301      	movs	r3, #1
 8004a06:	627b      	str	r3, [r7, #36]	; 0x24
      }
      if (((HAL_GetTick() - tickstart) >=  Timeout) && (Timeout != HAL_MAX_DELAY))
 8004a08:	f7fd feba 	bl	8002780 <HAL_GetTick>
 8004a0c:	0002      	movs	r2, r0
 8004a0e:	69fb      	ldr	r3, [r7, #28]
 8004a10:	1ad3      	subs	r3, r2, r3
 8004a12:	6b3a      	ldr	r2, [r7, #48]	; 0x30
 8004a14:	429a      	cmp	r2, r3
 8004a16:	d807      	bhi.n	8004a28 <HAL_SPI_TransmitReceive+0x23c>
 8004a18:	6b3b      	ldr	r3, [r7, #48]	; 0x30
 8004a1a:	3301      	adds	r3, #1
 8004a1c:	d004      	beq.n	8004a28 <HAL_SPI_TransmitReceive+0x23c>
      {
        errorcode = HAL_TIMEOUT;
 8004a1e:	2323      	movs	r3, #35	; 0x23
 8004a20:	18fb      	adds	r3, r7, r3
 8004a22:	2203      	movs	r2, #3
 8004a24:	701a      	strb	r2, [r3, #0]
        goto error;
 8004a26:	e0a2      	b.n	8004b6e <HAL_SPI_TransmitReceive+0x382>
    while ((hspi->TxXferCount > 0U) || (hspi->RxXferCount > 0U))
 8004a28:	68fb      	ldr	r3, [r7, #12]
 8004a2a:	8fdb      	ldrh	r3, [r3, #62]	; 0x3e
 8004a2c:	b29b      	uxth	r3, r3
 8004a2e:	2b00      	cmp	r3, #0
 8004a30:	d1a3      	bne.n	800497a <HAL_SPI_TransmitReceive+0x18e>
 8004a32:	68fb      	ldr	r3, [r7, #12]
 8004a34:	2246      	movs	r2, #70	; 0x46
 8004a36:	5a9b      	ldrh	r3, [r3, r2]
 8004a38:	b29b      	uxth	r3, r3
 8004a3a:	2b00      	cmp	r3, #0
 8004a3c:	d19d      	bne.n	800497a <HAL_SPI_TransmitReceive+0x18e>
 8004a3e:	e085      	b.n	8004b4c <HAL_SPI_TransmitReceive+0x360>
    }
  }
  /* Transmit and Receive data in 8 Bit mode */
  else
  {
    if ((hspi->Init.Mode == SPI_MODE_SLAVE) || (initial_TxXferCount == 0x01U))
 8004a40:	68fb      	ldr	r3, [r7, #12]
 8004a42:	685b      	ldr	r3, [r3, #4]
 8004a44:	2b00      	cmp	r3, #0
 8004a46:	d005      	beq.n	8004a54 <HAL_SPI_TransmitReceive+0x268>
 8004a48:	2312      	movs	r3, #18
 8004a4a:	18fb      	adds	r3, r7, r3
 8004a4c:	881b      	ldrh	r3, [r3, #0]
 8004a4e:	2b01      	cmp	r3, #1
 8004a50:	d000      	beq.n	8004a54 <HAL_SPI_TransmitReceive+0x268>
 8004a52:	e070      	b.n	8004b36 <HAL_SPI_TransmitReceive+0x34a>
    {
      *((__IO uint8_t *)&hspi->Instance->DR) = (*hspi->pTxBuffPtr);
 8004a54:	68fb      	ldr	r3, [r7, #12]
 8004a56:	6b9a      	ldr	r2, [r3, #56]	; 0x38
 8004a58:	68fb      	ldr	r3, [r7, #12]
 8004a5a:	681b      	ldr	r3, [r3, #0]
 8004a5c:	330c      	adds	r3, #12
 8004a5e:	7812      	ldrb	r2, [r2, #0]
 8004a60:	701a      	strb	r2, [r3, #0]
      hspi->pTxBuffPtr += sizeof(uint8_t);
 8004a62:	68fb      	ldr	r3, [r7, #12]
 8004a64:	6b9b      	ldr	r3, [r3, #56]	; 0x38
 8004a66:	1c5a      	adds	r2, r3, #1
 8004a68:	68fb      	ldr	r3, [r7, #12]
 8004a6a:	639a      	str	r2, [r3, #56]	; 0x38
      hspi->TxXferCount--;
 8004a6c:	68fb      	ldr	r3, [r7, #12]
 8004a6e:	8fdb      	ldrh	r3, [r3, #62]	; 0x3e
 8004a70:	b29b      	uxth	r3, r3
 8004a72:	3b01      	subs	r3, #1
 8004a74:	b29a      	uxth	r2, r3
 8004a76:	68fb      	ldr	r3, [r7, #12]
 8004a78:	87da      	strh	r2, [r3, #62]	; 0x3e
    }
    while ((hspi->TxXferCount > 0U) || (hspi->RxXferCount > 0U))
 8004a7a:	e05c      	b.n	8004b36 <HAL_SPI_TransmitReceive+0x34a>
    {
      /* Check TXE flag */
      if ((__HAL_SPI_GET_FLAG(hspi, SPI_FLAG_TXE)) && (hspi->TxXferCount > 0U) && (txallowed == 1U))
 8004a7c:	68fb      	ldr	r3, [r7, #12]
 8004a7e:	681b      	ldr	r3, [r3, #0]
 8004a80:	689b      	ldr	r3, [r3, #8]
 8004a82:	2202      	movs	r2, #2
 8004a84:	4013      	ands	r3, r2
 8004a86:	2b02      	cmp	r3, #2
 8004a88:	d11c      	bne.n	8004ac4 <HAL_SPI_TransmitReceive+0x2d8>
 8004a8a:	68fb      	ldr	r3, [r7, #12]
 8004a8c:	8fdb      	ldrh	r3, [r3, #62]	; 0x3e
 8004a8e:	b29b      	uxth	r3, r3
 8004a90:	2b00      	cmp	r3, #0
 8004a92:	d017      	beq.n	8004ac4 <HAL_SPI_TransmitReceive+0x2d8>
 8004a94:	6a7b      	ldr	r3, [r7, #36]	; 0x24
 8004a96:	2b01      	cmp	r3, #1
 8004a98:	d114      	bne.n	8004ac4 <HAL_SPI_TransmitReceive+0x2d8>
      {
        *(__IO uint8_t *)&hspi->Instance->DR = (*hspi->pTxBuffPtr);
 8004a9a:	68fb      	ldr	r3, [r7, #12]
 8004a9c:	6b9a      	ldr	r2, [r3, #56]	; 0x38
 8004a9e:	68fb      	ldr	r3, [r7, #12]
 8004aa0:	681b      	ldr	r3, [r3, #0]
 8004aa2:	330c      	adds	r3, #12
 8004aa4:	7812      	ldrb	r2, [r2, #0]
 8004aa6:	701a      	strb	r2, [r3, #0]
        hspi->pTxBuffPtr++;
 8004aa8:	68fb      	ldr	r3, [r7, #12]
 8004aaa:	6b9b      	ldr	r3, [r3, #56]	; 0x38
 8004aac:	1c5a      	adds	r2, r3, #1
 8004aae:	68fb      	ldr	r3, [r7, #12]
 8004ab0:	639a      	str	r2, [r3, #56]	; 0x38
        hspi->TxXferCount--;
 8004ab2:	68fb      	ldr	r3, [r7, #12]
 8004ab4:	8fdb      	ldrh	r3, [r3, #62]	; 0x3e
 8004ab6:	b29b      	uxth	r3, r3
 8004ab8:	3b01      	subs	r3, #1
 8004aba:	b29a      	uxth	r2, r3
 8004abc:	68fb      	ldr	r3, [r7, #12]
 8004abe:	87da      	strh	r2, [r3, #62]	; 0x3e
        /* Next Data is a reception (Rx). Tx not allowed */
        txallowed = 0U;
 8004ac0:	2300      	movs	r3, #0
 8004ac2:	627b      	str	r3, [r7, #36]	; 0x24
        }
#endif /* USE_SPI_CRC */
      }

      /* Wait until RXNE flag is reset */
      if ((__HAL_SPI_GET_FLAG(hspi, SPI_FLAG_RXNE)) && (hspi->RxXferCount > 0U))
 8004ac4:	68fb      	ldr	r3, [r7, #12]
 8004ac6:	681b      	ldr	r3, [r3, #0]
 8004ac8:	689b      	ldr	r3, [r3, #8]
 8004aca:	2201      	movs	r2, #1
 8004acc:	4013      	ands	r3, r2
 8004ace:	2b01      	cmp	r3, #1
 8004ad0:	d11e      	bne.n	8004b10 <HAL_SPI_TransmitReceive+0x324>
 8004ad2:	68fb      	ldr	r3, [r7, #12]
 8004ad4:	2246      	movs	r2, #70	; 0x46
 8004ad6:	5a9b      	ldrh	r3, [r3, r2]
 8004ad8:	b29b      	uxth	r3, r3
 8004ada:	2b00      	cmp	r3, #0
 8004adc:	d018      	beq.n	8004b10 <HAL_SPI_TransmitReceive+0x324>
      {
        (*(uint8_t *)hspi->pRxBuffPtr) = *(__IO uint8_t *)&hspi->Instance->DR;
 8004ade:	68fb      	ldr	r3, [r7, #12]
 8004ae0:	681b      	ldr	r3, [r3, #0]
 8004ae2:	330c      	adds	r3, #12
 8004ae4:	001a      	movs	r2, r3
 8004ae6:	68fb      	ldr	r3, [r7, #12]
 8004ae8:	6c1b      	ldr	r3, [r3, #64]	; 0x40
 8004aea:	7812      	ldrb	r2, [r2, #0]
 8004aec:	b2d2      	uxtb	r2, r2
 8004aee:	701a      	strb	r2, [r3, #0]
        hspi->pRxBuffPtr++;
 8004af0:	68fb      	ldr	r3, [r7, #12]
 8004af2:	6c1b      	ldr	r3, [r3, #64]	; 0x40
 8004af4:	1c5a      	adds	r2, r3, #1
 8004af6:	68fb      	ldr	r3, [r7, #12]
 8004af8:	641a      	str	r2, [r3, #64]	; 0x40
        hspi->RxXferCount--;
 8004afa:	68fb      	ldr	r3, [r7, #12]
 8004afc:	2246      	movs	r2, #70	; 0x46
 8004afe:	5a9b      	ldrh	r3, [r3, r2]
 8004b00:	b29b      	uxth	r3, r3
 8004b02:	3b01      	subs	r3, #1
 8004b04:	b299      	uxth	r1, r3
 8004b06:	68fb      	ldr	r3, [r7, #12]
 8004b08:	2246      	movs	r2, #70	; 0x46
 8004b0a:	5299      	strh	r1, [r3, r2]
        /* Next Data is a Transmission (Tx). Tx is allowed */
        txallowed = 1U;
 8004b0c:	2301      	movs	r3, #1
 8004b0e:	627b      	str	r3, [r7, #36]	; 0x24
      }
      if ((((HAL_GetTick() - tickstart) >=  Timeout) && ((Timeout != HAL_MAX_DELAY))) || (Timeout == 0U))
 8004b10:	f7fd fe36 	bl	8002780 <HAL_GetTick>
 8004b14:	0002      	movs	r2, r0
 8004b16:	69fb      	ldr	r3, [r7, #28]
 8004b18:	1ad3      	subs	r3, r2, r3
 8004b1a:	6b3a      	ldr	r2, [r7, #48]	; 0x30
 8004b1c:	429a      	cmp	r2, r3
 8004b1e:	d802      	bhi.n	8004b26 <HAL_SPI_TransmitReceive+0x33a>
 8004b20:	6b3b      	ldr	r3, [r7, #48]	; 0x30
 8004b22:	3301      	adds	r3, #1
 8004b24:	d102      	bne.n	8004b2c <HAL_SPI_TransmitReceive+0x340>
 8004b26:	6b3b      	ldr	r3, [r7, #48]	; 0x30
 8004b28:	2b00      	cmp	r3, #0
 8004b2a:	d104      	bne.n	8004b36 <HAL_SPI_TransmitReceive+0x34a>
      {
        errorcode = HAL_TIMEOUT;
 8004b2c:	2323      	movs	r3, #35	; 0x23
 8004b2e:	18fb      	adds	r3, r7, r3
 8004b30:	2203      	movs	r2, #3
 8004b32:	701a      	strb	r2, [r3, #0]
        goto error;
 8004b34:	e01b      	b.n	8004b6e <HAL_SPI_TransmitReceive+0x382>
    while ((hspi->TxXferCount > 0U) || (hspi->RxXferCount > 0U))
 8004b36:	68fb      	ldr	r3, [r7, #12]
 8004b38:	8fdb      	ldrh	r3, [r3, #62]	; 0x3e
 8004b3a:	b29b      	uxth	r3, r3
 8004b3c:	2b00      	cmp	r3, #0
 8004b3e:	d19d      	bne.n	8004a7c <HAL_SPI_TransmitReceive+0x290>
 8004b40:	68fb      	ldr	r3, [r7, #12]
 8004b42:	2246      	movs	r2, #70	; 0x46
 8004b44:	5a9b      	ldrh	r3, [r3, r2]
 8004b46:	b29b      	uxth	r3, r3
 8004b48:	2b00      	cmp	r3, #0
 8004b4a:	d197      	bne.n	8004a7c <HAL_SPI_TransmitReceive+0x290>
    errorcode = HAL_ERROR;
  }
#endif /* USE_SPI_CRC */

  /* Check the end of the transaction */
  if (SPI_EndRxTxTransaction(hspi, Timeout, tickstart) != HAL_OK)
 8004b4c:	69fa      	ldr	r2, [r7, #28]
 8004b4e:	6b39      	ldr	r1, [r7, #48]	; 0x30
 8004b50:	68fb      	ldr	r3, [r7, #12]
 8004b52:	0018      	movs	r0, r3
 8004b54:	f000 f94c 	bl	8004df0 <SPI_EndRxTxTransaction>
 8004b58:	1e03      	subs	r3, r0, #0
 8004b5a:	d007      	beq.n	8004b6c <HAL_SPI_TransmitReceive+0x380>
  {
    errorcode = HAL_ERROR;
 8004b5c:	2323      	movs	r3, #35	; 0x23
 8004b5e:	18fb      	adds	r3, r7, r3
 8004b60:	2201      	movs	r2, #1
 8004b62:	701a      	strb	r2, [r3, #0]
    hspi->ErrorCode = HAL_SPI_ERROR_FLAG;
 8004b64:	68fb      	ldr	r3, [r7, #12]
 8004b66:	2220      	movs	r2, #32
 8004b68:	661a      	str	r2, [r3, #96]	; 0x60
 8004b6a:	e000      	b.n	8004b6e <HAL_SPI_TransmitReceive+0x382>
  }

error :
 8004b6c:	46c0      	nop			; (mov r8, r8)
  hspi->State = HAL_SPI_STATE_READY;
 8004b6e:	68fb      	ldr	r3, [r7, #12]
 8004b70:	225d      	movs	r2, #93	; 0x5d
 8004b72:	2101      	movs	r1, #1
 8004b74:	5499      	strb	r1, [r3, r2]
  __HAL_UNLOCK(hspi);
 8004b76:	68fb      	ldr	r3, [r7, #12]
 8004b78:	225c      	movs	r2, #92	; 0x5c
 8004b7a:	2100      	movs	r1, #0
 8004b7c:	5499      	strb	r1, [r3, r2]
  return errorcode;
 8004b7e:	2323      	movs	r3, #35	; 0x23
 8004b80:	18fb      	adds	r3, r7, r3
 8004b82:	781b      	ldrb	r3, [r3, #0]
}
 8004b84:	0018      	movs	r0, r3
 8004b86:	46bd      	mov	sp, r7
 8004b88:	b00a      	add	sp, #40	; 0x28
 8004b8a:	bd80      	pop	{r7, pc}
 8004b8c:	ffffefff 	.word	0xffffefff

08004b90 <SPI_WaitFlagStateUntilTimeout>:
  * @param  Tickstart tick start value
  * @retval HAL status
  */
static HAL_StatusTypeDef SPI_WaitFlagStateUntilTimeout(SPI_HandleTypeDef *hspi, uint32_t Flag, FlagStatus State,
                                                       uint32_t Timeout, uint32_t Tickstart)
{
 8004b90:	b580      	push	{r7, lr}
 8004b92:	b088      	sub	sp, #32
 8004b94:	af00      	add	r7, sp, #0
 8004b96:	60f8      	str	r0, [r7, #12]
 8004b98:	60b9      	str	r1, [r7, #8]
 8004b9a:	603b      	str	r3, [r7, #0]
 8004b9c:	1dfb      	adds	r3, r7, #7
 8004b9e:	701a      	strb	r2, [r3, #0]
  __IO uint32_t count;
  uint32_t tmp_timeout;
  uint32_t tmp_tickstart;

  /* Adjust Timeout value  in case of end of transfer */
  tmp_timeout   = Timeout - (HAL_GetTick() - Tickstart);
 8004ba0:	f7fd fdee 	bl	8002780 <HAL_GetTick>
 8004ba4:	0002      	movs	r2, r0
 8004ba6:	6abb      	ldr	r3, [r7, #40]	; 0x28
 8004ba8:	1a9b      	subs	r3, r3, r2
 8004baa:	683a      	ldr	r2, [r7, #0]
 8004bac:	18d3      	adds	r3, r2, r3
 8004bae:	61fb      	str	r3, [r7, #28]
  tmp_tickstart = HAL_GetTick();
 8004bb0:	f7fd fde6 	bl	8002780 <HAL_GetTick>
 8004bb4:	0003      	movs	r3, r0
 8004bb6:	61bb      	str	r3, [r7, #24]

  /* Calculate Timeout based on a software loop to avoid blocking issue if Systick is disabled */
  count = tmp_timeout * ((SystemCoreClock * 32U) >> 20U);
 8004bb8:	4b3a      	ldr	r3, [pc, #232]	; (8004ca4 <SPI_WaitFlagStateUntilTimeout+0x114>)
 8004bba:	681b      	ldr	r3, [r3, #0]
 8004bbc:	015b      	lsls	r3, r3, #5
 8004bbe:	0d1b      	lsrs	r3, r3, #20
 8004bc0:	69fa      	ldr	r2, [r7, #28]
 8004bc2:	4353      	muls	r3, r2
 8004bc4:	617b      	str	r3, [r7, #20]

  while ((__HAL_SPI_GET_FLAG(hspi, Flag) ? SET : RESET) != State)
 8004bc6:	e058      	b.n	8004c7a <SPI_WaitFlagStateUntilTimeout+0xea>
  {
    if (Timeout != HAL_MAX_DELAY)
 8004bc8:	683b      	ldr	r3, [r7, #0]
 8004bca:	3301      	adds	r3, #1
 8004bcc:	d055      	beq.n	8004c7a <SPI_WaitFlagStateUntilTimeout+0xea>
    {
      if (((HAL_GetTick() - tmp_tickstart) >= tmp_timeout) || (tmp_timeout == 0U))
 8004bce:	f7fd fdd7 	bl	8002780 <HAL_GetTick>
 8004bd2:	0002      	movs	r2, r0
 8004bd4:	69bb      	ldr	r3, [r7, #24]
 8004bd6:	1ad3      	subs	r3, r2, r3
 8004bd8:	69fa      	ldr	r2, [r7, #28]
 8004bda:	429a      	cmp	r2, r3
 8004bdc:	d902      	bls.n	8004be4 <SPI_WaitFlagStateUntilTimeout+0x54>
 8004bde:	69fb      	ldr	r3, [r7, #28]
 8004be0:	2b00      	cmp	r3, #0
 8004be2:	d142      	bne.n	8004c6a <SPI_WaitFlagStateUntilTimeout+0xda>
        /* Disable the SPI and reset the CRC: the CRC value should be cleared
           on both master and slave sides in order to resynchronize the master
           and slave for their respective CRC calculation */

        /* Disable TXE, RXNE and ERR interrupts for the interrupt process */
        __HAL_SPI_DISABLE_IT(hspi, (SPI_IT_TXE | SPI_IT_RXNE | SPI_IT_ERR));
 8004be4:	68fb      	ldr	r3, [r7, #12]
 8004be6:	681b      	ldr	r3, [r3, #0]
 8004be8:	685a      	ldr	r2, [r3, #4]
 8004bea:	68fb      	ldr	r3, [r7, #12]
 8004bec:	681b      	ldr	r3, [r3, #0]
 8004bee:	21e0      	movs	r1, #224	; 0xe0
 8004bf0:	438a      	bics	r2, r1
 8004bf2:	605a      	str	r2, [r3, #4]

        if ((hspi->Init.Mode == SPI_MODE_MASTER) && ((hspi->Init.Direction == SPI_DIRECTION_1LINE)
 8004bf4:	68fb      	ldr	r3, [r7, #12]
 8004bf6:	685a      	ldr	r2, [r3, #4]
 8004bf8:	2382      	movs	r3, #130	; 0x82
 8004bfa:	005b      	lsls	r3, r3, #1
 8004bfc:	429a      	cmp	r2, r3
 8004bfe:	d113      	bne.n	8004c28 <SPI_WaitFlagStateUntilTimeout+0x98>
 8004c00:	68fb      	ldr	r3, [r7, #12]
 8004c02:	689a      	ldr	r2, [r3, #8]
 8004c04:	2380      	movs	r3, #128	; 0x80
 8004c06:	021b      	lsls	r3, r3, #8
 8004c08:	429a      	cmp	r2, r3
 8004c0a:	d005      	beq.n	8004c18 <SPI_WaitFlagStateUntilTimeout+0x88>
                                                     || (hspi->Init.Direction == SPI_DIRECTION_2LINES_RXONLY)))
 8004c0c:	68fb      	ldr	r3, [r7, #12]
 8004c0e:	689a      	ldr	r2, [r3, #8]
 8004c10:	2380      	movs	r3, #128	; 0x80
 8004c12:	00db      	lsls	r3, r3, #3
 8004c14:	429a      	cmp	r2, r3
 8004c16:	d107      	bne.n	8004c28 <SPI_WaitFlagStateUntilTimeout+0x98>
        {
          /* Disable SPI peripheral */
          __HAL_SPI_DISABLE(hspi);
 8004c18:	68fb      	ldr	r3, [r7, #12]
 8004c1a:	681b      	ldr	r3, [r3, #0]
 8004c1c:	681a      	ldr	r2, [r3, #0]
 8004c1e:	68fb      	ldr	r3, [r7, #12]
 8004c20:	681b      	ldr	r3, [r3, #0]
 8004c22:	2140      	movs	r1, #64	; 0x40
 8004c24:	438a      	bics	r2, r1
 8004c26:	601a      	str	r2, [r3, #0]
        }

        /* Reset CRC Calculation */
        if (hspi->Init.CRCCalculation == SPI_CRCCALCULATION_ENABLE)
 8004c28:	68fb      	ldr	r3, [r7, #12]
 8004c2a:	6a9a      	ldr	r2, [r3, #40]	; 0x28
 8004c2c:	2380      	movs	r3, #128	; 0x80
 8004c2e:	019b      	lsls	r3, r3, #6
 8004c30:	429a      	cmp	r2, r3
 8004c32:	d110      	bne.n	8004c56 <SPI_WaitFlagStateUntilTimeout+0xc6>
        {
          SPI_RESET_CRC(hspi);
 8004c34:	68fb      	ldr	r3, [r7, #12]
 8004c36:	681b      	ldr	r3, [r3, #0]
 8004c38:	681a      	ldr	r2, [r3, #0]
 8004c3a:	68fb      	ldr	r3, [r7, #12]
 8004c3c:	681b      	ldr	r3, [r3, #0]
 8004c3e:	491a      	ldr	r1, [pc, #104]	; (8004ca8 <SPI_WaitFlagStateUntilTimeout+0x118>)
 8004c40:	400a      	ands	r2, r1
 8004c42:	601a      	str	r2, [r3, #0]
 8004c44:	68fb      	ldr	r3, [r7, #12]
 8004c46:	681b      	ldr	r3, [r3, #0]
 8004c48:	681a      	ldr	r2, [r3, #0]
 8004c4a:	68fb      	ldr	r3, [r7, #12]
 8004c4c:	681b      	ldr	r3, [r3, #0]
 8004c4e:	2180      	movs	r1, #128	; 0x80
 8004c50:	0189      	lsls	r1, r1, #6
 8004c52:	430a      	orrs	r2, r1
 8004c54:	601a      	str	r2, [r3, #0]
        }

        hspi->State = HAL_SPI_STATE_READY;
 8004c56:	68fb      	ldr	r3, [r7, #12]
 8004c58:	225d      	movs	r2, #93	; 0x5d
 8004c5a:	2101      	movs	r1, #1
 8004c5c:	5499      	strb	r1, [r3, r2]

        /* Process Unlocked */
        __HAL_UNLOCK(hspi);
 8004c5e:	68fb      	ldr	r3, [r7, #12]
 8004c60:	225c      	movs	r2, #92	; 0x5c
 8004c62:	2100      	movs	r1, #0
 8004c64:	5499      	strb	r1, [r3, r2]

        return HAL_TIMEOUT;
 8004c66:	2303      	movs	r3, #3
 8004c68:	e017      	b.n	8004c9a <SPI_WaitFlagStateUntilTimeout+0x10a>
      }
      /* If Systick is disabled or not incremented, deactivate timeout to go in disable loop procedure */
      if(count == 0U)
 8004c6a:	697b      	ldr	r3, [r7, #20]
 8004c6c:	2b00      	cmp	r3, #0
 8004c6e:	d101      	bne.n	8004c74 <SPI_WaitFlagStateUntilTimeout+0xe4>
      {
        tmp_timeout = 0U;
 8004c70:	2300      	movs	r3, #0
 8004c72:	61fb      	str	r3, [r7, #28]
      }
      count--;
 8004c74:	697b      	ldr	r3, [r7, #20]
 8004c76:	3b01      	subs	r3, #1
 8004c78:	617b      	str	r3, [r7, #20]
  while ((__HAL_SPI_GET_FLAG(hspi, Flag) ? SET : RESET) != State)
 8004c7a:	68fb      	ldr	r3, [r7, #12]
 8004c7c:	681b      	ldr	r3, [r3, #0]
 8004c7e:	689b      	ldr	r3, [r3, #8]
 8004c80:	68ba      	ldr	r2, [r7, #8]
 8004c82:	4013      	ands	r3, r2
 8004c84:	68ba      	ldr	r2, [r7, #8]
 8004c86:	1ad3      	subs	r3, r2, r3
 8004c88:	425a      	negs	r2, r3
 8004c8a:	4153      	adcs	r3, r2
 8004c8c:	b2db      	uxtb	r3, r3
 8004c8e:	001a      	movs	r2, r3
 8004c90:	1dfb      	adds	r3, r7, #7
 8004c92:	781b      	ldrb	r3, [r3, #0]
 8004c94:	429a      	cmp	r2, r3
 8004c96:	d197      	bne.n	8004bc8 <SPI_WaitFlagStateUntilTimeout+0x38>
    }
  }

  return HAL_OK;
 8004c98:	2300      	movs	r3, #0
}
 8004c9a:	0018      	movs	r0, r3
 8004c9c:	46bd      	mov	sp, r7
 8004c9e:	b008      	add	sp, #32
 8004ca0:	bd80      	pop	{r7, pc}
 8004ca2:	46c0      	nop			; (mov r8, r8)
 8004ca4:	20000000 	.word	0x20000000
 8004ca8:	ffffdfff 	.word	0xffffdfff

08004cac <SPI_WaitFifoStateUntilTimeout>:
  * @param  Tickstart tick start value
  * @retval HAL status
  */
static HAL_StatusTypeDef SPI_WaitFifoStateUntilTimeout(SPI_HandleTypeDef *hspi, uint32_t Fifo, uint32_t State,
                                                       uint32_t Timeout, uint32_t Tickstart)
{
 8004cac:	b580      	push	{r7, lr}
 8004cae:	b08a      	sub	sp, #40	; 0x28
 8004cb0:	af00      	add	r7, sp, #0
 8004cb2:	60f8      	str	r0, [r7, #12]
 8004cb4:	60b9      	str	r1, [r7, #8]
 8004cb6:	607a      	str	r2, [r7, #4]
 8004cb8:	603b      	str	r3, [r7, #0]
  __IO uint32_t count;
  uint32_t tmp_timeout;
  uint32_t tmp_tickstart;
  __IO uint8_t  * ptmpreg8;
  __IO uint8_t  tmpreg8 = 0;
 8004cba:	2317      	movs	r3, #23
 8004cbc:	18fb      	adds	r3, r7, r3
 8004cbe:	2200      	movs	r2, #0
 8004cc0:	701a      	strb	r2, [r3, #0]

  /* Adjust Timeout value  in case of end of transfer */
  tmp_timeout = Timeout - (HAL_GetTick() - Tickstart);
 8004cc2:	f7fd fd5d 	bl	8002780 <HAL_GetTick>
 8004cc6:	0002      	movs	r2, r0
 8004cc8:	6b3b      	ldr	r3, [r7, #48]	; 0x30
 8004cca:	1a9b      	subs	r3, r3, r2
 8004ccc:	683a      	ldr	r2, [r7, #0]
 8004cce:	18d3      	adds	r3, r2, r3
 8004cd0:	627b      	str	r3, [r7, #36]	; 0x24
  tmp_tickstart = HAL_GetTick();
 8004cd2:	f7fd fd55 	bl	8002780 <HAL_GetTick>
 8004cd6:	0003      	movs	r3, r0
 8004cd8:	623b      	str	r3, [r7, #32]

  /* Initialize the 8bit temporary pointer */
  ptmpreg8 = (__IO uint8_t *)&hspi->Instance->DR;
 8004cda:	68fb      	ldr	r3, [r7, #12]
 8004cdc:	681b      	ldr	r3, [r3, #0]
 8004cde:	330c      	adds	r3, #12
 8004ce0:	61fb      	str	r3, [r7, #28]

  /* Calculate Timeout based on a software loop to avoid blocking issue if Systick is disabled */
  count = tmp_timeout * ((SystemCoreClock * 35U) >> 20U);
 8004ce2:	4b41      	ldr	r3, [pc, #260]	; (8004de8 <SPI_WaitFifoStateUntilTimeout+0x13c>)
 8004ce4:	681a      	ldr	r2, [r3, #0]
 8004ce6:	0013      	movs	r3, r2
 8004ce8:	009b      	lsls	r3, r3, #2
 8004cea:	189b      	adds	r3, r3, r2
 8004cec:	00da      	lsls	r2, r3, #3
 8004cee:	1ad3      	subs	r3, r2, r3
 8004cf0:	0d1b      	lsrs	r3, r3, #20
 8004cf2:	6a7a      	ldr	r2, [r7, #36]	; 0x24
 8004cf4:	4353      	muls	r3, r2
 8004cf6:	61bb      	str	r3, [r7, #24]

  while ((hspi->Instance->SR & Fifo) != State)
 8004cf8:	e068      	b.n	8004dcc <SPI_WaitFifoStateUntilTimeout+0x120>
  {
    if ((Fifo == SPI_SR_FRLVL) && (State == SPI_FRLVL_EMPTY))
 8004cfa:	68ba      	ldr	r2, [r7, #8]
 8004cfc:	23c0      	movs	r3, #192	; 0xc0
 8004cfe:	00db      	lsls	r3, r3, #3
 8004d00:	429a      	cmp	r2, r3
 8004d02:	d10a      	bne.n	8004d1a <SPI_WaitFifoStateUntilTimeout+0x6e>
 8004d04:	687b      	ldr	r3, [r7, #4]
 8004d06:	2b00      	cmp	r3, #0
 8004d08:	d107      	bne.n	8004d1a <SPI_WaitFifoStateUntilTimeout+0x6e>
    {
      /* Flush Data Register by a blank read */
      tmpreg8 = *ptmpreg8;
 8004d0a:	69fb      	ldr	r3, [r7, #28]
 8004d0c:	781b      	ldrb	r3, [r3, #0]
 8004d0e:	b2da      	uxtb	r2, r3
 8004d10:	2117      	movs	r1, #23
 8004d12:	187b      	adds	r3, r7, r1
 8004d14:	701a      	strb	r2, [r3, #0]
      /* To avoid GCC warning */
      UNUSED(tmpreg8);
 8004d16:	187b      	adds	r3, r7, r1
 8004d18:	781b      	ldrb	r3, [r3, #0]
    }

    if (Timeout != HAL_MAX_DELAY)
 8004d1a:	683b      	ldr	r3, [r7, #0]
 8004d1c:	3301      	adds	r3, #1
 8004d1e:	d055      	beq.n	8004dcc <SPI_WaitFifoStateUntilTimeout+0x120>
    {
      if (((HAL_GetTick() - tmp_tickstart) >= tmp_timeout) || (tmp_timeout == 0U))
 8004d20:	f7fd fd2e 	bl	8002780 <HAL_GetTick>
 8004d24:	0002      	movs	r2, r0
 8004d26:	6a3b      	ldr	r3, [r7, #32]
 8004d28:	1ad3      	subs	r3, r2, r3
 8004d2a:	6a7a      	ldr	r2, [r7, #36]	; 0x24
 8004d2c:	429a      	cmp	r2, r3
 8004d2e:	d902      	bls.n	8004d36 <SPI_WaitFifoStateUntilTimeout+0x8a>
 8004d30:	6a7b      	ldr	r3, [r7, #36]	; 0x24
 8004d32:	2b00      	cmp	r3, #0
 8004d34:	d142      	bne.n	8004dbc <SPI_WaitFifoStateUntilTimeout+0x110>
        /* Disable the SPI and reset the CRC: the CRC value should be cleared
           on both master and slave sides in order to resynchronize the master
           and slave for their respective CRC calculation */

        /* Disable TXE, RXNE and ERR interrupts for the interrupt process */
        __HAL_SPI_DISABLE_IT(hspi, (SPI_IT_TXE | SPI_IT_RXNE | SPI_IT_ERR));
 8004d36:	68fb      	ldr	r3, [r7, #12]
 8004d38:	681b      	ldr	r3, [r3, #0]
 8004d3a:	685a      	ldr	r2, [r3, #4]
 8004d3c:	68fb      	ldr	r3, [r7, #12]
 8004d3e:	681b      	ldr	r3, [r3, #0]
 8004d40:	21e0      	movs	r1, #224	; 0xe0
 8004d42:	438a      	bics	r2, r1
 8004d44:	605a      	str	r2, [r3, #4]

        if ((hspi->Init.Mode == SPI_MODE_MASTER) && ((hspi->Init.Direction == SPI_DIRECTION_1LINE)
 8004d46:	68fb      	ldr	r3, [r7, #12]
 8004d48:	685a      	ldr	r2, [r3, #4]
 8004d4a:	2382      	movs	r3, #130	; 0x82
 8004d4c:	005b      	lsls	r3, r3, #1
 8004d4e:	429a      	cmp	r2, r3
 8004d50:	d113      	bne.n	8004d7a <SPI_WaitFifoStateUntilTimeout+0xce>
 8004d52:	68fb      	ldr	r3, [r7, #12]
 8004d54:	689a      	ldr	r2, [r3, #8]
 8004d56:	2380      	movs	r3, #128	; 0x80
 8004d58:	021b      	lsls	r3, r3, #8
 8004d5a:	429a      	cmp	r2, r3
 8004d5c:	d005      	beq.n	8004d6a <SPI_WaitFifoStateUntilTimeout+0xbe>
                                                     || (hspi->Init.Direction == SPI_DIRECTION_2LINES_RXONLY)))
 8004d5e:	68fb      	ldr	r3, [r7, #12]
 8004d60:	689a      	ldr	r2, [r3, #8]
 8004d62:	2380      	movs	r3, #128	; 0x80
 8004d64:	00db      	lsls	r3, r3, #3
 8004d66:	429a      	cmp	r2, r3
 8004d68:	d107      	bne.n	8004d7a <SPI_WaitFifoStateUntilTimeout+0xce>
        {
          /* Disable SPI peripheral */
          __HAL_SPI_DISABLE(hspi);
 8004d6a:	68fb      	ldr	r3, [r7, #12]
 8004d6c:	681b      	ldr	r3, [r3, #0]
 8004d6e:	681a      	ldr	r2, [r3, #0]
 8004d70:	68fb      	ldr	r3, [r7, #12]
 8004d72:	681b      	ldr	r3, [r3, #0]
 8004d74:	2140      	movs	r1, #64	; 0x40
 8004d76:	438a      	bics	r2, r1
 8004d78:	601a      	str	r2, [r3, #0]
        }

        /* Reset CRC Calculation */
        if (hspi->Init.CRCCalculation == SPI_CRCCALCULATION_ENABLE)
 8004d7a:	68fb      	ldr	r3, [r7, #12]
 8004d7c:	6a9a      	ldr	r2, [r3, #40]	; 0x28
 8004d7e:	2380      	movs	r3, #128	; 0x80
 8004d80:	019b      	lsls	r3, r3, #6
 8004d82:	429a      	cmp	r2, r3
 8004d84:	d110      	bne.n	8004da8 <SPI_WaitFifoStateUntilTimeout+0xfc>
        {
          SPI_RESET_CRC(hspi);
 8004d86:	68fb      	ldr	r3, [r7, #12]
 8004d88:	681b      	ldr	r3, [r3, #0]
 8004d8a:	681a      	ldr	r2, [r3, #0]
 8004d8c:	68fb      	ldr	r3, [r7, #12]
 8004d8e:	681b      	ldr	r3, [r3, #0]
 8004d90:	4916      	ldr	r1, [pc, #88]	; (8004dec <SPI_WaitFifoStateUntilTimeout+0x140>)
 8004d92:	400a      	ands	r2, r1
 8004d94:	601a      	str	r2, [r3, #0]
 8004d96:	68fb      	ldr	r3, [r7, #12]
 8004d98:	681b      	ldr	r3, [r3, #0]
 8004d9a:	681a      	ldr	r2, [r3, #0]
 8004d9c:	68fb      	ldr	r3, [r7, #12]
 8004d9e:	681b      	ldr	r3, [r3, #0]
 8004da0:	2180      	movs	r1, #128	; 0x80
 8004da2:	0189      	lsls	r1, r1, #6
 8004da4:	430a      	orrs	r2, r1
 8004da6:	601a      	str	r2, [r3, #0]
        }

        hspi->State = HAL_SPI_STATE_READY;
 8004da8:	68fb      	ldr	r3, [r7, #12]
 8004daa:	225d      	movs	r2, #93	; 0x5d
 8004dac:	2101      	movs	r1, #1
 8004dae:	5499      	strb	r1, [r3, r2]

        /* Process Unlocked */
        __HAL_UNLOCK(hspi);
 8004db0:	68fb      	ldr	r3, [r7, #12]
 8004db2:	225c      	movs	r2, #92	; 0x5c
 8004db4:	2100      	movs	r1, #0
 8004db6:	5499      	strb	r1, [r3, r2]

        return HAL_TIMEOUT;
 8004db8:	2303      	movs	r3, #3
 8004dba:	e010      	b.n	8004dde <SPI_WaitFifoStateUntilTimeout+0x132>
      }
      /* If Systick is disabled or not incremented, deactivate timeout to go in disable loop procedure */
      if(count == 0U)
 8004dbc:	69bb      	ldr	r3, [r7, #24]
 8004dbe:	2b00      	cmp	r3, #0
 8004dc0:	d101      	bne.n	8004dc6 <SPI_WaitFifoStateUntilTimeout+0x11a>
      {
        tmp_timeout = 0U;
 8004dc2:	2300      	movs	r3, #0
 8004dc4:	627b      	str	r3, [r7, #36]	; 0x24
      }      
      count--;
 8004dc6:	69bb      	ldr	r3, [r7, #24]
 8004dc8:	3b01      	subs	r3, #1
 8004dca:	61bb      	str	r3, [r7, #24]
  while ((hspi->Instance->SR & Fifo) != State)
 8004dcc:	68fb      	ldr	r3, [r7, #12]
 8004dce:	681b      	ldr	r3, [r3, #0]
 8004dd0:	689b      	ldr	r3, [r3, #8]
 8004dd2:	68ba      	ldr	r2, [r7, #8]
 8004dd4:	4013      	ands	r3, r2
 8004dd6:	687a      	ldr	r2, [r7, #4]
 8004dd8:	429a      	cmp	r2, r3
 8004dda:	d18e      	bne.n	8004cfa <SPI_WaitFifoStateUntilTimeout+0x4e>
    }
  }

  return HAL_OK;
 8004ddc:	2300      	movs	r3, #0
}
 8004dde:	0018      	movs	r0, r3
 8004de0:	46bd      	mov	sp, r7
 8004de2:	b00a      	add	sp, #40	; 0x28
 8004de4:	bd80      	pop	{r7, pc}
 8004de6:	46c0      	nop			; (mov r8, r8)
 8004de8:	20000000 	.word	0x20000000
 8004dec:	ffffdfff 	.word	0xffffdfff

08004df0 <SPI_EndRxTxTransaction>:
  * @param  Timeout Timeout duration
  * @param  Tickstart tick start value
  * @retval HAL status
  */
static HAL_StatusTypeDef SPI_EndRxTxTransaction(SPI_HandleTypeDef *hspi, uint32_t Timeout, uint32_t Tickstart)
{
 8004df0:	b580      	push	{r7, lr}
 8004df2:	b086      	sub	sp, #24
 8004df4:	af02      	add	r7, sp, #8
 8004df6:	60f8      	str	r0, [r7, #12]
 8004df8:	60b9      	str	r1, [r7, #8]
 8004dfa:	607a      	str	r2, [r7, #4]
  /* Control if the TX fifo is empty */
  if (SPI_WaitFifoStateUntilTimeout(hspi, SPI_FLAG_FTLVL, SPI_FTLVL_EMPTY, Timeout, Tickstart) != HAL_OK)
 8004dfc:	68ba      	ldr	r2, [r7, #8]
 8004dfe:	23c0      	movs	r3, #192	; 0xc0
 8004e00:	0159      	lsls	r1, r3, #5
 8004e02:	68f8      	ldr	r0, [r7, #12]
 8004e04:	687b      	ldr	r3, [r7, #4]
 8004e06:	9300      	str	r3, [sp, #0]
 8004e08:	0013      	movs	r3, r2
 8004e0a:	2200      	movs	r2, #0
 8004e0c:	f7ff ff4e 	bl	8004cac <SPI_WaitFifoStateUntilTimeout>
 8004e10:	1e03      	subs	r3, r0, #0
 8004e12:	d007      	beq.n	8004e24 <SPI_EndRxTxTransaction+0x34>
  {
    SET_BIT(hspi->ErrorCode, HAL_SPI_ERROR_FLAG);
 8004e14:	68fb      	ldr	r3, [r7, #12]
 8004e16:	6e1b      	ldr	r3, [r3, #96]	; 0x60
 8004e18:	2220      	movs	r2, #32
 8004e1a:	431a      	orrs	r2, r3
 8004e1c:	68fb      	ldr	r3, [r7, #12]
 8004e1e:	661a      	str	r2, [r3, #96]	; 0x60
    return HAL_TIMEOUT;
 8004e20:	2303      	movs	r3, #3
 8004e22:	e027      	b.n	8004e74 <SPI_EndRxTxTransaction+0x84>
  }

  /* Control the BSY flag */
  if (SPI_WaitFlagStateUntilTimeout(hspi, SPI_FLAG_BSY, RESET, Timeout, Tickstart) != HAL_OK)
 8004e24:	68ba      	ldr	r2, [r7, #8]
 8004e26:	68f8      	ldr	r0, [r7, #12]
 8004e28:	687b      	ldr	r3, [r7, #4]
 8004e2a:	9300      	str	r3, [sp, #0]
 8004e2c:	0013      	movs	r3, r2
 8004e2e:	2200      	movs	r2, #0
 8004e30:	2180      	movs	r1, #128	; 0x80
 8004e32:	f7ff fead 	bl	8004b90 <SPI_WaitFlagStateUntilTimeout>
 8004e36:	1e03      	subs	r3, r0, #0
 8004e38:	d007      	beq.n	8004e4a <SPI_EndRxTxTransaction+0x5a>
  {
    SET_BIT(hspi->ErrorCode, HAL_SPI_ERROR_FLAG);
 8004e3a:	68fb      	ldr	r3, [r7, #12]
 8004e3c:	6e1b      	ldr	r3, [r3, #96]	; 0x60
 8004e3e:	2220      	movs	r2, #32
 8004e40:	431a      	orrs	r2, r3
 8004e42:	68fb      	ldr	r3, [r7, #12]
 8004e44:	661a      	str	r2, [r3, #96]	; 0x60
    return HAL_TIMEOUT;
 8004e46:	2303      	movs	r3, #3
 8004e48:	e014      	b.n	8004e74 <SPI_EndRxTxTransaction+0x84>
  }

  /* Control if the RX fifo is empty */
  if (SPI_WaitFifoStateUntilTimeout(hspi, SPI_FLAG_FRLVL, SPI_FRLVL_EMPTY, Timeout, Tickstart) != HAL_OK)
 8004e4a:	68ba      	ldr	r2, [r7, #8]
 8004e4c:	23c0      	movs	r3, #192	; 0xc0
 8004e4e:	00d9      	lsls	r1, r3, #3
 8004e50:	68f8      	ldr	r0, [r7, #12]
 8004e52:	687b      	ldr	r3, [r7, #4]
 8004e54:	9300      	str	r3, [sp, #0]
 8004e56:	0013      	movs	r3, r2
 8004e58:	2200      	movs	r2, #0
 8004e5a:	f7ff ff27 	bl	8004cac <SPI_WaitFifoStateUntilTimeout>
 8004e5e:	1e03      	subs	r3, r0, #0
 8004e60:	d007      	beq.n	8004e72 <SPI_EndRxTxTransaction+0x82>
  {
    SET_BIT(hspi->ErrorCode, HAL_SPI_ERROR_FLAG);
 8004e62:	68fb      	ldr	r3, [r7, #12]
 8004e64:	6e1b      	ldr	r3, [r3, #96]	; 0x60
 8004e66:	2220      	movs	r2, #32
 8004e68:	431a      	orrs	r2, r3
 8004e6a:	68fb      	ldr	r3, [r7, #12]
 8004e6c:	661a      	str	r2, [r3, #96]	; 0x60
    return HAL_TIMEOUT;
 8004e6e:	2303      	movs	r3, #3
 8004e70:	e000      	b.n	8004e74 <SPI_EndRxTxTransaction+0x84>
  }

  return HAL_OK;
 8004e72:	2300      	movs	r3, #0
}
 8004e74:	0018      	movs	r0, r3
 8004e76:	46bd      	mov	sp, r7
 8004e78:	b004      	add	sp, #16
 8004e7a:	bd80      	pop	{r7, pc}

08004e7c <memset>:
 8004e7c:	0003      	movs	r3, r0
 8004e7e:	1882      	adds	r2, r0, r2
 8004e80:	4293      	cmp	r3, r2
 8004e82:	d100      	bne.n	8004e86 <memset+0xa>
 8004e84:	4770      	bx	lr
 8004e86:	7019      	strb	r1, [r3, #0]
 8004e88:	3301      	adds	r3, #1
 8004e8a:	e7f9      	b.n	8004e80 <memset+0x4>

08004e8c <__libc_init_array>:
 8004e8c:	b570      	push	{r4, r5, r6, lr}
 8004e8e:	2600      	movs	r6, #0
 8004e90:	4c0c      	ldr	r4, [pc, #48]	; (8004ec4 <__libc_init_array+0x38>)
 8004e92:	4d0d      	ldr	r5, [pc, #52]	; (8004ec8 <__libc_init_array+0x3c>)
 8004e94:	1b64      	subs	r4, r4, r5
 8004e96:	10a4      	asrs	r4, r4, #2
 8004e98:	42a6      	cmp	r6, r4
 8004e9a:	d109      	bne.n	8004eb0 <__libc_init_array+0x24>
 8004e9c:	2600      	movs	r6, #0
 8004e9e:	f000 f819 	bl	8004ed4 <_init>
 8004ea2:	4c0a      	ldr	r4, [pc, #40]	; (8004ecc <__libc_init_array+0x40>)
 8004ea4:	4d0a      	ldr	r5, [pc, #40]	; (8004ed0 <__libc_init_array+0x44>)
 8004ea6:	1b64      	subs	r4, r4, r5
 8004ea8:	10a4      	asrs	r4, r4, #2
 8004eaa:	42a6      	cmp	r6, r4
 8004eac:	d105      	bne.n	8004eba <__libc_init_array+0x2e>
 8004eae:	bd70      	pop	{r4, r5, r6, pc}
 8004eb0:	00b3      	lsls	r3, r6, #2
 8004eb2:	58eb      	ldr	r3, [r5, r3]
 8004eb4:	4798      	blx	r3
 8004eb6:	3601      	adds	r6, #1
 8004eb8:	e7ee      	b.n	8004e98 <__libc_init_array+0xc>
 8004eba:	00b3      	lsls	r3, r6, #2
 8004ebc:	58eb      	ldr	r3, [r5, r3]
 8004ebe:	4798      	blx	r3
 8004ec0:	3601      	adds	r6, #1
 8004ec2:	e7f2      	b.n	8004eaa <__libc_init_array+0x1e>
 8004ec4:	08004f1c 	.word	0x08004f1c
 8004ec8:	08004f1c 	.word	0x08004f1c
 8004ecc:	08004f20 	.word	0x08004f20
 8004ed0:	08004f1c 	.word	0x08004f1c

08004ed4 <_init>:
 8004ed4:	b5f8      	push	{r3, r4, r5, r6, r7, lr}
 8004ed6:	46c0      	nop			; (mov r8, r8)
 8004ed8:	bcf8      	pop	{r3, r4, r5, r6, r7}
 8004eda:	bc08      	pop	{r3}
 8004edc:	469e      	mov	lr, r3
 8004ede:	4770      	bx	lr

08004ee0 <_fini>:
 8004ee0:	b5f8      	push	{r3, r4, r5, r6, r7, lr}
 8004ee2:	46c0      	nop			; (mov r8, r8)
 8004ee4:	bcf8      	pop	{r3, r4, r5, r6, r7}
 8004ee6:	bc08      	pop	{r3}
 8004ee8:	469e      	mov	lr, r3
 8004eea:	4770      	bx	lr
